---
triple:          'arm64-apple-darwin'
binary-path:     '/Users/abhi/Documents/Manual Library/projects/web-scraper-cli/src/learning/grrs/target/debug/build/portable-atomic-dcc9cc07474c1774/build_script_build-dcc9cc07474c1774'
relocations:
  - { offset: 0x1E, size: 0x8, addend: 0x0, symName: __RINvMsx_NtNtCsliVzVx4luf9_4core3str7patternNtB6_14TwoWaySearcher4nextNtB6_14RejectAndMatchECs4F26I76Lgqi_18build_script_build, symObjAddr: 0x0, symBinAddr: 0x100002D14, symSize: 0x4FC }
  - { offset: 0x3D, size: 0x8, addend: 0x0, symName: __RNvCs4F26I76Lgqi_18build_script_build13NO_ATOMIC_CAS, symObjAddr: 0x7FF0, symBinAddr: 0x1000F0C60, symSize: 0x0 }
  - { offset: 0x57, size: 0x8, addend: 0x0, symName: __RNvCs4F26I76Lgqi_18build_script_build12NO_ATOMIC_64, symObjAddr: 0x82E0, symBinAddr: 0x1000F0F50, symSize: 0x0 }
  - { offset: 0x71, size: 0x8, addend: 0x0, symName: __RNvCs4F26I76Lgqi_18build_script_build9NO_ATOMIC, symObjAddr: 0x8320, symBinAddr: 0x1000F0F90, symSize: 0x0 }
  - { offset: 0x8A, size: 0x8, addend: 0x0, symName: __RNCNvCs4F26I76Lgqi_18build_script_build4main0B3_, symObjAddr: 0x4C60, symBinAddr: 0x100007974, symSize: 0x70 }
  - { offset: 0xC0, size: 0x8, addend: 0x0, symName: __RNCNvCs4F26I76Lgqi_18build_script_build4mains_0B3_, symObjAddr: 0x4CD0, symBinAddr: 0x1000079E4, symSize: 0x94 }
  - { offset: 0xFA, size: 0x8, addend: 0x0, symName: __RNCNvCs4F26I76Lgqi_18build_script_build4mains0_0B3_, symObjAddr: 0x4D64, symBinAddr: 0x100007A78, symSize: 0x4C }
  - { offset: 0x131, size: 0x8, addend: 0x0, symName: __RNvCs4F26I76Lgqi_18build_script_build4main, symObjAddr: 0x1C64, symBinAddr: 0x100004978, symSize: 0x2FFC }
  - { offset: 0x617, size: 0x8, addend: 0x0, symName: __RNvCs4F26I76Lgqi_18build_script_build29needs_target_feature_fallback, symObjAddr: 0x4DB0, symBinAddr: 0x100007AC4, symSize: 0x108 }
  - { offset: 0x681, size: 0x8, addend: 0x0, symName: __RNvCs4F26I76Lgqi_18build_script_build23target_feature_fallback, symObjAddr: 0x4EB8, symBinAddr: 0x100007BCC, symSize: 0x6D0 }
  - { offset: 0x8A3, size: 0x8, addend: 0x0, symName: __RNvCs4F26I76Lgqi_18build_script_build10target_cpu, symObjAddr: 0x5588, symBinAddr: 0x10000829C, symSize: 0x360 }
  - { offset: 0x990, size: 0x8, addend: 0x0, symName: __RNvCs4F26I76Lgqi_18build_script_build18is_allowed_feature, symObjAddr: 0x58E8, symBinAddr: 0x1000085FC, symSize: 0x3E8 }
  - { offset: 0xA35, size: 0x8, addend: 0x0, symName: __RNCNvCs4F26I76Lgqi_18build_script_build18is_allowed_feature0B3_, symObjAddr: 0x5CD0, symBinAddr: 0x1000089E4, symSize: 0x48 }
  - { offset: 0xA76, size: 0x8, addend: 0x0, symName: __RNvCs4F26I76Lgqi_18build_script_build27convert_custom_linux_target, symObjAddr: 0x5D18, symBinAddr: 0x100008A2C, symSize: 0x16C }
  - { offset: 0xAD9, size: 0x8, addend: 0x0, symName: __RNvCs4F26I76Lgqi_18build_script_build12strip_prefix, symObjAddr: 0x5E84, symBinAddr: 0x100008B98, symSize: 0xB0 }
  - { offset: 0xB16, size: 0x8, addend: 0x0, symName: __RNvCs4F26I76Lgqi_18build_script_build12strip_suffix, symObjAddr: 0x5F34, symBinAddr: 0x100008C48, symSize: 0xEC }
  - { offset: 0x1E76, size: 0x8, addend: 0x0, symName: __RNvXs2_NtNtCsliVzVx4luf9_4core3str7patterncNtB5_7Pattern13into_searcherCs4F26I76Lgqi_18build_script_build, symObjAddr: 0x9F8, symBinAddr: 0x10000370C, symSize: 0x114 }
  - { offset: 0x1FD8, size: 0x8, addend: 0x0, symName: __RNvXs3_NtNtCsliVzVx4luf9_4core3str7patternNCNvCs4F26I76Lgqi_18build_script_build4main0NtB5_11MultiCharEq7matchesBI_, symObjAddr: 0xB0C, symBinAddr: 0x100003820, symSize: 0x28 }
  - { offset: 0x2024, size: 0x8, addend: 0x0, symName: __RNvXs7_NtNtCsliVzVx4luf9_4core3str7patternINtB5_18MultiCharEqPatternNCNvCs4F26I76Lgqi_18build_script_build4main0ENtB5_7Pattern13into_searcherB18_, symObjAddr: 0xB34, symBinAddr: 0x100003848, symSize: 0x90 }
  - { offset: 0x208C, size: 0x8, addend: 0x0, symName: __RNvXs8_NtNtCsliVzVx4luf9_4core3str7patternINtB5_19MultiCharEqSearcherNCNvCs4F26I76Lgqi_18build_script_build4main0ENtB5_8Searcher4nextB19_, symObjAddr: 0xBC4, symBinAddr: 0x1000038D8, symSize: 0x1B0 }
  - { offset: 0x2371, size: 0x8, addend: 0x0, symName: __RNvXs_NtNtCsliVzVx4luf9_4core3str7patternNtB4_12CharSearcherNtB4_8Searcher10next_matchCs4F26I76Lgqi_18build_script_build, symObjAddr: 0xD74, symBinAddr: 0x100003A88, symSize: 0x3F8 }
  - { offset: 0x2A21, size: 0x8, addend: 0x0, symName: __RNvXs_NtNtCsliVzVx4luf9_4core3str7patternNtB4_12CharSearcherNtB4_8Searcher8haystackCs4F26I76Lgqi_18build_script_build, symObjAddr: 0x116C, symBinAddr: 0x100003E80, symSize: 0x20 }
  - { offset: 0x2A55, size: 0x8, addend: 0x0, symName: __RNvXso_NtNtCsliVzVx4luf9_4core3str7patternINtB5_21CharPredicateSearcherNCNvCs4F26I76Lgqi_18build_script_build4main0ENtB5_8Searcher10next_matchB1b_, symObjAddr: 0x118C, symBinAddr: 0x100003EA0, symSize: 0x24 }
  - { offset: 0x2A8C, size: 0x8, addend: 0x0, symName: __RNvXso_NtNtCsliVzVx4luf9_4core3str7patternINtB5_21CharPredicateSearcherNCNvCs4F26I76Lgqi_18build_script_build4main0ENtB5_8Searcher8haystackB1b_, symObjAddr: 0x11B0, symBinAddr: 0x100003EC4, symSize: 0x28 }
  - { offset: 0x2B2B, size: 0x8, addend: 0x0, symName: __RNvXsr_NtNtCsliVzVx4luf9_4core3str7patternNCNvCs4F26I76Lgqi_18build_script_build4main0NtB5_7Pattern13into_searcherBI_, symObjAddr: 0x11D8, symBinAddr: 0x100003EEC, symSize: 0x48 }
  - { offset: 0x2B77, size: 0x8, addend: 0x0, symName: __RNvXst_NtNtCsliVzVx4luf9_4core3str7patternReNtB5_7Pattern12is_prefix_ofCs4F26I76Lgqi_18build_script_build, symObjAddr: 0x1220, symBinAddr: 0x100003F34, symSize: 0x4C }
  - { offset: 0x2BB4, size: 0x8, addend: 0x0, symName: __RNvXst_NtNtCsliVzVx4luf9_4core3str7patternReNtB5_7Pattern12is_suffix_ofCs4F26I76Lgqi_18build_script_build, symObjAddr: 0x126C, symBinAddr: 0x100003F80, symSize: 0x4C }
  - { offset: 0x2C1D, size: 0x8, addend: 0x0, symName: __RNvXst_NtNtCsliVzVx4luf9_4core3str7patternReNtB5_7Pattern15is_contained_inCs4F26I76Lgqi_18build_script_build, symObjAddr: 0x12B8, symBinAddr: 0x100003FCC, symSize: 0x1F8 }
  - { offset: 0x2F7A, size: 0x8, addend: 0x0, symName: __RNvXst_NtNtCsliVzVx4luf9_4core3str7patternReNtB5_7Pattern15strip_suffix_ofCs4F26I76Lgqi_18build_script_build, symObjAddr: 0x14B0, symBinAddr: 0x1000041C4, symSize: 0xE0 }
  - { offset: 0x31C1, size: 0x8, addend: 0x0, symName: __RNvXsv_NtNtCsliVzVx4luf9_4core3str7patternNtB5_11StrSearcherNtB5_8Searcher10next_matchCs4F26I76Lgqi_18build_script_build, symObjAddr: 0x1590, symBinAddr: 0x1000042A4, symSize: 0x148 }
  - { offset: 0x324C, size: 0x8, addend: 0x0, symName: __RNvXsv_NtNtCsliVzVx4luf9_4core3str7patternNtB5_11StrSearcherNtB5_8Searcher4nextCs4F26I76Lgqi_18build_script_build, symObjAddr: 0x16D8, symBinAddr: 0x1000043EC, symSize: 0x45C }
  - { offset: 0x3810, size: 0x8, addend: 0x0, symName: __RNvXsy_NtNtCsliVzVx4luf9_4core3str7patternNtB5_9MatchOnlyNtB5_14TwoWayStrategy16use_early_rejectCs4F26I76Lgqi_18build_script_build, symObjAddr: 0x1B34, symBinAddr: 0x100004848, symSize: 0xC }
  - { offset: 0x382E, size: 0x8, addend: 0x0, symName: __RNvXsy_NtNtCsliVzVx4luf9_4core3str7patternNtB5_9MatchOnlyNtB5_14TwoWayStrategy8matchingCs4F26I76Lgqi_18build_script_build, symObjAddr: 0x1B40, symBinAddr: 0x100004854, symSize: 0x28 }
  - { offset: 0x386B, size: 0x8, addend: 0x0, symName: __RNvXsy_NtNtCsliVzVx4luf9_4core3str7patternNtB5_9MatchOnlyNtB5_14TwoWayStrategy9rejectingCs4F26I76Lgqi_18build_script_build, symObjAddr: 0x1B68, symBinAddr: 0x10000487C, symSize: 0x18 }
  - { offset: 0x38AE, size: 0x8, addend: 0x0, symName: __RNvXsz_NtNtCsliVzVx4luf9_4core3str7patternNtB5_14RejectAndMatchNtB5_14TwoWayStrategy16use_early_rejectCs4F26I76Lgqi_18build_script_build, symObjAddr: 0x1B80, symBinAddr: 0x100004894, symSize: 0xC }
  - { offset: 0x38CC, size: 0x8, addend: 0x0, symName: __RNvXsz_NtNtCsliVzVx4luf9_4core3str7patternNtB5_14RejectAndMatchNtB5_14TwoWayStrategy8matchingCs4F26I76Lgqi_18build_script_build, symObjAddr: 0x1B8C, symBinAddr: 0x1000048A0, symSize: 0x20 }
  - { offset: 0x3909, size: 0x8, addend: 0x0, symName: __RNvXsz_NtNtCsliVzVx4luf9_4core3str7patternNtB5_14RejectAndMatchNtB5_14TwoWayStrategy9rejectingCs4F26I76Lgqi_18build_script_build, symObjAddr: 0x1BAC, symBinAddr: 0x1000048C0, symSize: 0x28 }
  - { offset: 0x394C, size: 0x8, addend: 0x0, symName: __RNvYINtNtNtCsliVzVx4luf9_4core3str7pattern19MultiCharEqSearcherNCNvCs4F26I76Lgqi_18build_script_build4main0ENtB5_8Searcher10next_matchB13_, symObjAddr: 0x1BD4, symBinAddr: 0x1000048E8, symSize: 0x90 }
  - { offset: 0x4A48, size: 0x8, addend: 0x0, symName: __RINvMsx_NtNtCsliVzVx4luf9_4core3str7patternNtB6_14TwoWaySearcher4nextNtB6_14RejectAndMatchECs4F26I76Lgqi_18build_script_build, symObjAddr: 0x0, symBinAddr: 0x100002D14, symSize: 0x4FC }
  - { offset: 0x4E87, size: 0x8, addend: 0x0, symName: __RINvMsx_NtNtCsliVzVx4luf9_4core3str7patternNtB6_14TwoWaySearcher4nextNtB6_9MatchOnlyECs4F26I76Lgqi_18build_script_build, symObjAddr: 0x4FC, symBinAddr: 0x100003210, symSize: 0x4FC }
  - { offset: 0x59EE, size: 0x8, addend: 0x0, symName: __RINvMNtCsliVzVx4luf9_4core5sliceSRe3getjECs4F26I76Lgqi_18build_script_build, symObjAddr: 0x0, symBinAddr: 0x100008D6C, symSize: 0x44 }
  - { offset: 0x5A9A, size: 0x8, addend: 0x0, symName: __RNvXs3_NtNtCs6P7HZtpS3La_3std3ffi6os_strNtB5_8OsStringINtNtNtCsliVzVx4luf9_4core3ops5index5IndexNtNtBV_5range9RangeFullE5indexCs4F26I76Lgqi_18build_script_build, symObjAddr: 0x2900, symBinAddr: 0x10000B66C, symSize: 0x84 }
  - { offset: 0x5C22, size: 0x8, addend: 0x0, symName: __RNvXs5_NtNtCs6P7HZtpS3La_3std3ffi6os_strNtB5_8OsStringNtNtNtCsliVzVx4luf9_4core3ops5deref5Deref5derefCs4F26I76Lgqi_18build_script_build, symObjAddr: 0x2984, symBinAddr: 0x10000B6F0, symSize: 0x2C }
  - { offset: 0x5C76, size: 0x8, addend: 0x0, symName: __RNvXsQ_NtNtCs6P7HZtpS3La_3std3ffi6os_strNtB5_5OsStrINtNtCsliVzVx4luf9_4core7convert5AsRefBC_E6as_refCs4F26I76Lgqi_18build_script_build, symObjAddr: 0x2D14, symBinAddr: 0x10000BA80, symSize: 0x18 }
  - { offset: 0x5CAA, size: 0x8, addend: 0x0, symName: __RNvXsR_NtNtCs6P7HZtpS3La_3std3ffi6os_strNtB5_8OsStringINtNtCsliVzVx4luf9_4core7convert5AsRefNtB5_5OsStrE6as_refCs4F26I76Lgqi_18build_script_build, symObjAddr: 0x2D2C, symBinAddr: 0x10000BA98, symSize: 0x2C }
  - { offset: 0x5D0A, size: 0x8, addend: 0x0, symName: __RNvXsS_NtNtCs6P7HZtpS3La_3std3ffi6os_streINtNtCsliVzVx4luf9_4core7convert5AsRefNtB5_5OsStrE6as_refCs4F26I76Lgqi_18build_script_build, symObjAddr: 0x2D58, symBinAddr: 0x10000BAC4, symSize: 0x30 }
  - { offset: 0x5E40, size: 0x8, addend: 0x0, symName: __RINvNtCs6P7HZtpS3La_3std3env3varReECs4F26I76Lgqi_18build_script_build, symObjAddr: 0x3C0, symBinAddr: 0x10000912C, symSize: 0x68 }
  - { offset: 0x5E75, size: 0x8, addend: 0x0, symName: __RINvNtCs6P7HZtpS3La_3std3env6var_osReECs4F26I76Lgqi_18build_script_build, symObjAddr: 0x428, symBinAddr: 0x100009194, symSize: 0x68 }
  - { offset: 0x5EB1, size: 0x8, addend: 0x0, symName: __RNvXsk_NtCs6P7HZtpS3La_3std3envNtB5_8VarErrorNtNtCsliVzVx4luf9_4core3fmt5Debug3fmtCs4F26I76Lgqi_18build_script_build, symObjAddr: 0x3140, symBinAddr: 0x10000BEAC, symSize: 0xA0 }
  - { offset: 0x5F77, size: 0x8, addend: 0x0, symName: __RNvXs5_NtNtNtCs6P7HZtpS3La_3std2os2fd5ownedNtB5_7OwnedFdNtNtNtCsliVzVx4luf9_4core3ops4drop4Drop4dropCs4F26I76Lgqi_18build_script_build, symObjAddr: 0x2A04, symBinAddr: 0x10000B770, symSize: 0x38 }
  - { offset: 0x629C, size: 0x8, addend: 0x0, symName: __RINvXsd_NtCs69QEzRJvHMp_5alloc3vecINtB6_3VecReEINtNtNtNtCsliVzVx4luf9_4core4iter6traits7collect12FromIteratorBG_E9from_iterINtNtNtBS_3str4iter5SplitcEECs4F26I76Lgqi_18build_script_build, symObjAddr: 0x940, symBinAddr: 0x1000096AC, symSize: 0x34 }
  - { offset: 0x62E8, size: 0x8, addend: 0x0, symName: __RNvXNtNtCs69QEzRJvHMp_5alloc3vec11spec_extendINtB4_3VecReEINtB2_10SpecExtendBR_INtNtNtCsliVzVx4luf9_4core3str4iter5SplitcEE11spec_extendCs4F26I76Lgqi_18build_script_build, symObjAddr: 0x2170, symBinAddr: 0x10000AEDC, symSize: 0x24 }
  - { offset: 0x6346, size: 0x8, addend: 0x0, symName: __RNvXNtNtCs69QEzRJvHMp_5alloc3vec14spec_from_iterINtB4_3VecReEINtB2_12SpecFromIterBU_INtNtNtCsliVzVx4luf9_4core3str4iter5SplitcEE9from_iterCs4F26I76Lgqi_18build_script_build, symObjAddr: 0x2194, symBinAddr: 0x10000AF00, symSize: 0x14 }
  - { offset: 0x6391, size: 0x8, addend: 0x0, symName: __RNvXNtNtCs69QEzRJvHMp_5alloc3vec21spec_from_iter_nestedINtB4_3VecReEINtB2_18SpecFromIterNestedB11_INtNtNtCsliVzVx4luf9_4core3str4iter5SplitcEE9from_iterCs4F26I76Lgqi_18build_script_build, symObjAddr: 0x21A8, symBinAddr: 0x10000AF14, symSize: 0x258 }
  - { offset: 0x66E6, size: 0x8, addend: 0x0, symName: __RNvXs6_NtCs69QEzRJvHMp_5alloc3vecINtB5_3VecReENtNtNtCsliVzVx4luf9_4core3ops5deref5Deref5derefCs4F26I76Lgqi_18build_script_build, symObjAddr: 0x2A3C, symBinAddr: 0x10000B7A8, symSize: 0x70 }
  - { offset: 0x6809, size: 0x8, addend: 0x0, symName: __RNvXs6_NtCs69QEzRJvHMp_5alloc3vecINtB5_3VechENtNtNtCsliVzVx4luf9_4core3ops5deref5Deref5derefCs4F26I76Lgqi_18build_script_build, symObjAddr: 0x2AAC, symBinAddr: 0x10000B818, symSize: 0x6C }
  - { offset: 0x6A32, size: 0x8, addend: 0x0, symName: __RNvXsc_NtCs69QEzRJvHMp_5alloc3vecINtB5_3VecReEINtNtNtCsliVzVx4luf9_4core3ops5index8IndexMutjE9index_mutCs4F26I76Lgqi_18build_script_build, symObjAddr: 0x2FF4, symBinAddr: 0x10000BD60, symSize: 0x90 }
  - { offset: 0x6C2E, size: 0x8, addend: 0x0, symName: __RNvXsn_NtCs69QEzRJvHMp_5alloc3vecINtB5_3VecINtNtB7_5boxed3BoxDINtNtNtCsliVzVx4luf9_4core3ops8function5FnMutuEp6OutputINtNtB15_6result6ResultuNtNtNtCs6P7HZtpS3La_3std2io5error5ErrorENtNtB15_6marker4SyncNtB2V_4SendEL_EENtNtB13_4drop4Drop4dropCs4F26I76Lgqi_18build_script_build, symObjAddr: 0x31E0, symBinAddr: 0x10000BF4C, symSize: 0x44 }
  - { offset: 0x6D19, size: 0x8, addend: 0x0, symName: __RNvXsn_NtCs69QEzRJvHMp_5alloc3vecINtB5_3VecNtNtNtB7_3ffi5c_str7CStringENtNtNtCsliVzVx4luf9_4core3ops4drop4Drop4dropCs4F26I76Lgqi_18build_script_build, symObjAddr: 0x3224, symBinAddr: 0x10000BF90, symSize: 0x44 }
  - { offset: 0x6E04, size: 0x8, addend: 0x0, symName: __RNvXsn_NtCs69QEzRJvHMp_5alloc3vecINtB5_3VecPaENtNtNtCsliVzVx4luf9_4core3ops4drop4Drop4dropCs4F26I76Lgqi_18build_script_build, symObjAddr: 0x3268, symBinAddr: 0x10000BFD4, symSize: 0x30 }
  - { offset: 0x6EEF, size: 0x8, addend: 0x0, symName: __RNvXsn_NtCs69QEzRJvHMp_5alloc3vecINtB5_3VecReENtNtNtCsliVzVx4luf9_4core3ops4drop4Drop4dropCs4F26I76Lgqi_18build_script_build, symObjAddr: 0x3298, symBinAddr: 0x10000C004, symSize: 0x30 }
  - { offset: 0x6FDA, size: 0x8, addend: 0x0, symName: __RNvXsn_NtCs69QEzRJvHMp_5alloc3vecINtB5_3VechENtNtNtCsliVzVx4luf9_4core3ops4drop4Drop4dropCs4F26I76Lgqi_18build_script_build, symObjAddr: 0x32C8, symBinAddr: 0x10000C034, symSize: 0x30 }
  - { offset: 0x7250, size: 0x8, addend: 0x0, symName: __RNvXs_NtCs69QEzRJvHMp_5alloc5allocNtB4_6GlobalNtNtCsliVzVx4luf9_4core5alloc9Allocator10deallocateCs4F26I76Lgqi_18build_script_build, symObjAddr: 0x2E48, symBinAddr: 0x10000BBB4, symSize: 0x8C }
  - { offset: 0x7375, size: 0x8, addend: 0x0, symName: __RNvXs_NtCs69QEzRJvHMp_5alloc5allocNtB4_6GlobalNtNtCsliVzVx4luf9_4core5alloc9Allocator15allocate_zeroedCs4F26I76Lgqi_18build_script_build, symObjAddr: 0x2ED4, symBinAddr: 0x10000BC40, symSize: 0x34 }
  - { offset: 0x73AF, size: 0x8, addend: 0x0, symName: __RNvXs_NtCs69QEzRJvHMp_5alloc5allocNtB4_6GlobalNtNtCsliVzVx4luf9_4core5alloc9Allocator4growCs4F26I76Lgqi_18build_script_build, symObjAddr: 0x2F08, symBinAddr: 0x10000BC74, symSize: 0x44 }
  - { offset: 0x740A, size: 0x8, addend: 0x0, symName: __RNvXs_NtCs69QEzRJvHMp_5alloc5allocNtB4_6GlobalNtNtCsliVzVx4luf9_4core5alloc9Allocator8allocateCs4F26I76Lgqi_18build_script_build, symObjAddr: 0x2F4C, symBinAddr: 0x10000BCB8, symSize: 0x34 }
  - { offset: 0x749E, size: 0x8, addend: 0x0, symName: __RNvNtCs69QEzRJvHMp_5alloc5alloc15exchange_mallocCs4F26I76Lgqi_18build_script_build, symObjAddr: 0x1DE8, symBinAddr: 0x10000AB54, symSize: 0x90 }
  - { offset: 0x75EB, size: 0x8, addend: 0x0, symName: __RNvNtCs69QEzRJvHMp_5alloc5alloc5allocCs4F26I76Lgqi_18build_script_build, symObjAddr: 0x1E78, symBinAddr: 0x10000ABE4, symSize: 0x80 }
  - { offset: 0x76C8, size: 0x8, addend: 0x0, symName: __RNvXs1_NtCs69QEzRJvHMp_5alloc5allocNtB5_6GlobalNtNtCsliVzVx4luf9_4core5clone5Clone5cloneCs4F26I76Lgqi_18build_script_build, symObjAddr: 0x24D0, symBinAddr: 0x10000B23C, symSize: 0x10 }
  - { offset: 0x7C14, size: 0x8, addend: 0x0, symName: __RNCINvMsm_NtNtNtCs69QEzRJvHMp_5alloc11collections5btree8navigateINtNtBa_4node6HandleINtB13_7NodeRefNtNtB13_6marker5DyingNtNtNtCs6P7HZtpS3La_3std3ffi6os_str8OsStringINtNtCsliVzVx4luf9_4core6option6OptionB1U_ENtB1B_4LeafENtB1B_4EdgeE27deallocating_next_uncheckedNtNtBe_5alloc6GlobalE0Cs4F26I76Lgqi_18build_script_build, symObjAddr: 0xAF4, symBinAddr: 0x100009860, symSize: 0x58 }
  - { offset: 0x8154, size: 0x8, addend: 0x0, symName: __RINvNtNtNtCs69QEzRJvHMp_5alloc11collections5btree3mem7replaceINtNtB4_4node6HandleINtB10_7NodeRefNtNtB10_6marker5DyingNtNtNtCs6P7HZtpS3La_3std3ffi6os_str8OsStringINtNtCsliVzVx4luf9_4core6option6OptionB1R_ENtB1y_4LeafENtB1y_4EdgeEIBY_IB1i_B1w_B1R_B2z_NtB1y_14LeafOrInternalENtB1y_2KVENCINvMsm_NtB4_8navigateBX_27deallocating_next_uncheckedNtNtB8_5alloc6GlobalE0ECs4F26I76Lgqi_18build_script_build, symObjAddr: 0x694, symBinAddr: 0x100009400, symSize: 0xCC }
  - { offset: 0x845E, size: 0x8, addend: 0x0, symName: __RNvXsq_NtCs69QEzRJvHMp_5alloc6stringNtB5_6StringNtNtNtCsliVzVx4luf9_4core3ops5deref5Deref5derefCs4F26I76Lgqi_18build_script_build, symObjAddr: 0x3380, symBinAddr: 0x10000C0EC, symSize: 0x7C }
  - { offset: 0x8672, size: 0x8, addend: 0x0, symName: __RNvXso_NtCs69QEzRJvHMp_5alloc6stringNtB5_6StringINtNtNtCsliVzVx4luf9_4core3ops5index5IndexNtNtBP_5range9RangeFullE5indexCs4F26I76Lgqi_18build_script_build, symObjAddr: 0x32F8, symBinAddr: 0x10000C064, symSize: 0x88 }
  - { offset: 0x888C, size: 0x8, addend: 0x0, symName: __RNvXs1h_NtCs69QEzRJvHMp_5alloc6stringNtB6_6StringINtNtCsliVzVx4luf9_4core3cmp9PartialEqeE2eqCs4F26I76Lgqi_18build_script_build, symObjAddr: 0x24E0, symBinAddr: 0x10000B24C, symSize: 0xDC }
  - { offset: 0x8C64, size: 0x8, addend: 0x0, symName: __RNvXs1j_NtCs69QEzRJvHMp_5alloc6stringNtB6_6StringINtNtCsliVzVx4luf9_4core3cmp9PartialEqReE2eqCs4F26I76Lgqi_18build_script_build, symObjAddr: 0x25BC, symBinAddr: 0x10000B328, symSize: 0xE0 }
  - { offset: 0x903D, size: 0x8, addend: 0x0, symName: __RNvXsi_NtCs69QEzRJvHMp_5alloc6stringNtB5_6StringNtNtCsliVzVx4luf9_4core7default7Default7defaultCs4F26I76Lgqi_18build_script_build, symObjAddr: 0x3084, symBinAddr: 0x10000BDF0, symSize: 0x30 }
  - { offset: 0x908D, size: 0x8, addend: 0x0, symName: __RNvXsj_NtCs69QEzRJvHMp_5alloc6stringNtB5_6StringNtNtCsliVzVx4luf9_4core3fmt7Display3fmtCs4F26I76Lgqi_18build_script_build, symObjAddr: 0x30B4, symBinAddr: 0x10000BE20, symSize: 0x8C }
  - { offset: 0x9272, size: 0x8, addend: 0x0, symName: __RNvXss_NtCs69QEzRJvHMp_5alloc6stringNtB5_6StringNtNtNtCsliVzVx4luf9_4core3ops5deref8DerefMut9deref_mutCs4F26I76Lgqi_18build_script_build, symObjAddr: 0x33FC, symBinAddr: 0x10000C168, symSize: 0x7C }
  - { offset: 0x9422, size: 0x8, addend: 0x0, symName: __RNvXs0_NtCs69QEzRJvHMp_5alloc3strNtNtB7_6string6StringINtNtCsliVzVx4luf9_4core6borrow6BorroweE6borrowCs4F26I76Lgqi_18build_script_build, symObjAddr: 0x241C, symBinAddr: 0x10000B188, symSize: 0x2C }
  - { offset: 0x98BD, size: 0x8, addend: 0x0, symName: __RNvNvMs1_NtNtCsliVzVx4luf9_4core3ptr8non_nullINtB7_7NonNullpE13new_unchecked18precondition_checkCs4F26I76Lgqi_18build_script_build, symObjAddr: 0x1F78, symBinAddr: 0x10000ACE4, symSize: 0x3C }
  - { offset: 0xA439, size: 0x8, addend: 0x0, symName: __RNvNvMNtNtCsliVzVx4luf9_4core3ptr9const_ptrPp7sub_ptr18precondition_checkCs4F26I76Lgqi_18build_script_build, symObjAddr: 0x1F38, symBinAddr: 0x10000ACA4, symSize: 0x40 }
  - { offset: 0xA8FF, size: 0x8, addend: 0x0, symName: __RNvXsP_NtCsliVzVx4luf9_4core3fmtRNtNtNtCs6P7HZtpS3La_3std3ffi6os_str8OsStringNtB5_5Debug3fmtCs4F26I76Lgqi_18build_script_build, symObjAddr: 0x2CE4, symBinAddr: 0x10000BA50, symSize: 0x30 }
  - { offset: 0xAA6C, size: 0x8, addend: 0x0, symName: __RNvXs7_NtNtCsliVzVx4luf9_4core3cmp5implsRNtNtCs69QEzRJvHMp_5alloc6string6StringINtB7_9PartialEqReE2eqCs4F26I76Lgqi_18build_script_build, symObjAddr: 0x2B18, symBinAddr: 0x10000B884, symSize: 0x3C }
  - { offset: 0xAABB, size: 0x8, addend: 0x0, symName: __RNvXs7_NtNtCsliVzVx4luf9_4core3cmp5implsRReNtB7_9PartialEq2eqCs4F26I76Lgqi_18build_script_build, symObjAddr: 0x2B54, symBinAddr: 0x10000B8C0, symSize: 0x34 }
  - { offset: 0xAB0A, size: 0x8, addend: 0x0, symName: __RNvXs7_NtNtCsliVzVx4luf9_4core3cmp5implsRShNtB7_9PartialEq2eqCs4F26I76Lgqi_18build_script_build, symObjAddr: 0x2B88, symBinAddr: 0x10000B8F4, symSize: 0x44 }
  - { offset: 0xAB59, size: 0x8, addend: 0x0, symName: __RNvXs7_NtNtCsliVzVx4luf9_4core3cmp5implsReNtB7_9PartialEq2eqCs4F26I76Lgqi_18build_script_build, symObjAddr: 0x2BCC, symBinAddr: 0x10000B938, symSize: 0x44 }
  - { offset: 0xABA8, size: 0x8, addend: 0x0, symName: __RNvXs7_NtNtCsliVzVx4luf9_4core3cmp5implsReNtB7_9PartialEq2neCs4F26I76Lgqi_18build_script_build, symObjAddr: 0x2C10, symBinAddr: 0x10000B97C, symSize: 0x44 }
  - { offset: 0xABFD, size: 0x8, addend: 0x0, symName: __RNvXNtNtCsliVzVx4luf9_4core3cmp5implsuNtB4_9PartialEq2eqCs4F26I76Lgqi_18build_script_build, symObjAddr: 0x2400, symBinAddr: 0x10000B16C, symSize: 0x1C }
  - { offset: 0xAC40, size: 0x8, addend: 0x0, symName: __RNvXsV_NtNtCsliVzVx4luf9_4core3cmp5implsjNtB7_3Ord3cmpCs4F26I76Lgqi_18build_script_build, symObjAddr: 0x2D88, symBinAddr: 0x10000BAF4, symSize: 0x38 }
  - { offset: 0xAC83, size: 0x8, addend: 0x0, symName: __RNvXsW_NtNtCsliVzVx4luf9_4core3cmp5implshNtB7_10PartialOrd11partial_cmpCs4F26I76Lgqi_18build_script_build, symObjAddr: 0x2DC0, symBinAddr: 0x10000BB2C, symSize: 0x44 }
  - { offset: 0xACC6, size: 0x8, addend: 0x0, symName: __RNvXsY_NtNtCsliVzVx4luf9_4core3cmp5implstNtB7_10PartialOrd11partial_cmpCs4F26I76Lgqi_18build_script_build, symObjAddr: 0x2E04, symBinAddr: 0x10000BB70, symSize: 0x44 }
  - { offset: 0xAD82, size: 0x8, addend: 0x0, symName: __RINvMNtCsliVzVx4luf9_4core5sliceSRe3getjECs4F26I76Lgqi_18build_script_build, symObjAddr: 0x0, symBinAddr: 0x100008D6C, symSize: 0x44 }
  - { offset: 0xADD1, size: 0x8, addend: 0x0, symName: __RINvMNtCsliVzVx4luf9_4core5sliceSh3getINtNtNtB5_3ops5range9RangeFromjEECs4F26I76Lgqi_18build_script_build, symObjAddr: 0x44, symBinAddr: 0x100008DB0, symSize: 0x44 }
  - { offset: 0xAE72, size: 0x8, addend: 0x0, symName: __RNvMNtCsliVzVx4luf9_4core5sliceSINtNtNtB4_3mem12maybe_uninit11MaybeUninithE15copy_from_sliceCs4F26I76Lgqi_18build_script_build, symObjAddr: 0x1394, symBinAddr: 0x10000A100, symSize: 0xA4 }
  - { offset: 0xAF61, size: 0x8, addend: 0x0, symName: __RNvMNtCsliVzVx4luf9_4core5sliceSINtNtNtB4_3mem12maybe_uninit11MaybeUninithE22split_at_mut_uncheckedCs4F26I76Lgqi_18build_script_build, symObjAddr: 0x1438, symBinAddr: 0x10000A1A4, symSize: 0xF8 }
  - { offset: 0xB181, size: 0x8, addend: 0x0, symName: __RNvMNtCsliVzVx4luf9_4core5sliceSRe8containsCs4F26I76Lgqi_18build_script_build, symObjAddr: 0x1530, symBinAddr: 0x10000A29C, symSize: 0x48 }
  - { offset: 0xB1C7, size: 0x8, addend: 0x0, symName: __RNvMNtCsliVzVx4luf9_4core5sliceSh11starts_withCs4F26I76Lgqi_18build_script_build, symObjAddr: 0x1578, symBinAddr: 0x10000A2E4, symSize: 0x108 }
  - { offset: 0xB3F9, size: 0x8, addend: 0x0, symName: __RNvMNtCsliVzVx4luf9_4core5sliceSh5firstCs4F26I76Lgqi_18build_script_build, symObjAddr: 0x1680, symBinAddr: 0x10000A3EC, symSize: 0x44 }
  - { offset: 0xB443, size: 0x8, addend: 0x0, symName: __RNvMNtCsliVzVx4luf9_4core5sliceSh9ends_withCs4F26I76Lgqi_18build_script_build, symObjAddr: 0x16C4, symBinAddr: 0x10000A430, symSize: 0xC0 }
  - { offset: 0xB5AA, size: 0x8, addend: 0x0, symName: __RNvNvMNtCsliVzVx4luf9_4core5sliceSp22split_at_mut_unchecked18precondition_checkCs4F26I76Lgqi_18build_script_build, symObjAddr: 0x1EF8, symBinAddr: 0x10000AC64, symSize: 0x40 }
  - { offset: 0xB5EC, size: 0x8, addend: 0x0, symName: __RINvXs2U_NtNtCsliVzVx4luf9_4core5slice4iterINtB7_4IterReENtNtNtNtBb_4iter6traits8iterator8Iterator3anyNCNvXs8_NtB9_3cmpBQ_NtB1K_13SliceContains14slice_contains0ECs4F26I76Lgqi_18build_script_build, symObjAddr: 0x88C, symBinAddr: 0x1000095F8, symSize: 0xB4 }
  - { offset: 0xB651, size: 0x8, addend: 0x0, symName: __RNvXs2U_NtNtCsliVzVx4luf9_4core5slice4iterINtB6_4IterReENtNtNtNtBa_4iter6traits8iterator8Iterator4nextCs4F26I76Lgqi_18build_script_build, symObjAddr: 0x269C, symBinAddr: 0x10000B408, symSize: 0xCC }
  - { offset: 0xB80C, size: 0x8, addend: 0x0, symName: __RNvXs2U_NtNtCsliVzVx4luf9_4core5slice4iterINtB6_4IterhENtNtNtNtBa_4iter6traits8iterator8Iterator4nextCs4F26I76Lgqi_18build_script_build, symObjAddr: 0x2768, symBinAddr: 0x10000B4D4, symSize: 0xCC }
  - { offset: 0xBBAA, size: 0x8, addend: 0x0, symName: __RNvXs32_NtNtCsliVzVx4luf9_4core5slice4iterINtB6_7IterMuthENtNtNtNtBa_4iter6traits8iterator8Iterator4nextCs4F26I76Lgqi_18build_script_build, symObjAddr: 0x2834, symBinAddr: 0x10000B5A0, symSize: 0xCC }
  - { offset: 0xC273, size: 0x8, addend: 0x0, symName: __RNvMNtNtCsliVzVx4luf9_4core5slice5asciiSh20make_ascii_uppercaseCs4F26I76Lgqi_18build_script_build, symObjAddr: 0x1784, symBinAddr: 0x10000A4F0, symSize: 0xC8 }
  - { offset: 0xD2C4, size: 0x8, addend: 0x0, symName: __RNvMs9_NtCsliVzVx4luf9_4core3numj11checked_addCs4F26I76Lgqi_18build_script_build, symObjAddr: 0x184C, symBinAddr: 0x10000A5B8, symSize: 0x78 }
  - { offset: 0xD379, size: 0x8, addend: 0x0, symName: __RNvNvMs9_NtCsliVzVx4luf9_4core3numj13unchecked_add18precondition_checkCs4F26I76Lgqi_18build_script_build, symObjAddr: 0x1FB4, symBinAddr: 0x10000AD20, symSize: 0x4C }
  - { offset: 0xD430, size: 0x8, addend: 0x0, symName: __RNvNvMs9_NtCsliVzVx4luf9_4core3numj13unchecked_mul18precondition_checkCs4F26I76Lgqi_18build_script_build, symObjAddr: 0x2000, symBinAddr: 0x10000AD6C, symSize: 0x54 }
  - { offset: 0xD4E7, size: 0x8, addend: 0x0, symName: __RNvNvMs9_NtCsliVzVx4luf9_4core3numj13unchecked_sub18precondition_checkCs4F26I76Lgqi_18build_script_build, symObjAddr: 0x2054, symBinAddr: 0x10000ADC0, symSize: 0x54 }
  - { offset: 0xD676, size: 0x8, addend: 0x0, symName: __RNvXs5_NtNtCsliVzVx4luf9_4core3num5errorNtB5_15TryFromIntErrorNtNtB9_3fmt5Debug3fmtCs4F26I76Lgqi_18build_script_build, symObjAddr: 0x29B0, symBinAddr: 0x10000B71C, symSize: 0x54 }
  - { offset: 0xD83B, size: 0x8, addend: 0x0, symName: __RINvNtNtCsliVzVx4luf9_4core3str11validations15next_code_pointINtNtNtB6_5slice4iter4IterhEECs4F26I76Lgqi_18build_script_build, symObjAddr: 0x490, symBinAddr: 0x1000091FC, symSize: 0x204 }
  - { offset: 0xE0F9, size: 0x8, addend: 0x0, symName: __RNvXNtCsliVzVx4luf9_4core7convertRNtNtNtCs6P7HZtpS3La_3std3ffi6os_str5OsStrINtB2_5AsRefBw_E6as_refCs4F26I76Lgqi_18build_script_build, symObjAddr: 0x2140, symBinAddr: 0x10000AEAC, symSize: 0x30 }
  - { offset: 0xE182, size: 0x8, addend: 0x0, symName: __RINvNtNtNtCsliVzVx4luf9_4core4iter8adapters5chain17and_then_or_clearINtNtB8_6option8IntoIterNtNtNtCs6P7HZtpS3La_3std3ffi6os_str8OsStringEB1s_NvYB14_NtNtNtB6_6traits8iterator8Iterator4nextECs4F26I76Lgqi_18build_script_build, symObjAddr: 0x760, symBinAddr: 0x1000094CC, symSize: 0x12C }
  - { offset: 0xE2F8, size: 0x8, addend: 0x0, symName: __RNCNvXs_NtNtNtCsliVzVx4luf9_4core4iter8adapters5chainINtB6_5ChainINtNtBc_6option8IntoIterNtNtNtCs6P7HZtpS3La_3std3ffi6os_str8OsStringEINtNtNtBa_7sources4once4OnceB1p_EENtNtNtBa_6traits8iterator8Iterator4next0Cs4F26I76Lgqi_18build_script_build, symObjAddr: 0xBF4, symBinAddr: 0x100009960, symSize: 0x8C }
  - { offset: 0xE3DA, size: 0x8, addend: 0x0, symName: __RNvXs_NtNtNtCsliVzVx4luf9_4core4iter8adapters5chainINtB4_5ChainINtNtBa_6option8IntoIterNtNtNtCs6P7HZtpS3La_3std3ffi6os_str8OsStringEINtNtNtB8_7sources4once4OnceB1n_EENtNtNtB8_6traits8iterator8Iterator4nextCs4F26I76Lgqi_18build_script_build, symObjAddr: 0x2FB0, symBinAddr: 0x10000BD1C, symSize: 0x44 }
  - { offset: 0xE457, size: 0x8, addend: 0x0, symName: __RNCINvNtNtNtCsliVzVx4luf9_4core4iter8adapters3map12map_try_foldRRejjINtNtBa_6option6OptionjENCNCINvNtCs69QEzRJvHMp_5alloc3str17join_generic_copyehB10_E00NvMs9_NtBa_3numj11checked_addE0Cs4F26I76Lgqi_18build_script_build, symObjAddr: 0xB4C, symBinAddr: 0x1000098B8, symSize: 0xA8 }
  - { offset: 0xE50C, size: 0x8, addend: 0x0, symName: __RNvXs0_NtNtNtCsliVzVx4luf9_4core4iter8adapters3mapINtB5_3MapINtNtNtBb_3str4iter14SplitInclusivecENtB11_8LinesMapENtNtNtB9_6traits8iterator8Iterator4nextCs4F26I76Lgqi_18build_script_build, symObjAddr: 0x2448, symBinAddr: 0x10000B1B4, symSize: 0x88 }
  - { offset: 0xE5D1, size: 0x8, addend: 0x0, symName: __RINvYINtNtNtCsliVzVx4luf9_4core5slice4iter4IterReENtNtNtNtBa_4iter6traits8iterator8Iterator8try_foldjNCINvNtNtBS_8adapters3map12map_try_foldRBJ_jjINtNtBa_6option6OptionjENCNCINvNtCs69QEzRJvHMp_5alloc3str17join_generic_copyehBJ_E00NvMs9_NtBa_3numj11checked_addE0B2k_ECs4F26I76Lgqi_18build_script_build, symObjAddr: 0x974, symBinAddr: 0x1000096E0, symSize: 0x180 }
  - { offset: 0xE698, size: 0x8, addend: 0x0, symName: __RNvXs_NtNtNtCsliVzVx4luf9_4core4iter6traits7collectINtNtNtB8_8adapters5chain5ChainINtNtBa_6option8IntoIterNtNtNtCs6P7HZtpS3La_3std3ffi6os_str8OsStringEINtNtNtB8_7sources4once4OnceB1G_EENtB4_12IntoIterator9into_iterCs4F26I76Lgqi_18build_script_build, symObjAddr: 0x2F80, symBinAddr: 0x10000BCEC, symSize: 0x30 }
  - { offset: 0xE707, size: 0x8, addend: 0x0, symName: __RNvXsF_NtNtCsliVzVx4luf9_4core4iter5rangejNtB5_4Step17forward_uncheckedCs4F26I76Lgqi_18build_script_build, symObjAddr: 0x2C54, symBinAddr: 0x10000B9C0, symSize: 0x48 }
  - { offset: 0xE774, size: 0x8, addend: 0x0, symName: __RNvXsF_NtNtCsliVzVx4luf9_4core4iter5rangejNtB5_4Step18backward_uncheckedCs4F26I76Lgqi_18build_script_build, symObjAddr: 0x2C9C, symBinAddr: 0x10000BA08, symSize: 0x48 }
  - { offset: 0xEE76, size: 0x8, addend: 0x0, symName: __RNvNvNtNtCsliVzVx4luf9_4core4char7convert18from_u32_unchecked18precondition_checkCs4F26I76Lgqi_18build_script_build, symObjAddr: 0x20A8, symBinAddr: 0x10000AE14, symSize: 0x98 }
  - { offset: 0xEFCE, size: 0x8, addend: 0x0, symName: __RINvMsb_NtNtNtCs69QEzRJvHMp_5alloc11collections5btree8navigateINtB6_13LazyLeafRangeNtNtNtB8_4node6marker5DyingNtNtNtCs6P7HZtpS3La_3std3ffi6os_str8OsStringINtNtCsliVzVx4luf9_4core6option6OptionB1K_EE16deallocating_endNtNtBc_5alloc6GlobalECs4F26I76Lgqi_18build_script_build, symObjAddr: 0x88, symBinAddr: 0x100008DF4, symSize: 0xA8 }
  - { offset: 0xF0DF, size: 0x8, addend: 0x0, symName: __RINvMsb_NtNtNtCs69QEzRJvHMp_5alloc11collections5btree8navigateINtB6_13LazyLeafRangeNtNtNtB8_4node6marker5DyingNtNtNtCs6P7HZtpS3La_3std3ffi6os_str8OsStringINtNtCsliVzVx4luf9_4core6option6OptionB1K_EE27deallocating_next_uncheckedNtNtBc_5alloc6GlobalECs4F26I76Lgqi_18build_script_build, symObjAddr: 0x130, symBinAddr: 0x100008E9C, symSize: 0xA8 }
  - { offset: 0xF41B, size: 0x8, addend: 0x0, symName: __RINvMsi_NtCs69QEzRJvHMp_5alloc3vecINtB6_3VecReE16extend_desugaredINtNtNtCsliVzVx4luf9_4core3str4iter5SplitcEECs4F26I76Lgqi_18build_script_build, symObjAddr: 0x1D8, symBinAddr: 0x100008F44, symSize: 0x1E8 }
  - { offset: 0xFB33, size: 0x8, addend: 0x0, symName: __RNvMNtCs69QEzRJvHMp_5alloc5allocNtB2_6Global10alloc_implCs4F26I76Lgqi_18build_script_build, symObjAddr: 0xC80, symBinAddr: 0x1000099EC, symSize: 0x20C }
  - { offset: 0x10392, size: 0x8, addend: 0x0, symName: __RNvMNtCs69QEzRJvHMp_5alloc5allocNtB2_6Global9grow_implCs4F26I76Lgqi_18build_script_build, symObjAddr: 0xE8C, symBinAddr: 0x100009BF8, symSize: 0x508 }
  - { offset: 0x10E7F, size: 0x8, addend: 0x0, symName: __RNvMs_NtCs69QEzRJvHMp_5alloc3vecINtB4_3VechE15append_elementsCs4F26I76Lgqi_18build_script_build, symObjAddr: 0x18C4, symBinAddr: 0x10000A630, symSize: 0x110 }
  - { offset: 0x112F9, size: 0x8, addend: 0x0, symName: __RNvMsb_NtNtNtCs69QEzRJvHMp_5alloc11collections5btree8navigateINtB5_13LazyLeafRangeNtNtNtB7_4node6marker5DyingNtNtNtCs6P7HZtpS3La_3std3ffi6os_str8OsStringINtNtCsliVzVx4luf9_4core6option6OptionB1J_EE10take_frontCs4F26I76Lgqi_18build_script_build, symObjAddr: 0x19D4, symBinAddr: 0x10000A740, symSize: 0x1F8 }
  - { offset: 0x11752, size: 0x8, addend: 0x0, symName: __RNvMsc_NtNtNtCs69QEzRJvHMp_5alloc11collections5btree8navigateINtB5_13LazyLeafRangeNtNtNtB7_4node6marker5DyingNtNtNtCs6P7HZtpS3La_3std3ffi6os_str8OsStringINtNtCsliVzVx4luf9_4core6option6OptionB1J_EE10init_frontCs4F26I76Lgqi_18build_script_build, symObjAddr: 0x1BCC, symBinAddr: 0x10000A938, symSize: 0x1CC }
  - { offset: 0x11922, size: 0x8, addend: 0x0, symName: __RNvMsl_NtNtCs6P7HZtpS3La_3std3ffi6os_strNtB5_5OsStr15to_string_lossyCs4F26I76Lgqi_18build_script_build, symObjAddr: 0x1D98, symBinAddr: 0x10000AB04, symSize: 0x28 }
  - { offset: 0x11945, size: 0x8, addend: 0x0, symName: __RNvMsl_NtNtCs6P7HZtpS3La_3std3ffi6os_strNtB5_5OsStr8is_emptyCs4F26I76Lgqi_18build_script_build, symObjAddr: 0x1DC0, symBinAddr: 0x10000AB2C, symSize: 0x28 }
  - { offset: 0x12B76, size: 0x8, addend: 0x0, symName: __RINvMNtCs69QEzRJvHMp_5alloc5sliceSRe4joinBw_ECs4F26I76Lgqi_18build_script_build, symObjAddr: 0x0, symBinAddr: 0x10000C1E4, symSize: 0x34 }
  - { offset: 0x12BCB, size: 0x8, addend: 0x0, symName: __RNCINvNtCs6P7HZtpS3La_3std9panicking11begin_panicReE0Cs4F26I76Lgqi_18build_script_build, symObjAddr: 0xDF4, symBinAddr: 0x10000CF9C, symSize: 0x74 }
  - { offset: 0x12C16, size: 0x8, addend: 0x0, symName: __RNvXNvNtCs6P7HZtpS3La_3std9panicking11begin_panicINtB2_7PayloadReENtNtCsliVzVx4luf9_4core5panic12PanicPayload3getCs4F26I76Lgqi_18build_script_build, symObjAddr: 0x26DC, symBinAddr: 0x10000E884, symSize: 0x50 }
  - { offset: 0x12C4D, size: 0x8, addend: 0x0, symName: __RNvXNvNtCs6P7HZtpS3La_3std9panicking11begin_panicINtB2_7PayloadReENtNtCsliVzVx4luf9_4core5panic12PanicPayload8take_boxCs4F26I76Lgqi_18build_script_build, symObjAddr: 0x272C, symBinAddr: 0x10000E8D4, symSize: 0x128 }
  - { offset: 0x12E53, size: 0x8, addend: 0x0, symName: __RNvXs_NvNtCs6P7HZtpS3La_3std9panicking11begin_panicINtB4_7PayloadReENtNtCsliVzVx4luf9_4core3fmt7Display3fmtCs4F26I76Lgqi_18build_script_build, symObjAddr: 0x2BD4, symBinAddr: 0x10000ED7C, symSize: 0x74 }
  - { offset: 0x12ED7, size: 0x8, addend: 0x0, symName: __RINvNtCs6P7HZtpS3La_3std9panicking11begin_panicReECs4F26I76Lgqi_18build_script_build, symObjAddr: 0x750, symBinAddr: 0x1000A48E8, symSize: 0x3C }
  - { offset: 0x13219, size: 0x8, addend: 0x0, symName: __RNvNtNtNtNtCs6P7HZtpS3La_3std3sys3pal4unix2fs23debug_assert_fd_is_openCs4F26I76Lgqi_18build_script_build, symObjAddr: 0x237C, symBinAddr: 0x10000E524, symSize: 0xC8 }
  - { offset: 0x13282, size: 0x8, addend: 0x0, symName: __RINvNtNtCs6P7HZtpS3La_3std3sys9backtrace26___rust_end_short_backtraceNCINvNtB6_9panicking11begin_panicReE0zECs4F26I76Lgqi_18build_script_build, symObjAddr: 0x84C, symBinAddr: 0x10000C9F4, symSize: 0x14 }
  - { offset: 0x13304, size: 0x8, addend: 0x0, symName: __RINvNtNtCs6P7HZtpS3La_3std3sys9backtrace28___rust_begin_short_backtraceFEuuECs4F26I76Lgqi_18build_script_build, symObjAddr: 0x860, symBinAddr: 0x10000CA08, symSize: 0x24 }
  - { offset: 0x133AD, size: 0x8, addend: 0x0, symName: __RNvXNvNtNtCs6P7HZtpS3La_3std2io5Write9write_fmtINtB2_7AdapterNtNtNtNtNtB8_3sys3pal4unix5stdio6StderrENtNtCsliVzVx4luf9_4core3fmt5Write9write_strCs4F26I76Lgqi_18build_script_build, symObjAddr: 0x2854, symBinAddr: 0x10000E9FC, symSize: 0xB8 }
  - { offset: 0x134ED, size: 0x8, addend: 0x0, symName: __RNCNvXs1_NtNtNtCs6P7HZtpS3La_3std2io5error14repr_bitpackedNtB7_4ReprNtNtNtCsliVzVx4luf9_4core3ops4drop4Drop4drop0Cs4F26I76Lgqi_18build_script_build, symObjAddr: 0xE7C, symBinAddr: 0x10000D024, symSize: 0x34 }
  - { offset: 0x135DA, size: 0x8, addend: 0x0, symName: __RNvXs1_NtNtNtCs6P7HZtpS3La_3std2io5error14repr_bitpackedNtB5_4ReprNtNtNtCsliVzVx4luf9_4core3ops4drop4Drop4dropCs4F26I76Lgqi_18build_script_build, symObjAddr: 0x2A20, symBinAddr: 0x10000EBC8, symSize: 0x38 }
  - { offset: 0x13603, size: 0x8, addend: 0x0, symName: __RINvNtNtNtCs6P7HZtpS3La_3std2io5error14repr_bitpacked11decode_reprINtNtCs69QEzRJvHMp_5alloc5boxed3BoxNtB4_6CustomENCNvXs1_B2_NtB2_4ReprNtNtNtCsliVzVx4luf9_4core3ops4drop4Drop4drop0ECs4F26I76Lgqi_18build_script_build, symObjAddr: 0x884, symBinAddr: 0x10000CA2C, symSize: 0x234 }
  - { offset: 0x1399A, size: 0x8, addend: 0x0, symName: __RNCNvMs0_NtNtNtCs6P7HZtpS3La_3std2io5error14repr_bitpackedNtB7_4Repr4data0Cs4F26I76Lgqi_18build_script_build, symObjAddr: 0xE68, symBinAddr: 0x10000D010, symSize: 0x14 }
  - { offset: 0x139D2, size: 0x8, addend: 0x0, symName: __RINvNtNtNtCs6P7HZtpS3La_3std2io5error14repr_bitpacked11decode_reprRNtB4_6CustomNCNvMs0_B2_NtB2_4Repr4data0ECs4F26I76Lgqi_18build_script_build, symObjAddr: 0xAB8, symBinAddr: 0x10000CC60, symSize: 0x234 }
  - { offset: 0x13D58, size: 0x8, addend: 0x0, symName: __RNvNtNtNtCs6P7HZtpS3La_3std2io5error14repr_bitpacked14kind_from_primCs4F26I76Lgqi_18build_script_build, symObjAddr: 0x1D98, symBinAddr: 0x10000DF40, symSize: 0x5E4 }
  - { offset: 0x148A5, size: 0x8, addend: 0x0, symName: __RNvXsT_NtCs6P7HZtpS3La_3std7processuNtB5_11Termination6reportCs4F26I76Lgqi_18build_script_build, symObjAddr: 0x2B60, symBinAddr: 0x10000ED08, symSize: 0x10 }
  - { offset: 0x16A9C, size: 0x8, addend: 0x0, symName: __RINvNtCsliVzVx4luf9_4core3cmp6max_byjNvYjNtB2_3Ord3cmpECs4F26I76Lgqi_18build_script_build, symObjAddr: 0x78C, symBinAddr: 0x10000C934, symSize: 0xC0 }
  - { offset: 0x16B49, size: 0x8, addend: 0x0, symName: __RNvYNtNtCs4F26I76Lgqi_18build_script_build7version4DateNtNtCsliVzVx4luf9_4core3cmp10PartialOrd2geB6_, symObjAddr: 0x3140, symBinAddr: 0x10000F2E8, symSize: 0x78 }
  - { offset: 0x16B98, size: 0x8, addend: 0x0, symName: __RNvYNtNtCs4F26I76Lgqi_18build_script_build7version4DateNtNtCsliVzVx4luf9_4core3cmp10PartialOrd2gtB6_, symObjAddr: 0x31B8, symBinAddr: 0x10000F360, symSize: 0x6C }
  - { offset: 0x16BE7, size: 0x8, addend: 0x0, symName: __RNvYNtNtCs4F26I76Lgqi_18build_script_build7version4DateNtNtCsliVzVx4luf9_4core3cmp10PartialOrd2leB6_, symObjAddr: 0x3224, symBinAddr: 0x10000F3CC, symSize: 0x7C }
  - { offset: 0x16C36, size: 0x8, addend: 0x0, symName: __RNvYNtNtCs4F26I76Lgqi_18build_script_build7version4DateNtNtCsliVzVx4luf9_4core3cmp10PartialOrd2ltB6_, symObjAddr: 0x32A0, symBinAddr: 0x10000F448, symSize: 0x6C }
  - { offset: 0x16C8B, size: 0x8, addend: 0x0, symName: __RNvYNtNtCs4F26I76Lgqi_18build_script_build7version4DateNtNtCsliVzVx4luf9_4core3cmp9PartialEq2neB6_, symObjAddr: 0x330C, symBinAddr: 0x10000F4B4, symSize: 0x30 }
  - { offset: 0x16CDA, size: 0x8, addend: 0x0, symName: __RNvYeNtNtCsliVzVx4luf9_4core3cmp9PartialEq2neCs4F26I76Lgqi_18build_script_build, symObjAddr: 0x333C, symBinAddr: 0x10000F4E4, symSize: 0x38 }
  - { offset: 0x1704C, size: 0x8, addend: 0x0, symName: __RNvXs_NvNtNtCsliVzVx4luf9_4core3fmt5Write9write_fmtQINtNvNtNtCs6P7HZtpS3La_3std2io5Write9write_fmt7AdapterNtNtNtNtNtBX_3sys3pal4unix5stdio6StderrENtB4_12SpecWriteFmt14spec_write_fmtCs4F26I76Lgqi_18build_script_build, symObjAddr: 0x2C48, symBinAddr: 0x10000EDF0, symSize: 0x190 }
  - { offset: 0x17124, size: 0x8, addend: 0x0, symName: __RNvYINtNvNtNtCs6P7HZtpS3La_3std2io5Write9write_fmt7AdapterNtNtNtNtNtBb_3sys3pal4unix5stdio6StderrENtNtCsliVzVx4luf9_4core3fmt5Write10write_charCs4F26I76Lgqi_18build_script_build, symObjAddr: 0x30AC, symBinAddr: 0x10000F254, symSize: 0x70 }
  - { offset: 0x1719A, size: 0x8, addend: 0x0, symName: __RNvYINtNvNtNtCs6P7HZtpS3La_3std2io5Write9write_fmt7AdapterNtNtNtNtNtBb_3sys3pal4unix5stdio6StderrENtNtCsliVzVx4luf9_4core3fmt5Write9write_fmtCs4F26I76Lgqi_18build_script_build, symObjAddr: 0x311C, symBinAddr: 0x10000F2C4, symSize: 0x24 }
  - { offset: 0x176FA, size: 0x8, addend: 0x0, symName: __RNvYINtNvNtCs6P7HZtpS3La_3std9panicking11begin_panic7PayloadReENtNtCsliVzVx4luf9_4core5panic12PanicPayload6as_strCs4F26I76Lgqi_18build_script_build, symObjAddr: 0x3088, symBinAddr: 0x10000F230, symSize: 0x24 }
  - { offset: 0x1779D, size: 0x8, addend: 0x0, symName: __RNvNvNtCsliVzVx4luf9_4core4hint16assert_unchecked18precondition_checkCs4F26I76Lgqi_18build_script_build, symObjAddr: 0x2444, symBinAddr: 0x10000E5EC, symSize: 0x38 }
  - { offset: 0x177CB, size: 0x8, addend: 0x0, symName: __RNvNvNtCsliVzVx4luf9_4core4hint21unreachable_unchecked18precondition_checkCs4F26I76Lgqi_18build_script_build, symObjAddr: 0x247C, symBinAddr: 0x10000E624, symSize: 0x1C }
  - { offset: 0x17982, size: 0x8, addend: 0x0, symName: __RNvNvXs0_NtNtCsliVzVx4luf9_4core5slice5indexjINtB7_10SliceIndexSpE13get_unchecked18precondition_checkCs4F26I76Lgqi_18build_script_build, symObjAddr: 0x2498, symBinAddr: 0x10000E640, symSize: 0x40 }
  - { offset: 0x179BE, size: 0x8, addend: 0x0, symName: __RNvNvXs0_NtNtCsliVzVx4luf9_4core5slice5indexjINtB7_10SliceIndexSpE17get_unchecked_mut18precondition_checkCs4F26I76Lgqi_18build_script_build, symObjAddr: 0x24D8, symBinAddr: 0x10000E680, symSize: 0x40 }
  - { offset: 0x179F5, size: 0x8, addend: 0x0, symName: __RNvXs0_NtNtCsliVzVx4luf9_4core5slice5indexjINtB5_10SliceIndexSReE3getCs4F26I76Lgqi_18build_script_build, symObjAddr: 0x2974, symBinAddr: 0x10000EB1C, symSize: 0x50 }
  - { offset: 0x17A81, size: 0x8, addend: 0x0, symName: __RNvXs0_NtNtCsliVzVx4luf9_4core5slice5indexjINtB5_10SliceIndexSReE9index_mutCs4F26I76Lgqi_18build_script_build, symObjAddr: 0x29C4, symBinAddr: 0x10000EB6C, symSize: 0x5C }
  - { offset: 0x17C10, size: 0x8, addend: 0x0, symName: __RNvNvXs2_NtNtCsliVzVx4luf9_4core5slice5indexINtNtNtBb_3ops5range5RangejEINtB7_10SliceIndexSpE13get_unchecked18precondition_checkCs4F26I76Lgqi_18build_script_build, symObjAddr: 0x2518, symBinAddr: 0x10000E6C0, symSize: 0x60 }
  - { offset: 0x17C5A, size: 0x8, addend: 0x0, symName: __RNvNvXs2_NtNtCsliVzVx4luf9_4core5slice5indexINtNtNtBb_3ops5range5RangejEINtB7_10SliceIndexSpE17get_unchecked_mut18precondition_checkCs4F26I76Lgqi_18build_script_build, symObjAddr: 0x2578, symBinAddr: 0x10000E720, symSize: 0x60 }
  - { offset: 0x17D1D, size: 0x8, addend: 0x0, symName: __RNvNtNtCsliVzVx4luf9_4core5slice6memchr6memchrCs4F26I76Lgqi_18build_script_build, symObjAddr: 0x1C84, symBinAddr: 0x10000DE2C, symSize: 0x114 }
  - { offset: 0x17E4F, size: 0x8, addend: 0x0, symName: __RNvNvXs5_NtNtCsliVzVx4luf9_4core3str6traitsINtNtNtBb_3ops5range5RangejEINtNtNtBb_5slice5index10SliceIndexeE13get_unchecked18precondition_checkCs4F26I76Lgqi_18build_script_build, symObjAddr: 0x25D8, symBinAddr: 0x10000E780, symSize: 0x60 }
  - { offset: 0x17E9A, size: 0x8, addend: 0x0, symName: __RNvXs2_NtNtCsliVzVx4luf9_4core3str6traitseINtNtNtB9_3ops5index5IndexINtNtBJ_5range7RangeTojEE5indexCs4F26I76Lgqi_18build_script_build, symObjAddr: 0x2AD8, symBinAddr: 0x10000EC80, symSize: 0x44 }
  - { offset: 0x17EDD, size: 0x8, addend: 0x0, symName: __RNvXs2_NtNtCsliVzVx4luf9_4core3str6traitseINtNtNtB9_3ops5index5IndexINtNtBJ_5range9RangeFromjEE5indexCs4F26I76Lgqi_18build_script_build, symObjAddr: 0x2B1C, symBinAddr: 0x10000ECC4, symSize: 0x44 }
  - { offset: 0x17F26, size: 0x8, addend: 0x0, symName: __RNvXs_NtNtCsliVzVx4luf9_4core3str6traitseNtNtB8_3cmp9PartialEq2eqCs4F26I76Lgqi_18build_script_build, symObjAddr: 0x2B70, symBinAddr: 0x10000ED18, symSize: 0x64 }
  - { offset: 0x18171, size: 0x8, addend: 0x0, symName: __RNvNtNtCsliVzVx4luf9_4core4char7methods15encode_utf8_rawCs4F26I76Lgqi_18build_script_build, symObjAddr: 0x18DC, symBinAddr: 0x10000DA84, symSize: 0x3A8 }
  - { offset: 0x185BC, size: 0x8, addend: 0x0, symName: __RNvXNtCsliVzVx4luf9_4core3anyReNtB2_3Any7type_idCs4F26I76Lgqi_18build_script_build, symObjAddr: 0x2638, symBinAddr: 0x10000E7E0, symSize: 0x58 }
  - { offset: 0x18924, size: 0x8, addend: 0x0, symName: __RINvMNtCs69QEzRJvHMp_5alloc5sliceSRe4joinBw_ECs4F26I76Lgqi_18build_script_build, symObjAddr: 0x0, symBinAddr: 0x10000C1E4, symSize: 0x34 }
  - { offset: 0x1897E, size: 0x8, addend: 0x0, symName: __RINvXs_NtNtCs69QEzRJvHMp_5alloc5slice4hackhNtB5_10ConvertVec6to_vecNtNtB9_5alloc6GlobalECs4F26I76Lgqi_18build_script_build, symObjAddr: 0xCEC, symBinAddr: 0x10000CE94, symSize: 0x108 }
  - { offset: 0x197C9, size: 0x8, addend: 0x0, symName: __RNvXNtNtNtCs69QEzRJvHMp_5alloc11collections5btree3mapINtB2_8BTreeMapNtNtNtCs6P7HZtpS3La_3std3ffi6os_str8OsStringINtNtCsliVzVx4luf9_4core6option6OptionB14_EENtNtNtB1R_3ops4drop4Drop4dropCs4F26I76Lgqi_18build_script_build, symObjAddr: 0x2690, symBinAddr: 0x10000E838, symSize: 0x4C }
  - { offset: 0x19872, size: 0x8, addend: 0x0, symName: __RNvXNvXsw_NtNtNtCs69QEzRJvHMp_5alloc11collections5btree3mapINtB8_8IntoIterpppENtNtNtCsliVzVx4luf9_4core3ops4drop4Drop4dropINtB2_9DropGuardNtNtNtCs6P7HZtpS3La_3std3ffi6os_str8OsStringINtNtB1k_6option6OptionB2c_ENtNtBe_5alloc6GlobalEB1e_4dropCs4F26I76Lgqi_18build_script_build, symObjAddr: 0x290C, symBinAddr: 0x10000EAB4, symSize: 0x68 }
  - { offset: 0x19907, size: 0x8, addend: 0x0, symName: __RNvXsw_NtNtNtCs69QEzRJvHMp_5alloc11collections5btree3mapINtB5_8IntoIterNtNtNtCs6P7HZtpS3La_3std3ffi6os_str8OsStringINtNtCsliVzVx4luf9_4core6option6OptionB17_EENtNtNtB1U_3ops4drop4Drop4dropCs4F26I76Lgqi_18build_script_build, symObjAddr: 0x2FE8, symBinAddr: 0x10000F190, symSize: 0xA0 }
  - { offset: 0x1997E, size: 0x8, addend: 0x0, symName: __RNvXsv_NtNtNtCs69QEzRJvHMp_5alloc11collections5btree3mapINtB5_8BTreeMapNtNtNtCs6P7HZtpS3La_3std3ffi6os_str8OsStringINtNtCsliVzVx4luf9_4core6option6OptionB17_EENtNtNtNtB1U_4iter6traits7collect12IntoIterator9into_iterCs4F26I76Lgqi_18build_script_build, symObjAddr: 0x2DD8, symBinAddr: 0x10000EF80, symSize: 0x210 }
  - { offset: 0x19F67, size: 0x8, addend: 0x0, symName: __RNvXs2_NtCs69QEzRJvHMp_5alloc6borrowINtB5_3CoweENtNtNtCsliVzVx4luf9_4core3ops5deref5Deref5derefCs4F26I76Lgqi_18build_script_build, symObjAddr: 0x2A58, symBinAddr: 0x10000EC00, symSize: 0x80 }
  - { offset: 0x1A245, size: 0x8, addend: 0x0, symName: __RINvMsh_NtNtNtCs69QEzRJvHMp_5alloc11collections5btree4nodeINtB6_7NodeRefNtNtB6_6marker5DyingNtNtNtCs6P7HZtpS3La_3std3ffi6os_str8OsStringINtNtCsliVzVx4luf9_4core6option6OptionB1s_ENtB1a_14LeafOrInternalE21deallocate_and_ascendNtNtBc_5alloc6GlobalECs4F26I76Lgqi_18build_script_build, symObjAddr: 0x34, symBinAddr: 0x10000C218, symSize: 0x138 }
  - { offset: 0x1A5AA, size: 0x8, addend: 0x0, symName: __RINvMsj_NtNtNtCs69QEzRJvHMp_5alloc11collections5btree8navigateINtNtB8_4node6HandleINtB11_7NodeRefNtNtB11_6marker5DyingNtNtNtCs6P7HZtpS3La_3std3ffi6os_str8OsStringINtNtCsliVzVx4luf9_4core6option6OptionB1S_ENtB1z_4LeafENtB1z_4EdgeE16deallocating_endNtNtBc_5alloc6GlobalECs4F26I76Lgqi_18build_script_build, symObjAddr: 0x16C, symBinAddr: 0x10000C350, symSize: 0xF4 }
  - { offset: 0x1A9ED, size: 0x8, addend: 0x0, symName: __RINvMsj_NtNtNtCs69QEzRJvHMp_5alloc11collections5btree8navigateINtNtB8_4node6HandleINtB11_7NodeRefNtNtB11_6marker5DyingNtNtNtCs6P7HZtpS3La_3std3ffi6os_str8OsStringINtNtCsliVzVx4luf9_4core6option6OptionB1S_ENtB1z_4LeafENtB1z_4EdgeE17deallocating_nextNtNtBc_5alloc6GlobalECs4F26I76Lgqi_18build_script_build, symObjAddr: 0x260, symBinAddr: 0x10000C444, symSize: 0x274 }
  - { offset: 0x1AE25, size: 0x8, addend: 0x0, symName: __RINvMsk_NtCs6P7HZtpS3La_3std7processNtB6_7Command3argRNtNtNtB8_3ffi6os_str5OsStrECs4F26I76Lgqi_18build_script_build, symObjAddr: 0x4D4, symBinAddr: 0x10000C6B8, symSize: 0x70 }
  - { offset: 0x1AE60, size: 0x8, addend: 0x0, symName: __RINvMsk_NtCs6P7HZtpS3La_3std7processNtB6_7Command3argReECs4F26I76Lgqi_18build_script_build, symObjAddr: 0x544, symBinAddr: 0x10000C728, symSize: 0x70 }
  - { offset: 0x1AE9B, size: 0x8, addend: 0x0, symName: __RINvMsk_NtCs6P7HZtpS3La_3std7processNtB6_7Command3newNtNtNtB8_3ffi6os_str8OsStringECs4F26I76Lgqi_18build_script_build, symObjAddr: 0x5B4, symBinAddr: 0x10000C798, symSize: 0x90 }
  - { offset: 0x1AEC8, size: 0x8, addend: 0x0, symName: __RINvMsk_NtCs6P7HZtpS3La_3std7processNtB6_7Command4argsINtNtNtNtCsliVzVx4luf9_4core4iter8adapters5chain5ChainINtNtBZ_6option8IntoIterNtNtNtB8_3ffi6os_str8OsStringEINtNtNtBX_7sources4once4OnceB26_EEB26_ECs4F26I76Lgqi_18build_script_build, symObjAddr: 0x644, symBinAddr: 0x10000C828, symSize: 0x10C }
  - { offset: 0x1B347, size: 0x8, addend: 0x0, symName: __RNvMNtCsliVzVx4luf9_4core6resultINtB2_6ResultNtNtCs69QEzRJvHMp_5alloc6string6StringNtNtCs6P7HZtpS3La_3std3env8VarErrorE17unwrap_or_defaultCs4F26I76Lgqi_18build_script_build, symObjAddr: 0xEB0, symBinAddr: 0x10000D058, symSize: 0xBC }
  - { offset: 0x1B39B, size: 0x8, addend: 0x0, symName: __RNvMNtCsliVzVx4luf9_4core6resultINtB2_6ResultNtNtCs69QEzRJvHMp_5alloc6string6StringNtNtCs6P7HZtpS3La_3std3env8VarErrorE6expectCs4F26I76Lgqi_18build_script_build, symObjAddr: 0xF6C, symBinAddr: 0x10000D114, symSize: 0xB8 }
  - { offset: 0x1B3FE, size: 0x8, addend: 0x0, symName: __RNvMNtCsliVzVx4luf9_4core6resultINtB2_6ResultNtNtCs6P7HZtpS3La_3std7process6OutputNtNtNtBL_2io5error5ErrorE2okCs4F26I76Lgqi_18build_script_build, symObjAddr: 0x1024, symBinAddr: 0x10000D1CC, symSize: 0xA8 }
  - { offset: 0x1B452, size: 0x8, addend: 0x0, symName: __RNvMNtCsliVzVx4luf9_4core6resultINtB2_6ResultReNtNtNtB4_3str5error9Utf8ErrorE2okCs4F26I76Lgqi_18build_script_build, symObjAddr: 0x10CC, symBinAddr: 0x10000D274, symSize: 0x60 }
  - { offset: 0x1B4A6, size: 0x8, addend: 0x0, symName: __RNvMNtCsliVzVx4luf9_4core6resultINtB2_6ResulthNtNtNtB4_3num5error13ParseIntErrorE2okCs4F26I76Lgqi_18build_script_build, symObjAddr: 0x112C, symBinAddr: 0x10000D2D4, symSize: 0x5C }
  - { offset: 0x1B4F8, size: 0x8, addend: 0x0, symName: __RNvMNtCsliVzVx4luf9_4core6resultINtB2_6ResulthNtNtNtB4_3num5error15TryFromIntErrorE6expectCs4F26I76Lgqi_18build_script_build, symObjAddr: 0x1188, symBinAddr: 0x10000D330, symSize: 0x84 }
  - { offset: 0x1B559, size: 0x8, addend: 0x0, symName: __RNvMNtCsliVzVx4luf9_4core6resultINtB2_6ResultmNtNtNtB4_3num5error13ParseIntErrorE2okCs4F26I76Lgqi_18build_script_build, symObjAddr: 0x120C, symBinAddr: 0x10000D3B4, symSize: 0x5C }
  - { offset: 0x1B5AB, size: 0x8, addend: 0x0, symName: __RNvMNtCsliVzVx4luf9_4core6resultINtB2_6ResulttNtNtNtB4_3num5error13ParseIntErrorE2okCs4F26I76Lgqi_18build_script_build, symObjAddr: 0x1268, symBinAddr: 0x10000D410, symSize: 0x5C }
  - { offset: 0x1B6D1, size: 0x8, addend: 0x0, symName: __RNvMsO_NtNtNtCs69QEzRJvHMp_5alloc11collections5btree4nodeINtB5_6HandleINtB5_7NodeRefNtNtB5_6marker5DyingNtNtNtCs6P7HZtpS3La_3std3ffi6os_str8OsStringINtNtCsliVzVx4luf9_4core6option6OptionB1E_ENtB1m_8InternalENtB1m_4EdgeE7descendCs4F26I76Lgqi_18build_script_build, symObjAddr: 0x12C4, symBinAddr: 0x10000D46C, symSize: 0xA4 }
  - { offset: 0x1BAAB, size: 0x8, addend: 0x0, symName: __RNvMsT_NtNtNtCs69QEzRJvHMp_5alloc11collections5btree4nodeINtB5_6HandleINtB5_7NodeRefNtNtB5_6marker5DyingNtNtNtCs6P7HZtpS3La_3std3ffi6os_str8OsStringINtNtCsliVzVx4luf9_4core6option6OptionB1E_ENtB1m_14LeafOrInternalENtB1m_2KVE12drop_key_valCs4F26I76Lgqi_18build_script_build, symObjAddr: 0x1368, symBinAddr: 0x10000D510, symSize: 0x138 }
  - { offset: 0x1BEF6, size: 0x8, addend: 0x0, symName: __RNvMse_NtNtNtCs69QEzRJvHMp_5alloc11collections5btree4nodeINtB5_7NodeRefNtNtB5_6marker5DyingNtNtNtCs6P7HZtpS3La_3std3ffi6os_str8OsStringINtNtCsliVzVx4luf9_4core6option6OptionB1r_ENtB19_14LeafOrInternalE6ascendCs4F26I76Lgqi_18build_script_build, symObjAddr: 0x14A0, symBinAddr: 0x10000D648, symSize: 0x18C }
  - { offset: 0x1C345, size: 0x8, addend: 0x0, symName: __RNvMsp_NtNtNtCs69QEzRJvHMp_5alloc11collections5btree8navigateINtNtB7_4node6HandleINtB10_7NodeRefNtNtB10_6marker5DyingNtNtNtCs6P7HZtpS3La_3std3ffi6os_str8OsStringINtNtCsliVzVx4luf9_4core6option6OptionB1R_ENtB1y_14LeafOrInternalENtB1y_2KVE14next_leaf_edgeCs4F26I76Lgqi_18build_script_build, symObjAddr: 0x162C, symBinAddr: 0x10000D7D4, symSize: 0x220 }
  - { offset: 0x1C62E, size: 0x8, addend: 0x0, symName: __RNvMsx_NtNtNtCs69QEzRJvHMp_5alloc11collections5btree3mapINtB5_8IntoIterNtNtNtCs6P7HZtpS3La_3std3ffi6os_str8OsStringINtNtCsliVzVx4luf9_4core6option6OptionB17_EE10dying_nextCs4F26I76Lgqi_18build_script_build, symObjAddr: 0x184C, symBinAddr: 0x10000D9F4, symSize: 0x90 }
  - { offset: 0x1CC91, size: 0x8, addend: 0x0, symName: __RNvNtCs4F26I76Lgqi_18build_script_build7version13rustc_version, symObjAddr: 0x3374, symBinAddr: 0x10000F51C, symSize: 0x558 }
  - { offset: 0x1CDE0, size: 0x8, addend: 0x0, symName: __RNCNvNtCs4F26I76Lgqi_18build_script_build7version13rustc_version0B5_, symObjAddr: 0x38CC, symBinAddr: 0x10000FA74, symSize: 0x3C }
  - { offset: 0x1CF05, size: 0x8, addend: 0x0, symName: __RNCNvMNtCs4F26I76Lgqi_18build_script_build7versionNtB4_7Version5parse0B6_, symObjAddr: 0x3F9C, symBinAddr: 0x100010144, symSize: 0x50 }
  - { offset: 0x1CF3B, size: 0x8, addend: 0x0, symName: __RNCNvMNtCs4F26I76Lgqi_18build_script_build7versionNtB4_7Version5parses_0B6_, symObjAddr: 0x3FEC, symBinAddr: 0x100010194, symSize: 0x64 }
  - { offset: 0x1CF71, size: 0x8, addend: 0x0, symName: __RNCNvMNtCs4F26I76Lgqi_18build_script_build7versionNtB4_7Version5parses0_0B6_, symObjAddr: 0x4050, symBinAddr: 0x1000101F8, symSize: 0x334 }
  - { offset: 0x1D0B7, size: 0x8, addend: 0x0, symName: __RNCNCNvMNtCs4F26I76Lgqi_18build_script_build7versionNtB6_7Version5parses0_00B8_, symObjAddr: 0x4384, symBinAddr: 0x10001052C, symSize: 0x50 }
  - { offset: 0x1D0ED, size: 0x8, addend: 0x0, symName: __RNCNCNvMNtCs4F26I76Lgqi_18build_script_build7versionNtB6_7Version5parses0_0s_0B8_, symObjAddr: 0x43D4, symBinAddr: 0x10001057C, symSize: 0x64 }
  - { offset: 0x1D132, size: 0x8, addend: 0x0, symName: __RNCNvMNtCs4F26I76Lgqi_18build_script_build7versionNtB4_7Version5parses1_0B6_, symObjAddr: 0x4438, symBinAddr: 0x1000105E0, symSize: 0x4C0 }
  - { offset: 0x1D278, size: 0x8, addend: 0x0, symName: __RNCNCNvMNtCs4F26I76Lgqi_18build_script_build7versionNtB6_7Version5parses1_00B8_, symObjAddr: 0x48F8, symBinAddr: 0x100010AA0, symSize: 0x50 }
  - { offset: 0x1D2AE, size: 0x8, addend: 0x0, symName: __RNCNCNvMNtCs4F26I76Lgqi_18build_script_build7versionNtB6_7Version5parses1_0s_0B8_, symObjAddr: 0x4948, symBinAddr: 0x100010AF0, symSize: 0x64 }
  - { offset: 0x1D308, size: 0x8, addend: 0x0, symName: __RNvXs1_NtCs4F26I76Lgqi_18build_script_build7versionNtB5_4DateNtNtCsliVzVx4luf9_4core3cmp9PartialEq2eqB7_, symObjAddr: 0x49E4, symBinAddr: 0x100010B8C, symSize: 0x84 }
  - { offset: 0x1D348, size: 0x8, addend: 0x0, symName: __RNvXs2_NtCs4F26I76Lgqi_18build_script_build7versionNtB5_4DateNtNtCsliVzVx4luf9_4core3cmp10PartialOrd11partial_cmpB7_, symObjAddr: 0x4A68, symBinAddr: 0x100010C10, symSize: 0xC8 }
  - { offset: 0x1D3BD, size: 0x8, addend: 0x0, symName: __RNvMNtCs4F26I76Lgqi_18build_script_build7versionNtB2_7Version6stable, symObjAddr: 0x3908, symBinAddr: 0x10000FAB0, symSize: 0x40 }
  - { offset: 0x1D3FA, size: 0x8, addend: 0x0, symName: __RNvMNtCs4F26I76Lgqi_18build_script_build7versionNtB2_7Version5probe, symObjAddr: 0x3948, symBinAddr: 0x10000FAF0, symSize: 0x158 }
  - { offset: 0x1D47F, size: 0x8, addend: 0x0, symName: __RNvMNtCs4F26I76Lgqi_18build_script_build7versionNtB2_7Version5parse, symObjAddr: 0x3AA0, symBinAddr: 0x10000FC48, symSize: 0x4FC }
  - { offset: 0x1D655, size: 0x8, addend: 0x0, symName: __RNvMs_NtCs4F26I76Lgqi_18build_script_build7versionNtB4_4Date3new, symObjAddr: 0x49AC, symBinAddr: 0x100010B54, symSize: 0x38 }
  - { offset: 0x1D7E2, size: 0x8, addend: 0x0, symName: __RINvMNtCsliVzVx4luf9_4core3stre11starts_withReECs4F26I76Lgqi_18build_script_build, symObjAddr: 0x0, symBinAddr: 0x100010CD8, symSize: 0x4C }
  - { offset: 0x1D82C, size: 0x8, addend: 0x0, symName: __RNCINvNtCs6P7HZtpS3La_3std2rt10lang_startuE0Cs4F26I76Lgqi_18build_script_build, symObjAddr: 0x23B4, symBinAddr: 0x10001308C, symSize: 0x3C }
  - { offset: 0x1D8BB, size: 0x8, addend: 0x0, symName: __RINvNtCs6P7HZtpS3La_3std2rt10lang_startuECs4F26I76Lgqi_18build_script_build, symObjAddr: 0x95C, symBinAddr: 0x100011634, symSize: 0x6C }
  - { offset: 0x1D955, size: 0x8, addend: 0x0, symName: __RNvYNtNtNtNtNtCs6P7HZtpS3La_3std3sys3pal4unix5stdio6StderrNtNtBc_2io5Write9write_allCs4F26I76Lgqi_18build_script_build, symObjAddr: 0x4D80, symBinAddr: 0x100015A58, symSize: 0x288 }
  - { offset: 0x1DB87, size: 0x8, addend: 0x0, symName: __RNvYNtNtNtNtNtCs6P7HZtpS3La_3std3sys3pal4unix5stdio6StderrNtNtBc_2io5Write9write_fmtCs4F26I76Lgqi_18build_script_build, symObjAddr: 0x5008, symBinAddr: 0x100015CE0, symSize: 0x128 }
  - { offset: 0x1F2BF, size: 0x8, addend: 0x0, symName: __RINvNtCsliVzVx4luf9_4core3ptr13drop_in_placeDINtNtNtB4_3ops8function5FnMutuEp6OutputINtNtB4_6result6ResultuNtNtNtCs6P7HZtpS3La_3std2io5error5ErrorENtNtB4_6marker4SyncNtB2n_4SendEL_ECs4F26I76Lgqi_18build_script_build, symObjAddr: 0xA7C, symBinAddr: 0x100011754, symSize: 0x48 }
  - { offset: 0x1F2EE, size: 0x8, addend: 0x0, symName: __RINvNtCsliVzVx4luf9_4core3ptr13drop_in_placeDNtNtB4_5error5ErrorNtNtB4_6marker4SyncNtB12_4SendEL_ECs4F26I76Lgqi_18build_script_build, symObjAddr: 0xAC4, symBinAddr: 0x10001179C, symSize: 0x48 }
  - { offset: 0x1F31D, size: 0x8, addend: 0x0, symName: __RINvNtCsliVzVx4luf9_4core3ptr13drop_in_placeINtNtB4_6option4ItemNtNtNtCs6P7HZtpS3La_3std3ffi6os_str8OsStringEECs4F26I76Lgqi_18build_script_build, symObjAddr: 0xB0C, symBinAddr: 0x1000117E4, symSize: 0x24 }
  - { offset: 0x1F34C, size: 0x8, addend: 0x0, symName: __RINvNtCsliVzVx4luf9_4core3ptr13drop_in_placeINtNtB4_6option6OptionINtBJ_8IntoIterNtNtNtCs6P7HZtpS3La_3std3ffi6os_str8OsStringEEECs4F26I76Lgqi_18build_script_build, symObjAddr: 0xB30, symBinAddr: 0x100011808, symSize: 0x48 }
  - { offset: 0x1F37B, size: 0x8, addend: 0x0, symName: __RINvNtCsliVzVx4luf9_4core3ptr13drop_in_placeINtNtB4_6option6OptionINtNtCs69QEzRJvHMp_5alloc5boxed3BoxSmEEECs4F26I76Lgqi_18build_script_build, symObjAddr: 0xB78, symBinAddr: 0x100011850, symSize: 0x44 }
  - { offset: 0x1F3AA, size: 0x8, addend: 0x0, symName: __RINvNtCsliVzVx4luf9_4core3ptr13drop_in_placeINtNtB4_6option6OptionINtNtNtNtB4_4iter7sources4once4OnceNtNtNtCs6P7HZtpS3La_3std3ffi6os_str8OsStringEEECs4F26I76Lgqi_18build_script_build, symObjAddr: 0xBBC, symBinAddr: 0x100011894, symSize: 0x48 }
  - { offset: 0x1F3D9, size: 0x8, addend: 0x0, symName: __RINvNtCsliVzVx4luf9_4core3ptr13drop_in_placeINtNtB4_6option6OptionNtNtCs69QEzRJvHMp_5alloc6string6StringEECs4F26I76Lgqi_18build_script_build, symObjAddr: 0xC04, symBinAddr: 0x1000118DC, symSize: 0x48 }
  - { offset: 0x1F408, size: 0x8, addend: 0x0, symName: __RINvNtCsliVzVx4luf9_4core3ptr13drop_in_placeINtNtB4_6option6OptionNtNtNtCs69QEzRJvHMp_5alloc3ffi5c_str7CStringEECs4F26I76Lgqi_18build_script_build, symObjAddr: 0xC4C, symBinAddr: 0x100011924, symSize: 0x44 }
  - { offset: 0x1F437, size: 0x8, addend: 0x0, symName: __RINvNtCsliVzVx4luf9_4core3ptr13drop_in_placeINtNtB4_6option6OptionNtNtNtCs6P7HZtpS3La_3std3ffi6os_str8OsStringEECs4F26I76Lgqi_18build_script_build, symObjAddr: 0xC90, symBinAddr: 0x100011968, symSize: 0x48 }
  - { offset: 0x1F466, size: 0x8, addend: 0x0, symName: __RINvNtCsliVzVx4luf9_4core3ptr13drop_in_placeINtNtB4_6option6OptionNtNtNtNtNtNtCs6P7HZtpS3La_3std3sys3pal4unix7process14process_common5StdioEECs4F26I76Lgqi_18build_script_build, symObjAddr: 0xCD8, symBinAddr: 0x1000119B0, symSize: 0x44 }
  - { offset: 0x1F495, size: 0x8, addend: 0x0, symName: __RINvNtCsliVzVx4luf9_4core3ptr13drop_in_placeINtNtB4_6option8IntoIterNtNtNtCs6P7HZtpS3La_3std3ffi6os_str8OsStringEECs4F26I76Lgqi_18build_script_build, symObjAddr: 0xD1C, symBinAddr: 0x1000119F4, symSize: 0x24 }
  - { offset: 0x1F4C4, size: 0x8, addend: 0x0, symName: __RINvNtCsliVzVx4luf9_4core3ptr13drop_in_placeINtNtB4_6result6ResultNtNtCs69QEzRJvHMp_5alloc6string6StringNtNtCs6P7HZtpS3La_3std3env8VarErrorEECs4F26I76Lgqi_18build_script_build, symObjAddr: 0xD40, symBinAddr: 0x100011A18, symSize: 0x50 }
  - { offset: 0x1F4F3, size: 0x8, addend: 0x0, symName: __RINvNtCsliVzVx4luf9_4core3ptr13drop_in_placeINtNtB4_6result6ResultNtNtCs6P7HZtpS3La_3std7process6OutputNtNtNtB16_2io5error5ErrorEECs4F26I76Lgqi_18build_script_build, symObjAddr: 0xD90, symBinAddr: 0x100011A68, symSize: 0x5C }
  - { offset: 0x1F522, size: 0x8, addend: 0x0, symName: __RINvNtCsliVzVx4luf9_4core3ptr13drop_in_placeINtNtB4_6result6ResultuNtNtNtCs6P7HZtpS3La_3std2io5error5ErrorEECs4F26I76Lgqi_18build_script_build, symObjAddr: 0xDEC, symBinAddr: 0x100011AC4, symSize: 0x44 }
  - { offset: 0x1F551, size: 0x8, addend: 0x0, symName: __RINvNtCsliVzVx4luf9_4core3ptr13drop_in_placeINtNtCs69QEzRJvHMp_5alloc3vec3VecINtNtBL_5boxed3BoxDINtNtNtB4_3ops8function5FnMutuEp6OutputINtNtB4_6result6ResultuNtNtNtCs6P7HZtpS3La_3std2io5error5ErrorENtNtB4_6marker4SyncNtB3c_4SendEL_EEECs4F26I76Lgqi_18build_script_build, symObjAddr: 0xE30, symBinAddr: 0x100011B08, symSize: 0x5C }
  - { offset: 0x1F580, size: 0x8, addend: 0x0, symName: __RINvNtCsliVzVx4luf9_4core3ptr13drop_in_placeINtNtCs69QEzRJvHMp_5alloc3vec3VecNtNtNtBL_3ffi5c_str7CStringEECs4F26I76Lgqi_18build_script_build, symObjAddr: 0xE8C, symBinAddr: 0x100011B64, symSize: 0x5C }
  - { offset: 0x1F5AF, size: 0x8, addend: 0x0, symName: __RINvNtCsliVzVx4luf9_4core3ptr13drop_in_placeINtNtCs69QEzRJvHMp_5alloc3vec3VecPaEECs4F26I76Lgqi_18build_script_build, symObjAddr: 0xEE8, symBinAddr: 0x100011BC0, symSize: 0x5C }
  - { offset: 0x1F5DE, size: 0x8, addend: 0x0, symName: __RINvNtCsliVzVx4luf9_4core3ptr13drop_in_placeINtNtCs69QEzRJvHMp_5alloc3vec3VecReEECs4F26I76Lgqi_18build_script_build, symObjAddr: 0xF44, symBinAddr: 0x100011C1C, symSize: 0x5C }
  - { offset: 0x1F60D, size: 0x8, addend: 0x0, symName: __RINvNtCsliVzVx4luf9_4core3ptr13drop_in_placeINtNtCs69QEzRJvHMp_5alloc3vec3VechEECs4F26I76Lgqi_18build_script_build, symObjAddr: 0xFA0, symBinAddr: 0x100011C78, symSize: 0x5C }
  - { offset: 0x1F63C, size: 0x8, addend: 0x0, symName: __RINvNtCsliVzVx4luf9_4core3ptr13drop_in_placeINtNtCs69QEzRJvHMp_5alloc5boxed3BoxDINtNtNtB4_3ops8function5FnMutuEp6OutputINtNtB4_6result6ResultuNtNtNtCs6P7HZtpS3La_3std2io5error5ErrorENtNtB4_6marker4SyncNtB2W_4SendEL_EECs4F26I76Lgqi_18build_script_build, symObjAddr: 0xFFC, symBinAddr: 0x100011CD4, symSize: 0x80 }
  - { offset: 0x1F66B, size: 0x8, addend: 0x0, symName: __RINvNtCsliVzVx4luf9_4core3ptr13drop_in_placeINtNtCs69QEzRJvHMp_5alloc5boxed3BoxDNtNtB4_5error5ErrorNtNtB4_6marker4SyncNtB1B_4SendEL_EECs4F26I76Lgqi_18build_script_build, symObjAddr: 0x107C, symBinAddr: 0x100011D54, symSize: 0x80 }
  - { offset: 0x1F69A, size: 0x8, addend: 0x0, symName: __RINvNtCsliVzVx4luf9_4core3ptr13drop_in_placeINtNtCs69QEzRJvHMp_5alloc5boxed3BoxNtNtNtCs6P7HZtpS3La_3std2io5error6CustomEECs4F26I76Lgqi_18build_script_build, symObjAddr: 0x10FC, symBinAddr: 0x100011DD4, symSize: 0x60 }
  - { offset: 0x1F6C9, size: 0x8, addend: 0x0, symName: __RINvNtCsliVzVx4luf9_4core3ptr13drop_in_placeINtNtCs69QEzRJvHMp_5alloc5boxed3BoxShEECs4F26I76Lgqi_18build_script_build, symObjAddr: 0x115C, symBinAddr: 0x100011E34, symSize: 0x2C }
  - { offset: 0x1F6F8, size: 0x8, addend: 0x0, symName: __RINvNtCsliVzVx4luf9_4core3ptr13drop_in_placeINtNtCs69QEzRJvHMp_5alloc5boxed3BoxSmEECs4F26I76Lgqi_18build_script_build, symObjAddr: 0x1188, symBinAddr: 0x100011E60, symSize: 0x2C }
  - { offset: 0x1F727, size: 0x8, addend: 0x0, symName: __RINvNtCsliVzVx4luf9_4core3ptr13drop_in_placeINtNtCs69QEzRJvHMp_5alloc6borrow3CoweEECs4F26I76Lgqi_18build_script_build, symObjAddr: 0x11B4, symBinAddr: 0x100011E8C, symSize: 0x48 }
  - { offset: 0x1F756, size: 0x8, addend: 0x0, symName: __RINvNtCsliVzVx4luf9_4core3ptr13drop_in_placeINtNtCs69QEzRJvHMp_5alloc7raw_vec6RawVecINtNtBL_5boxed3BoxDINtNtNtB4_3ops8function5FnMutuEp6OutputINtNtB4_6result6ResultuNtNtNtCs6P7HZtpS3La_3std2io5error5ErrorENtNtB4_6marker4SyncNtB3j_4SendEL_EEECs4F26I76Lgqi_18build_script_build, symObjAddr: 0x11FC, symBinAddr: 0x100011ED4, symSize: 0x24 }
  - { offset: 0x1F785, size: 0x8, addend: 0x0, symName: __RINvNtCsliVzVx4luf9_4core3ptr13drop_in_placeINtNtCs69QEzRJvHMp_5alloc7raw_vec6RawVecNtNtNtBL_3ffi5c_str7CStringEECs4F26I76Lgqi_18build_script_build, symObjAddr: 0x1220, symBinAddr: 0x100011EF8, symSize: 0x24 }
  - { offset: 0x1F7B4, size: 0x8, addend: 0x0, symName: __RINvNtCsliVzVx4luf9_4core3ptr13drop_in_placeINtNtCs69QEzRJvHMp_5alloc7raw_vec6RawVecPaEECs4F26I76Lgqi_18build_script_build, symObjAddr: 0x1244, symBinAddr: 0x100011F1C, symSize: 0x24 }
  - { offset: 0x1F7E3, size: 0x8, addend: 0x0, symName: __RINvNtCsliVzVx4luf9_4core3ptr13drop_in_placeINtNtCs69QEzRJvHMp_5alloc7raw_vec6RawVecReEECs4F26I76Lgqi_18build_script_build, symObjAddr: 0x1268, symBinAddr: 0x100011F40, symSize: 0x24 }
  - { offset: 0x1F812, size: 0x8, addend: 0x0, symName: __RINvNtCsliVzVx4luf9_4core3ptr13drop_in_placeINtNtCs69QEzRJvHMp_5alloc7raw_vec6RawVechEECs4F26I76Lgqi_18build_script_build, symObjAddr: 0x128C, symBinAddr: 0x100011F64, symSize: 0x24 }
  - { offset: 0x1F841, size: 0x8, addend: 0x0, symName: __RINvNtCsliVzVx4luf9_4core3ptr13drop_in_placeINtNtNtCs6P7HZtpS3La_3std2io5error9ErrorDataINtNtCs69QEzRJvHMp_5alloc5boxed3BoxNtBJ_6CustomEEECs4F26I76Lgqi_18build_script_build, symObjAddr: 0x12B0, symBinAddr: 0x100011F88, symSize: 0x48 }
  - { offset: 0x1F870, size: 0x8, addend: 0x0, symName: __RINvNtCsliVzVx4luf9_4core3ptr13drop_in_placeINtNtNtNtB4_4iter7sources4once4OnceNtNtNtCs6P7HZtpS3La_3std3ffi6os_str8OsStringEECs4F26I76Lgqi_18build_script_build, symObjAddr: 0x12F8, symBinAddr: 0x100011FD0, symSize: 0x24 }
  - { offset: 0x1F89F, size: 0x8, addend: 0x0, symName: __RINvNtCsliVzVx4luf9_4core3ptr13drop_in_placeINtNtNtNtB4_4iter8adapters5chain5ChainINtNtB4_6option8IntoIterNtNtNtCs6P7HZtpS3La_3std3ffi6os_str8OsStringEINtNtNtBN_7sources4once4OnceB1G_EEECs4F26I76Lgqi_18build_script_build, symObjAddr: 0x131C, symBinAddr: 0x100011FF4, symSize: 0x60 }
  - { offset: 0x1F8CE, size: 0x8, addend: 0x0, symName: __RINvNtCsliVzVx4luf9_4core3ptr13drop_in_placeINtNtNtNtCs69QEzRJvHMp_5alloc11collections5btree3map8BTreeMapNtNtNtCs6P7HZtpS3La_3std3ffi6os_str8OsStringINtNtB4_6option6OptionB1F_EEECs4F26I76Lgqi_18build_script_build, symObjAddr: 0x137C, symBinAddr: 0x100012054, symSize: 0x24 }
  - { offset: 0x1F8FD, size: 0x8, addend: 0x0, symName: __RINvNtCsliVzVx4luf9_4core3ptr13drop_in_placeINtNtNtNtCs69QEzRJvHMp_5alloc11collections5btree3map8IntoIterNtNtNtCs6P7HZtpS3La_3std3ffi6os_str8OsStringINtNtB4_6option6OptionB1F_EEECs4F26I76Lgqi_18build_script_build, symObjAddr: 0x13A0, symBinAddr: 0x100012078, symSize: 0x24 }
  - { offset: 0x1F92C, size: 0x8, addend: 0x0, symName: __RINvNtCsliVzVx4luf9_4core3ptr13drop_in_placeINtNvNtCs6P7HZtpS3La_3std9panicking11begin_panic7PayloadReEECs4F26I76Lgqi_18build_script_build, symObjAddr: 0x13C4, symBinAddr: 0x10001209C, symSize: 0x10 }
  - { offset: 0x1F95B, size: 0x8, addend: 0x0, symName: __RINvNtCsliVzVx4luf9_4core3ptr13drop_in_placeINtNvNtNtCs6P7HZtpS3La_3std2io5Write9write_fmt7AdapterNtNtNtNtNtBP_3sys3pal4unix5stdio6StderrEECs4F26I76Lgqi_18build_script_build, symObjAddr: 0x13D4, symBinAddr: 0x1000120AC, symSize: 0x24 }
  - { offset: 0x1F98A, size: 0x8, addend: 0x0, symName: __RINvNtCsliVzVx4luf9_4core3ptr13drop_in_placeINtNvXsw_NtNtNtCs69QEzRJvHMp_5alloc11collections5btree3mapINtBP_8IntoIterpppENtNtNtB4_3ops4drop4Drop4drop9DropGuardNtNtNtCs6P7HZtpS3La_3std3ffi6os_str8OsStringINtNtB4_6option6OptionB2x_ENtNtBV_5alloc6GlobalEECs4F26I76Lgqi_18build_script_build, symObjAddr: 0x13F8, symBinAddr: 0x1000120D0, symSize: 0x24 }
  - { offset: 0x1F9B9, size: 0x8, addend: 0x0, symName: __RINvNtCsliVzVx4luf9_4core3ptr13drop_in_placeNCINvNtCs6P7HZtpS3La_3std2rt10lang_startuE0ECs4F26I76Lgqi_18build_script_build, symObjAddr: 0x141C, symBinAddr: 0x1000120F4, symSize: 0x10 }
  - { offset: 0x1F9E8, size: 0x8, addend: 0x0, symName: __RINvNtCsliVzVx4luf9_4core3ptr13drop_in_placeNtNtCs69QEzRJvHMp_5alloc6string6StringECs4F26I76Lgqi_18build_script_build, symObjAddr: 0x142C, symBinAddr: 0x100012104, symSize: 0x24 }
  - { offset: 0x1FA17, size: 0x8, addend: 0x0, symName: __RINvNtCsliVzVx4luf9_4core3ptr13drop_in_placeNtNtCs6P7HZtpS3La_3std3env8VarErrorECs4F26I76Lgqi_18build_script_build, symObjAddr: 0x1450, symBinAddr: 0x100012128, symSize: 0x48 }
  - { offset: 0x1FA46, size: 0x8, addend: 0x0, symName: __RINvNtCsliVzVx4luf9_4core3ptr13drop_in_placeNtNtCs6P7HZtpS3La_3std7process6OutputECs4F26I76Lgqi_18build_script_build, symObjAddr: 0x1498, symBinAddr: 0x100012170, symSize: 0x60 }
  - { offset: 0x1FA75, size: 0x8, addend: 0x0, symName: __RINvNtCsliVzVx4luf9_4core3ptr13drop_in_placeNtNtCs6P7HZtpS3La_3std7process7CommandECs4F26I76Lgqi_18build_script_build, symObjAddr: 0x14F8, symBinAddr: 0x1000121D0, symSize: 0x24 }
  - { offset: 0x1FAA4, size: 0x8, addend: 0x0, symName: __RINvNtCsliVzVx4luf9_4core3ptr13drop_in_placeNtNtNtB4_3num5error15TryFromIntErrorECs4F26I76Lgqi_18build_script_build, symObjAddr: 0x151C, symBinAddr: 0x1000121F4, symSize: 0x10 }
  - { offset: 0x1FAD3, size: 0x8, addend: 0x0, symName: __RINvNtCsliVzVx4luf9_4core3ptr13drop_in_placeNtNtNtCs69QEzRJvHMp_5alloc3ffi5c_str7CStringECs4F26I76Lgqi_18build_script_build, symObjAddr: 0x152C, symBinAddr: 0x100012204, symSize: 0x5C }
  - { offset: 0x1FB02, size: 0x8, addend: 0x0, symName: __RINvNtCsliVzVx4luf9_4core3ptr13drop_in_placeNtNtNtCs6P7HZtpS3La_3std10sys_common7process10CommandEnvECs4F26I76Lgqi_18build_script_build, symObjAddr: 0x1588, symBinAddr: 0x100012260, symSize: 0x24 }
  - { offset: 0x1FB31, size: 0x8, addend: 0x0, symName: __RINvNtCsliVzVx4luf9_4core3ptr13drop_in_placeNtNtNtCs6P7HZtpS3La_3std2io5error5ErrorECs4F26I76Lgqi_18build_script_build, symObjAddr: 0x15AC, symBinAddr: 0x100012284, symSize: 0x24 }
  - { offset: 0x1FB60, size: 0x8, addend: 0x0, symName: __RINvNtCsliVzVx4luf9_4core3ptr13drop_in_placeNtNtNtCs6P7HZtpS3La_3std2io5error6CustomECs4F26I76Lgqi_18build_script_build, symObjAddr: 0x15D0, symBinAddr: 0x1000122A8, symSize: 0x24 }
  - { offset: 0x1FB8F, size: 0x8, addend: 0x0, symName: __RINvNtCsliVzVx4luf9_4core3ptr13drop_in_placeNtNtNtCs6P7HZtpS3La_3std3ffi6os_str8OsStringECs4F26I76Lgqi_18build_script_build, symObjAddr: 0x15F4, symBinAddr: 0x1000122CC, symSize: 0x24 }
  - { offset: 0x1FBBE, size: 0x8, addend: 0x0, symName: __RINvNtCsliVzVx4luf9_4core3ptr13drop_in_placeNtNtNtNtCs6P7HZtpS3La_3std2io5error14repr_bitpacked4ReprECs4F26I76Lgqi_18build_script_build, symObjAddr: 0x1618, symBinAddr: 0x1000122F0, symSize: 0x24 }
  - { offset: 0x1FBED, size: 0x8, addend: 0x0, symName: __RINvNtCsliVzVx4luf9_4core3ptr13drop_in_placeNtNtNtNtCs6P7HZtpS3La_3std2os2fd5owned7OwnedFdECs4F26I76Lgqi_18build_script_build, symObjAddr: 0x163C, symBinAddr: 0x100012314, symSize: 0x24 }
  - { offset: 0x1FC1C, size: 0x8, addend: 0x0, symName: __RINvNtCsliVzVx4luf9_4core3ptr13drop_in_placeNtNtNtNtCs6P7HZtpS3La_3std3sys6os_str5bytes3BufECs4F26I76Lgqi_18build_script_build, symObjAddr: 0x1660, symBinAddr: 0x100012338, symSize: 0x24 }
  - { offset: 0x1FC4B, size: 0x8, addend: 0x0, symName: __RINvNtCsliVzVx4luf9_4core3ptr13drop_in_placeNtNtNtNtNtCs6P7HZtpS3La_3std3sys3pal4unix2fd8FileDescECs4F26I76Lgqi_18build_script_build, symObjAddr: 0x1684, symBinAddr: 0x10001235C, symSize: 0x24 }
  - { offset: 0x1FC7A, size: 0x8, addend: 0x0, symName: __RINvNtCsliVzVx4luf9_4core3ptr13drop_in_placeNtNtNtNtNtNtCs6P7HZtpS3La_3std3sys3pal4unix7process14process_common4ArgvECs4F26I76Lgqi_18build_script_build, symObjAddr: 0x16A8, symBinAddr: 0x100012380, symSize: 0x24 }
  - { offset: 0x1FCA9, size: 0x8, addend: 0x0, symName: __RINvNtCsliVzVx4luf9_4core3ptr13drop_in_placeNtNtNtNtNtNtCs6P7HZtpS3La_3std3sys3pal4unix7process14process_common5StdioECs4F26I76Lgqi_18build_script_build, symObjAddr: 0x16CC, symBinAddr: 0x1000123A4, symSize: 0x5C }
  - { offset: 0x1FCD8, size: 0x8, addend: 0x0, symName: __RINvNtCsliVzVx4luf9_4core3ptr13drop_in_placeNtNtNtNtNtNtCs6P7HZtpS3La_3std3sys3pal4unix7process14process_common7CommandECs4F26I76Lgqi_18build_script_build, symObjAddr: 0x1728, symBinAddr: 0x100012400, symSize: 0x1DC }
  - { offset: 0x1FD07, size: 0x8, addend: 0x0, symName: __RINvNtCsliVzVx4luf9_4core3ptr13drop_in_placeNtNvNtNtNtCs69QEzRJvHMp_5alloc11collections5btree3mem7replace10PanicGuardECs4F26I76Lgqi_18build_script_build, symObjAddr: 0x1904, symBinAddr: 0x1000125DC, symSize: 0x24 }
  - { offset: 0x1FD36, size: 0x8, addend: 0x0, symName: __RINvNtCsliVzVx4luf9_4core3ptr13drop_in_placeRNtNtNtCs6P7HZtpS3La_3std3ffi6os_str8OsStringECs4F26I76Lgqi_18build_script_build, symObjAddr: 0x1928, symBinAddr: 0x100012600, symSize: 0x10 }
  - { offset: 0x1FD65, size: 0x8, addend: 0x0, symName: __RINvNtCsliVzVx4luf9_4core3ptr13drop_in_placeReECs4F26I76Lgqi_18build_script_build, symObjAddr: 0x1938, symBinAddr: 0x100012610, symSize: 0x10 }
  - { offset: 0x1FD94, size: 0x8, addend: 0x0, symName: __RINvNtCsliVzVx4luf9_4core3ptr13drop_in_placeRuECs4F26I76Lgqi_18build_script_build, symObjAddr: 0x1948, symBinAddr: 0x100012620, symSize: 0x10 }
  - { offset: 0x1FDC3, size: 0x8, addend: 0x0, symName: __RINvNtCsliVzVx4luf9_4core3ptr13drop_in_placeSINtNtCs69QEzRJvHMp_5alloc5boxed3BoxDINtNtNtB4_3ops8function5FnMutuEp6OutputINtNtB4_6result6ResultuNtNtNtCs6P7HZtpS3La_3std2io5error5ErrorENtNtB4_6marker4SyncNtB2X_4SendEL_EECs4F26I76Lgqi_18build_script_build, symObjAddr: 0x1958, symBinAddr: 0x100012630, symSize: 0xB4 }
  - { offset: 0x1FDF2, size: 0x8, addend: 0x0, symName: __RINvNtCsliVzVx4luf9_4core3ptr13drop_in_placeSNtNtNtCs69QEzRJvHMp_5alloc3ffi5c_str7CStringECs4F26I76Lgqi_18build_script_build, symObjAddr: 0x1A0C, symBinAddr: 0x1000126E4, symSize: 0xB4 }
  - { offset: 0x204B0, size: 0x8, addend: 0x0, symName: __RNvNvNtCsliVzVx4luf9_4core3ptr13read_volatile18precondition_checkCs4F26I76Lgqi_18build_script_build, symObjAddr: 0x31FC, symBinAddr: 0x100013ED4, symSize: 0xEC }
  - { offset: 0x20DE9, size: 0x8, addend: 0x0, symName: __RNvXsP_NtCsliVzVx4luf9_4core3fmtRuNtB5_5Debug3fmtCs4F26I76Lgqi_18build_script_build, symObjAddr: 0x4A34, symBinAddr: 0x10001570C, symSize: 0x30 }
  - { offset: 0x20E35, size: 0x8, addend: 0x0, symName: __RNvXsR_NtCsliVzVx4luf9_4core3fmtReNtB5_7Display3fmtCs4F26I76Lgqi_18build_script_build, symObjAddr: 0x4A64, symBinAddr: 0x10001573C, symSize: 0x3C }
  - { offset: 0x20E81, size: 0x8, addend: 0x0, symName: __RNvXsp_NtCsliVzVx4luf9_4core3fmtuNtB5_5Debug3fmtCs4F26I76Lgqi_18build_script_build, symObjAddr: 0x4C2C, symBinAddr: 0x100015904, symSize: 0x40 }
  - { offset: 0x20F52, size: 0x8, addend: 0x0, symName: __RINvMNtCsliVzVx4luf9_4core3stre11starts_withReECs4F26I76Lgqi_18build_script_build, symObjAddr: 0x0, symBinAddr: 0x100010CD8, symSize: 0x4C }
  - { offset: 0x20F98, size: 0x8, addend: 0x0, symName: __RINvMNtCsliVzVx4luf9_4core3stre5parsehECs4F26I76Lgqi_18build_script_build, symObjAddr: 0x4C, symBinAddr: 0x100010D24, symSize: 0x2C }
  - { offset: 0x20FCF, size: 0x8, addend: 0x0, symName: __RINvMNtCsliVzVx4luf9_4core3stre5parsemECs4F26I76Lgqi_18build_script_build, symObjAddr: 0x78, symBinAddr: 0x100010D50, symSize: 0x38 }
  - { offset: 0x21006, size: 0x8, addend: 0x0, symName: __RINvMNtCsliVzVx4luf9_4core3stre5parsetECs4F26I76Lgqi_18build_script_build, symObjAddr: 0xB0, symBinAddr: 0x100010D88, symSize: 0x38 }
  - { offset: 0x2103D, size: 0x8, addend: 0x0, symName: __RINvMNtCsliVzVx4luf9_4core3stre5splitcECs4F26I76Lgqi_18build_script_build, symObjAddr: 0xE8, symBinAddr: 0x100010DC0, symSize: 0x98 }
  - { offset: 0x210B8, size: 0x8, addend: 0x0, symName: __RINvMNtCsliVzVx4luf9_4core3stre6splitncECs4F26I76Lgqi_18build_script_build, symObjAddr: 0x180, symBinAddr: 0x100010E58, symSize: 0xD0 }
  - { offset: 0x21141, size: 0x8, addend: 0x0, symName: __RINvMNtCsliVzVx4luf9_4core3stre8containsReECs4F26I76Lgqi_18build_script_build, symObjAddr: 0x250, symBinAddr: 0x100010F28, symSize: 0x4C }
  - { offset: 0x21187, size: 0x8, addend: 0x0, symName: __RINvMNtCsliVzVx4luf9_4core3stre9ends_withReECs4F26I76Lgqi_18build_script_build, symObjAddr: 0x29C, symBinAddr: 0x100010F74, symSize: 0x4C }
  - { offset: 0x21223, size: 0x8, addend: 0x0, symName: __RNvMNtCsliVzVx4luf9_4core3stre20make_ascii_uppercaseCs4F26I76Lgqi_18build_script_build, symObjAddr: 0x26D0, symBinAddr: 0x1000133A8, symSize: 0x34 }
  - { offset: 0x21297, size: 0x8, addend: 0x0, symName: __RNvMNtCsliVzVx4luf9_4core3stre3lenCs4F26I76Lgqi_18build_script_build, symObjAddr: 0x2704, symBinAddr: 0x1000133DC, symSize: 0x1C }
  - { offset: 0x212E3, size: 0x8, addend: 0x0, symName: __RNvMNtCsliVzVx4luf9_4core3stre5charsCs4F26I76Lgqi_18build_script_build, symObjAddr: 0x2720, symBinAddr: 0x1000133F8, symSize: 0x38 }
  - { offset: 0x214AB, size: 0x8, addend: 0x0, symName: __RNvMNtCsliVzVx4luf9_4core3stre5linesCs4F26I76Lgqi_18build_script_build, symObjAddr: 0x2758, symBinAddr: 0x100013430, symSize: 0xC4 }
  - { offset: 0x217FA, size: 0x8, addend: 0x0, symName: __RNCNvMsp_NtNtCsliVzVx4luf9_4core3str4iterINtB7_20MatchIndicesInternalNCNvCs4F26I76Lgqi_18build_script_build4main0E4next0B19_, symObjAddr: 0x25D0, symBinAddr: 0x1000132A8, symSize: 0xA0 }
  - { offset: 0x219DC, size: 0x8, addend: 0x0, symName: __RNvXs1i_NtNtCsliVzVx4luf9_4core3str4iterINtB6_6SplitNcENtNtNtNtBa_4iter6traits8iterator8Iterator4nextCs4F26I76Lgqi_18build_script_build, symObjAddr: 0x38CC, symBinAddr: 0x1000145A4, symSize: 0x24 }
  - { offset: 0x21A7D, size: 0x8, addend: 0x0, symName: __RNvXs3_NtNtCsliVzVx4luf9_4core3str4iterNtB5_11CharIndicesNtNtNtNtB9_4iter6traits8iterator8Iterator4nextCs4F26I76Lgqi_18build_script_build, symObjAddr: 0x3B6C, symBinAddr: 0x100014844, symSize: 0x1A8 }
  - { offset: 0x21D56, size: 0x8, addend: 0x0, symName: __RNvXsH_NtNtCsliVzVx4luf9_4core3str4iterINtB5_14SplitInclusivecENtNtNtNtB9_4iter6traits8iterator8Iterator4nextCs4F26I76Lgqi_18build_script_build, symObjAddr: 0x4A10, symBinAddr: 0x1000156E8, symSize: 0x24 }
  - { offset: 0x21D93, size: 0x8, addend: 0x0, symName: __RNvXsX_NtNtCsliVzVx4luf9_4core3str4iterINtB5_5SplitcENtNtNtNtB9_4iter6traits8iterator8Iterator4nextCs4F26I76Lgqi_18build_script_build, symObjAddr: 0x4AA0, symBinAddr: 0x100015778, symSize: 0x24 }
  - { offset: 0x21DD0, size: 0x8, addend: 0x0, symName: __RNvXss_NtNtCsliVzVx4luf9_4core3str4iterNtB5_5LinesNtNtNtNtB9_4iter6traits8iterator8Iterator4nextCs4F26I76Lgqi_18build_script_build, symObjAddr: 0x4C6C, symBinAddr: 0x100015944, symSize: 0x24 }
  - { offset: 0x220FF, size: 0x8, addend: 0x0, symName: __RNvXs4_NtNtCsliVzVx4luf9_4core3str6traitsNtNtNtB9_3ops5range9RangeFullINtNtNtB9_5slice5index10SliceIndexeE5indexCs4F26I76Lgqi_18build_script_build, symObjAddr: 0x3DD8, symBinAddr: 0x100014AB0, symSize: 0x18 }
  - { offset: 0x22176, size: 0x8, addend: 0x0, symName: __RNvXs8_NtNtCsliVzVx4luf9_4core3str6traitsINtNtNtB9_3ops5range7RangeTojEINtNtNtB9_5slice5index10SliceIndexeE3getCs4F26I76Lgqi_18build_script_build, symObjAddr: 0x4340, symBinAddr: 0x100015018, symSize: 0x120 }
  - { offset: 0x223A1, size: 0x8, addend: 0x0, symName: __RNvXs8_NtNtCsliVzVx4luf9_4core3str6traitsINtNtNtB9_3ops5range7RangeTojEINtNtNtB9_5slice5index10SliceIndexeE5indexCs4F26I76Lgqi_18build_script_build, symObjAddr: 0x4460, symBinAddr: 0x100015138, symSize: 0x84 }
  - { offset: 0x2243E, size: 0x8, addend: 0x0, symName: __RNvXs9_NtNtCsliVzVx4luf9_4core3str6traitsINtNtNtB9_3ops5range9RangeFromjEINtNtNtB9_5slice5index10SliceIndexeE3getCs4F26I76Lgqi_18build_script_build, symObjAddr: 0x455C, symBinAddr: 0x100015234, symSize: 0x130 }
  - { offset: 0x226DB, size: 0x8, addend: 0x0, symName: __RNvXs9_NtNtCsliVzVx4luf9_4core3str6traitsINtNtNtB9_3ops5range9RangeFromjEINtNtNtB9_5slice5index10SliceIndexeE5indexCs4F26I76Lgqi_18build_script_build, symObjAddr: 0x468C, symBinAddr: 0x100015364, symSize: 0x88 }
  - { offset: 0x22781, size: 0x8, addend: 0x0, symName: __RNvXs0_NtCsliVzVx4luf9_4core3strReNtNtB7_7default7Default7defaultCs4F26I76Lgqi_18build_script_build, symObjAddr: 0x381C, symBinAddr: 0x1000144F4, symSize: 0x10 }
  - { offset: 0x227A5, size: 0x8, addend: 0x0, symName: __RNvXs3_NtCsliVzVx4luf9_4core3strNtB5_8LinesMapINtNtNtB7_3ops8function2FnTReEE4callCs4F26I76Lgqi_18build_script_build, symObjAddr: 0x39EC, symBinAddr: 0x1000146C4, symSize: 0x180 }
  - { offset: 0x228ED, size: 0x8, addend: 0x0, symName: __RNvXs4_NtCsliVzVx4luf9_4core3strNtB5_8LinesMapINtNtNtB7_3ops8function5FnMutTReEE8call_mutCs4F26I76Lgqi_18build_script_build, symObjAddr: 0x3D9C, symBinAddr: 0x100014A74, symSize: 0x3C }
  - { offset: 0x22946, size: 0x8, addend: 0x0, symName: __RNvXs_NtCsliVzVx4luf9_4core3streINtNtB6_7convert5AsRefShE6as_refCs4F26I76Lgqi_18build_script_build, symObjAddr: 0x4AC4, symBinAddr: 0x10001579C, symSize: 0x18 }
  - { offset: 0x22E5C, size: 0x8, addend: 0x0, symName: __RNvXs5_NtCsliVzVx4luf9_4core6optionINtB5_6OptionNtNtNtCs6P7HZtpS3La_3std3ffi6os_str8OsStringENtNtNtNtB7_4iter6traits7collect12IntoIterator9into_iterCs4F26I76Lgqi_18build_script_build, symObjAddr: 0x3DF0, symBinAddr: 0x100014AC8, symSize: 0x30 }
  - { offset: 0x2306C, size: 0x8, addend: 0x0, symName: __RNvXsv_NtCsliVzVx4luf9_4core6optionINtB5_8IntoIterNtNtNtCs6P7HZtpS3La_3std3ffi6os_str8OsStringENtNtNtNtB7_4iter6traits8iterator8Iterator4nextCs4F26I76Lgqi_18build_script_build, symObjAddr: 0x4C90, symBinAddr: 0x100015968, symSize: 0x50 }
  - { offset: 0x23329, size: 0x8, addend: 0x0, symName: __RNvXsB_NtCsliVzVx4luf9_4core6optionINtB5_6OptionNtNtCs6P7HZtpS3La_3std7process6OutputENtNtNtB7_3ops9try_trait3Try6branchCs4F26I76Lgqi_18build_script_build, symObjAddr: 0x4714, symBinAddr: 0x1000153EC, symSize: 0x78 }
  - { offset: 0x2337F, size: 0x8, addend: 0x0, symName: __RNvXsB_NtCsliVzVx4luf9_4core6optionINtB5_6OptionNtNtNtCs6P7HZtpS3La_3std3ffi6os_str8OsStringENtNtNtB7_3ops9try_trait3Try6branchCs4F26I76Lgqi_18build_script_build, symObjAddr: 0x478C, symBinAddr: 0x100015464, symSize: 0x68 }
  - { offset: 0x233D5, size: 0x8, addend: 0x0, symName: __RNvXsB_NtCsliVzVx4luf9_4core6optionINtB5_6OptionReENtNtNtB7_3ops9try_trait3Try6branchCs4F26I76Lgqi_18build_script_build, symObjAddr: 0x47F4, symBinAddr: 0x1000154CC, symSize: 0x54 }
  - { offset: 0x2342A, size: 0x8, addend: 0x0, symName: __RNvXsB_NtCsliVzVx4luf9_4core6optionINtB5_6OptionhENtNtNtB7_3ops9try_trait3Try6branchCs4F26I76Lgqi_18build_script_build, symObjAddr: 0x4848, symBinAddr: 0x100015520, symSize: 0x4C }
  - { offset: 0x2347E, size: 0x8, addend: 0x0, symName: __RNvXsB_NtCsliVzVx4luf9_4core6optionINtB5_6OptionjENtNtNtB7_3ops9try_trait3Try11from_outputCs4F26I76Lgqi_18build_script_build, symObjAddr: 0x4894, symBinAddr: 0x10001556C, symSize: 0x24 }
  - { offset: 0x234B5, size: 0x8, addend: 0x0, symName: __RNvXsB_NtCsliVzVx4luf9_4core6optionINtB5_6OptionjENtNtNtB7_3ops9try_trait3Try6branchCs4F26I76Lgqi_18build_script_build, symObjAddr: 0x48B8, symBinAddr: 0x100015590, symSize: 0x48 }
  - { offset: 0x2350A, size: 0x8, addend: 0x0, symName: __RNvXsB_NtCsliVzVx4luf9_4core6optionINtB5_6OptionmENtNtNtB7_3ops9try_trait3Try6branchCs4F26I76Lgqi_18build_script_build, symObjAddr: 0x4900, symBinAddr: 0x1000155D8, symSize: 0x48 }
  - { offset: 0x2355E, size: 0x8, addend: 0x0, symName: __RNvXsB_NtCsliVzVx4luf9_4core6optionINtB5_6OptiontENtNtNtB7_3ops9try_trait3Try6branchCs4F26I76Lgqi_18build_script_build, symObjAddr: 0x4948, symBinAddr: 0x100015620, symSize: 0x48 }
  - { offset: 0x235B8, size: 0x8, addend: 0x0, symName: __RNvXsC_NtCsliVzVx4luf9_4core6optionINtB5_6OptionNtNtCs4F26I76Lgqi_18build_script_build7version4DateEINtNtNtB7_3ops9try_trait12FromResidualIBy_NtNtB7_7convert10InfallibleEE13from_residualBO_, symObjAddr: 0x4990, symBinAddr: 0x100015668, symSize: 0x20 }
  - { offset: 0x235FA, size: 0x8, addend: 0x0, symName: __RNvXsC_NtCsliVzVx4luf9_4core6optionINtB5_6OptionNtNtCs4F26I76Lgqi_18build_script_build7version7VersionEINtNtNtB7_3ops9try_trait12FromResidualIBy_NtNtB7_7convert10InfallibleEE13from_residualBO_, symObjAddr: 0x49B0, symBinAddr: 0x100015688, symSize: 0x18 }
  - { offset: 0x2363C, size: 0x8, addend: 0x0, symName: __RNvXsC_NtCsliVzVx4luf9_4core6optionINtB5_6OptionNtNtCs69QEzRJvHMp_5alloc6string6StringEINtNtNtB7_3ops9try_trait12FromResidualIBy_NtNtB7_7convert10InfallibleEE13from_residualCs4F26I76Lgqi_18build_script_build, symObjAddr: 0x49C8, symBinAddr: 0x1000156A0, symSize: 0x18 }
  - { offset: 0x2367E, size: 0x8, addend: 0x0, symName: __RNvXsC_NtCsliVzVx4luf9_4core6optionINtB5_6OptionjEINtNtNtB7_3ops9try_trait12FromResidualIBy_NtNtB7_7convert10InfallibleEE13from_residualCs4F26I76Lgqi_18build_script_build, symObjAddr: 0x49E0, symBinAddr: 0x1000156B8, symSize: 0x18 }
  - { offset: 0x236C0, size: 0x8, addend: 0x0, symName: __RNvXsC_NtCsliVzVx4luf9_4core6optionINtB5_6OptionmEINtNtNtB7_3ops9try_trait12FromResidualIBy_NtNtB7_7convert10InfallibleEE13from_residualCs4F26I76Lgqi_18build_script_build, symObjAddr: 0x49F8, symBinAddr: 0x1000156D0, symSize: 0x18 }
  - { offset: 0x23708, size: 0x8, addend: 0x0, symName: __RNvXsc_NtCsliVzVx4luf9_4core6optionINtB5_6OptionRReENtNtB7_3cmp9PartialEq2eqCs4F26I76Lgqi_18build_script_build, symObjAddr: 0x4B74, symBinAddr: 0x10001584C, symSize: 0xB8 }
  - { offset: 0x23DEA, size: 0x8, addend: 0x0, symName: __RINvNtNtNtCsliVzVx4luf9_4core4iter7sources4once4onceNtNtNtCs6P7HZtpS3La_3std3ffi6os_str8OsStringECs4F26I76Lgqi_18build_script_build, symObjAddr: 0x1AC0, symBinAddr: 0x100012798, symSize: 0x50 }
  - { offset: 0x23E4F, size: 0x8, addend: 0x0, symName: __RNvXNtNtNtCsliVzVx4luf9_4core4iter7sources4onceINtB2_4OnceNtNtNtCs6P7HZtpS3La_3std3ffi6os_str8OsStringENtNtNtB6_6traits8iterator8Iterator4nextCs4F26I76Lgqi_18build_script_build, symObjAddr: 0x37C4, symBinAddr: 0x10001449C, symSize: 0x58 }
  - { offset: 0x23FC3, size: 0x8, addend: 0x0, symName: __RINvYINtNtCsliVzVx4luf9_4core6option8IntoIterNtNtNtCs6P7HZtpS3La_3std3ffi6os_str8OsStringENtNtNtNtB8_4iter6traits8iterator8Iterator5chainINtNtNtB1w_7sources4once4OnceBH_EECs4F26I76Lgqi_18build_script_build, symObjAddr: 0x1B10, symBinAddr: 0x1000127E8, symSize: 0xAC }
  - { offset: 0x24048, size: 0x8, addend: 0x0, symName: __RINvYINtNtNtCsliVzVx4luf9_4core3str4iter5SplitcENtNtNtNtBa_4iter6traits8iterator8Iterator3anyNCNvCs4F26I76Lgqi_18build_script_build18is_allowed_feature0EB1x_, symObjAddr: 0x1BBC, symBinAddr: 0x100012894, symSize: 0x44 }
  - { offset: 0x24097, size: 0x8, addend: 0x0, symName: __RINvYINtNtNtCsliVzVx4luf9_4core3str4iter5SplitcENtNtNtNtBa_4iter6traits8iterator8Iterator7collectINtNtCs69QEzRJvHMp_5alloc3vec3VecReEECs4F26I76Lgqi_18build_script_build, symObjAddr: 0x1C00, symBinAddr: 0x1000128D8, symSize: 0x14 }
  - { offset: 0x240D8, size: 0x8, addend: 0x0, symName: __RINvYINtNtNtCsliVzVx4luf9_4core3str4iter5SplitcENtNtNtNtBa_4iter6traits8iterator8Iterator8try_folduNCINvNvBK_3any5checkReNCNvCs4F26I76Lgqi_18build_script_build18is_allowed_feature0E0INtNtNtBa_3ops12control_flow11ControlFlowuEEB1Z_, symObjAddr: 0x1C14, symBinAddr: 0x1000128EC, symSize: 0x14C }
  - { offset: 0x24190, size: 0x8, addend: 0x0, symName: __RINvYNtNtNtCsliVzVx4luf9_4core3str4iter5LinesNtNtNtNtB9_4iter6traits8iterator8Iterator4findNCNCNvMNtCs4F26I76Lgqi_18build_script_build7versionNtB1y_7Version5parses0_00EB1A_, symObjAddr: 0x1D60, symBinAddr: 0x100012A38, symSize: 0x88 }
  - { offset: 0x24211, size: 0x8, addend: 0x0, symName: __RINvYNtNtNtCsliVzVx4luf9_4core3str4iter5LinesNtNtNtNtB9_4iter6traits8iterator8Iterator4findNCNCNvMNtCs4F26I76Lgqi_18build_script_build7versionNtB1y_7Version5parses1_00EB1A_, symObjAddr: 0x1DE8, symBinAddr: 0x100012AC0, symSize: 0x88 }
  - { offset: 0x24292, size: 0x8, addend: 0x0, symName: __RINvYNtNtNtCsliVzVx4luf9_4core3str4iter5LinesNtNtNtNtB9_4iter6traits8iterator8Iterator4findNCNvMNtCs4F26I76Lgqi_18build_script_build7versionNtB1w_7Version5parse0EB1y_, symObjAddr: 0x1E70, symBinAddr: 0x100012B48, symSize: 0x88 }
  - { offset: 0x24313, size: 0x8, addend: 0x0, symName: __RINvYNtNtNtCsliVzVx4luf9_4core3str4iter5LinesNtNtNtNtB9_4iter6traits8iterator8Iterator8try_folduNCINvNvBH_4find5checkReNCNCNvMNtCs4F26I76Lgqi_18build_script_build7versionNtB20_7Version5parses0_00E0INtNtNtB9_3ops12control_flow11ControlFlowB1R_EEB22_, symObjAddr: 0x1EF8, symBinAddr: 0x100012BD0, symSize: 0x194 }
  - { offset: 0x243D0, size: 0x8, addend: 0x0, symName: __RINvYNtNtNtCsliVzVx4luf9_4core3str4iter5LinesNtNtNtNtB9_4iter6traits8iterator8Iterator8try_folduNCINvNvBH_4find5checkReNCNCNvMNtCs4F26I76Lgqi_18build_script_build7versionNtB20_7Version5parses1_00E0INtNtNtB9_3ops12control_flow11ControlFlowB1R_EEB22_, symObjAddr: 0x208C, symBinAddr: 0x100012D64, symSize: 0x194 }
  - { offset: 0x2448D, size: 0x8, addend: 0x0, symName: __RINvYNtNtNtCsliVzVx4luf9_4core3str4iter5LinesNtNtNtNtB9_4iter6traits8iterator8Iterator8try_folduNCINvNvBH_4find5checkReNCNvMNtCs4F26I76Lgqi_18build_script_build7versionNtB1Y_7Version5parse0E0INtNtNtB9_3ops12control_flow11ControlFlowB1R_EEB20_, symObjAddr: 0x2220, symBinAddr: 0x100012EF8, symSize: 0x194 }
  - { offset: 0x24554, size: 0x8, addend: 0x0, symName: __RNCINvNvNtNtNtNtCsliVzVx4luf9_4core4iter6traits8iterator8Iterator3any5checkReNCNvCs4F26I76Lgqi_18build_script_build18is_allowed_feature0E0B1h_, symObjAddr: 0x23F0, symBinAddr: 0x1000130C8, symSize: 0x54 }
  - { offset: 0x245CF, size: 0x8, addend: 0x0, symName: __RNCINvNvNtNtNtNtCsliVzVx4luf9_4core4iter6traits8iterator8Iterator4find5checkReNCNCNvMNtCs4F26I76Lgqi_18build_script_build7versionNtB1l_7Version5parses0_00E0B1n_, symObjAddr: 0x2444, symBinAddr: 0x10001311C, symSize: 0x84 }
  - { offset: 0x2462A, size: 0x8, addend: 0x0, symName: __RNCINvNvNtNtNtNtCsliVzVx4luf9_4core4iter6traits8iterator8Iterator4find5checkReNCNCNvMNtCs4F26I76Lgqi_18build_script_build7versionNtB1l_7Version5parses1_00E0B1n_, symObjAddr: 0x24C8, symBinAddr: 0x1000131A0, symSize: 0x84 }
  - { offset: 0x24685, size: 0x8, addend: 0x0, symName: __RNCINvNvNtNtNtNtCsliVzVx4luf9_4core4iter6traits8iterator8Iterator4find5checkReNCNvMNtCs4F26I76Lgqi_18build_script_build7versionNtB1j_7Version5parse0E0B1l_, symObjAddr: 0x254C, symBinAddr: 0x100013224, symSize: 0x84 }
  - { offset: 0x24762, size: 0x8, addend: 0x0, symName: __RNvYINtNtNtCsliVzVx4luf9_4core3str4iter5SplitcENtNtNtNtB9_4iter6traits8iterator8Iterator9size_hintCs4F26I76Lgqi_18build_script_build, symObjAddr: 0x4D00, symBinAddr: 0x1000159D8, symSize: 0x34 }
  - { offset: 0x247A3, size: 0x8, addend: 0x0, symName: __RNvXs_NtNtNtCsliVzVx4luf9_4core4iter6traits7collectINtNtNtB8_7sources4once4OnceNtNtNtCs6P7HZtpS3La_3std3ffi6os_str8OsStringENtB4_12IntoIterator9into_iterCs4F26I76Lgqi_18build_script_build, symObjAddr: 0x4B2C, symBinAddr: 0x100015804, symSize: 0x18 }
  - { offset: 0x247DA, size: 0x8, addend: 0x0, symName: __RNvXs_NtNtNtCsliVzVx4luf9_4core4iter6traits7collectINtNtNtBa_3str4iter5SplitcENtB4_12IntoIterator9into_iterCs4F26I76Lgqi_18build_script_build, symObjAddr: 0x4B44, symBinAddr: 0x10001581C, symSize: 0x30 }
  - { offset: 0x2481B, size: 0x8, addend: 0x0, symName: __RINvNtCsliVzVx4luf9_4core10intrinsics11size_of_valDINtNtNtB4_3ops8function5FnMutuEp6OutputINtNtB4_6result6ResultuNtNtNtCs6P7HZtpS3La_3std2io5error5ErrorENtNtB4_6marker4SyncNtB2t_4SendEL_ECs4F26I76Lgqi_18build_script_build, symObjAddr: 0x9C8, symBinAddr: 0x1000116A0, symSize: 0x10 }
  - { offset: 0x24852, size: 0x8, addend: 0x0, symName: __RINvNtCsliVzVx4luf9_4core10intrinsics11size_of_valDNtNtB4_5error5ErrorNtNtB4_6marker4SyncNtB18_4SendEL_ECs4F26I76Lgqi_18build_script_build, symObjAddr: 0x9D8, symBinAddr: 0x1000116B0, symSize: 0x10 }
  - { offset: 0x24889, size: 0x8, addend: 0x0, symName: __RINvNtCsliVzVx4luf9_4core10intrinsics11size_of_valNtNtNtCs6P7HZtpS3La_3std2io5error6CustomECs4F26I76Lgqi_18build_script_build, symObjAddr: 0x9E8, symBinAddr: 0x1000116C0, symSize: 0xC }
  - { offset: 0x248C0, size: 0x8, addend: 0x0, symName: __RINvNtCsliVzVx4luf9_4core10intrinsics11size_of_valShECs4F26I76Lgqi_18build_script_build, symObjAddr: 0x9F4, symBinAddr: 0x1000116CC, symSize: 0x10 }
  - { offset: 0x248F7, size: 0x8, addend: 0x0, symName: __RINvNtCsliVzVx4luf9_4core10intrinsics11size_of_valSmECs4F26I76Lgqi_18build_script_build, symObjAddr: 0xA04, symBinAddr: 0x1000116DC, symSize: 0x10 }
  - { offset: 0x2492E, size: 0x8, addend: 0x0, symName: __RINvNtCsliVzVx4luf9_4core10intrinsics16min_align_of_valDINtNtNtB4_3ops8function5FnMutuEp6OutputINtNtB4_6result6ResultuNtNtNtCs6P7HZtpS3La_3std2io5error5ErrorENtNtB4_6marker4SyncNtB2y_4SendEL_ECs4F26I76Lgqi_18build_script_build, symObjAddr: 0xA14, symBinAddr: 0x1000116EC, symSize: 0x10 }
  - { offset: 0x24965, size: 0x8, addend: 0x0, symName: __RINvNtCsliVzVx4luf9_4core10intrinsics16min_align_of_valDNtNtB4_5error5ErrorNtNtB4_6marker4SyncNtB1d_4SendEL_ECs4F26I76Lgqi_18build_script_build, symObjAddr: 0xA24, symBinAddr: 0x1000116FC, symSize: 0x10 }
  - { offset: 0x2499C, size: 0x8, addend: 0x0, symName: __RINvNtCsliVzVx4luf9_4core10intrinsics16min_align_of_valNtNtNtCs6P7HZtpS3La_3std2io5error6CustomECs4F26I76Lgqi_18build_script_build, symObjAddr: 0xA34, symBinAddr: 0x10001170C, symSize: 0xC }
  - { offset: 0x249D3, size: 0x8, addend: 0x0, symName: __RINvNtCsliVzVx4luf9_4core10intrinsics16min_align_of_valShECs4F26I76Lgqi_18build_script_build, symObjAddr: 0xA40, symBinAddr: 0x100011718, symSize: 0x10 }
  - { offset: 0x24A0A, size: 0x8, addend: 0x0, symName: __RINvNtCsliVzVx4luf9_4core10intrinsics16min_align_of_valSmECs4F26I76Lgqi_18build_script_build, symObjAddr: 0xA50, symBinAddr: 0x100011728, symSize: 0x10 }
  - { offset: 0x24A41, size: 0x8, addend: 0x0, symName: __RINvNtCsliVzVx4luf9_4core10intrinsics23is_val_statically_knownbECs4F26I76Lgqi_18build_script_build, symObjAddr: 0xA60, symBinAddr: 0x100011738, symSize: 0x18 }
  - { offset: 0x24A78, size: 0x8, addend: 0x0, symName: __RINvNtCsliVzVx4luf9_4core10intrinsics7type_idReECs4F26I76Lgqi_18build_script_build, symObjAddr: 0xA78, symBinAddr: 0x100011750, symSize: 0x4 }
  - { offset: 0x24AA0, size: 0x8, addend: 0x0, symName: __RNvNtCsliVzVx4luf9_4core10intrinsics8unlikelyCs4F26I76Lgqi_18build_script_build, symObjAddr: 0x2E20, symBinAddr: 0x100013AF8, symSize: 0x10 }
  - { offset: 0x24AD3, size: 0x8, addend: 0x0, symName: __RNvNvNtCsliVzVx4luf9_4core10intrinsics11write_bytes18precondition_checkCs4F26I76Lgqi_18build_script_build, symObjAddr: 0x2F24, symBinAddr: 0x100013BFC, symSize: 0xEC }
  - { offset: 0x24C28, size: 0x8, addend: 0x0, symName: __RNvNvNtCsliVzVx4luf9_4core10intrinsics19copy_nonoverlapping18precondition_checkCs4F26I76Lgqi_18build_script_build, symObjAddr: 0x3010, symBinAddr: 0x100013CE8, symSize: 0x1EC }
  - { offset: 0x24FC9, size: 0x8, addend: 0x0, symName: __RNvXNtNtCsliVzVx4luf9_4core3ops12control_flowINtB2_11ControlFlowReENtNtB4_9try_trait3Try11from_outputCs4F26I76Lgqi_18build_script_build, symObjAddr: 0x36C4, symBinAddr: 0x10001439C, symSize: 0x18 }
  - { offset: 0x25007, size: 0x8, addend: 0x0, symName: __RNvXNtNtCsliVzVx4luf9_4core3ops12control_flowINtB2_11ControlFlowReENtNtB4_9try_trait3Try6branchCs4F26I76Lgqi_18build_script_build, symObjAddr: 0x36DC, symBinAddr: 0x1000143B4, symSize: 0x64 }
  - { offset: 0x2507F, size: 0x8, addend: 0x0, symName: __RNvXNtNtCsliVzVx4luf9_4core3ops12control_flowINtB2_11ControlFlowuENtNtB4_9try_trait3Try11from_outputCs4F26I76Lgqi_18build_script_build, symObjAddr: 0x3740, symBinAddr: 0x100014418, symSize: 0x18 }
  - { offset: 0x250BD, size: 0x8, addend: 0x0, symName: __RNvXNtNtCsliVzVx4luf9_4core3ops12control_flowINtB2_11ControlFlowuENtNtB4_9try_trait3Try6branchCs4F26I76Lgqi_18build_script_build, symObjAddr: 0x3758, symBinAddr: 0x100014430, symSize: 0x38 }
  - { offset: 0x25139, size: 0x8, addend: 0x0, symName: __RNvXs7_NtNtCsliVzVx4luf9_4core3ops12control_flowINtB5_11ControlFlowuENtNtB9_3cmp9PartialEq2eqCs4F26I76Lgqi_18build_script_build, symObjAddr: 0x4254, symBinAddr: 0x100014F2C, symSize: 0xEC }
  - { offset: 0x25274, size: 0x8, addend: 0x0, symName: __RNvXs_NtNtCsliVzVx4luf9_4core3ops12control_flowINtB4_11ControlFlowReEINtNtB6_9try_trait12FromResidualIBK_B12_NtNtB8_7convert10InfallibleEE13from_residualCs4F26I76Lgqi_18build_script_build, symObjAddr: 0x4ADC, symBinAddr: 0x1000157B4, symSize: 0x34 }
  - { offset: 0x252CF, size: 0x8, addend: 0x0, symName: __RNvXs_NtNtCsliVzVx4luf9_4core3ops12control_flowINtB4_11ControlFlowuEINtNtB6_9try_trait12FromResidualIBK_uNtNtB8_7convert10InfallibleEE13from_residualCs4F26I76Lgqi_18build_script_build, symObjAddr: 0x4B10, symBinAddr: 0x1000157E8, symSize: 0x1C }
  - { offset: 0x25999, size: 0x8, addend: 0x0, symName: __RNSNvYNCINvNtCs6P7HZtpS3La_3std2rt10lang_startuE0INtNtNtCsliVzVx4luf9_4core3ops8function6FnOnceuE9call_once6vtableCs4F26I76Lgqi_18build_script_build, symObjAddr: 0x26A8, symBinAddr: 0x100013380, symSize: 0x28 }
  - { offset: 0x259DD, size: 0x8, addend: 0x0, symName: __RNvYFEuINtNtNtCsliVzVx4luf9_4core3ops8function6FnOnceuE9call_onceCs4F26I76Lgqi_18build_script_build, symObjAddr: 0x4CE0, symBinAddr: 0x1000159B8, symSize: 0x20 }
  - { offset: 0x25A1D, size: 0x8, addend: 0x0, symName: __RNvYNCINvNtCs6P7HZtpS3La_3std2rt10lang_startuE0INtNtNtCsliVzVx4luf9_4core3ops8function6FnOnceuE9call_onceCs4F26I76Lgqi_18build_script_build, symObjAddr: 0x4D34, symBinAddr: 0x100015A0C, symSize: 0x4C }
  - { offset: 0x25A61, size: 0x8, addend: 0x0, symName: __RNvYNvYINtNtCsliVzVx4luf9_4core6option8IntoIterNtNtNtCs6P7HZtpS3La_3std3ffi6os_str8OsStringENtNtNtNtBa_4iter6traits8iterator8Iterator4nextINtNtNtBa_3ops8function6FnOnceTQB5_EE9call_onceCs4F26I76Lgqi_18build_script_build, symObjAddr: 0x5160, symBinAddr: 0x100015E38, symSize: 0x24 }
  - { offset: 0x25AA5, size: 0x8, addend: 0x0, symName: __RNvYNvYeNtNtCs69QEzRJvHMp_5alloc6borrow7ToOwned8to_ownedINtNtNtCsliVzVx4luf9_4core3ops8function6FnOnceTReEE9call_onceCs4F26I76Lgqi_18build_script_build, symObjAddr: 0x5184, symBinAddr: 0x100015E5C, symSize: 0x2C }
  - { offset: 0x25AE9, size: 0x8, addend: 0x0, symName: __RNvYNvYjNtNtCsliVzVx4luf9_4core3cmp3Ord3cmpINtNtNtBa_3ops8function6FnOnceTRjB1a_EE9call_onceCs4F26I76Lgqi_18build_script_build, symObjAddr: 0x51B0, symBinAddr: 0x100015E88, symSize: 0x2C }
  - { offset: 0x25B38, size: 0x8, addend: 0x0, symName: __RNvXs2_NtNtNtCsliVzVx4luf9_4core3ops8function5implsQNtNtBb_3str8LinesMapINtB7_6FnOnceTReEE9call_onceCs4F26I76Lgqi_18build_script_build, symObjAddr: 0x39B8, symBinAddr: 0x100014690, symSize: 0x34 }
  - { offset: 0x25B8E, size: 0x8, addend: 0x0, symName: __RNvYNvMs9_NtCsliVzVx4luf9_4core3numj11checked_addINtNtNtBa_3ops8function5FnMutTjjEE8call_mutCs4F26I76Lgqi_18build_script_build, symObjAddr: 0x5130, symBinAddr: 0x100015E08, symSize: 0x30 }
  - { offset: 0x25BE9, size: 0x8, addend: 0x0, symName: __RNCNvXs8_NtNtCsliVzVx4luf9_4core5slice3cmpReNtB7_13SliceContains14slice_contains0Cs4F26I76Lgqi_18build_script_build, symObjAddr: 0x2670, symBinAddr: 0x100013348, symSize: 0x38 }
  - { offset: 0x25C30, size: 0x8, addend: 0x0, symName: __RNvXs8_NtNtCsliVzVx4luf9_4core5slice3cmpReNtB5_13SliceContains14slice_containsCs4F26I76Lgqi_18build_script_build, symObjAddr: 0x44E4, symBinAddr: 0x1000151BC, symSize: 0x78 }
  - { offset: 0x25DC6, size: 0x8, addend: 0x0, symName: __RNvXNtNtCsliVzVx4luf9_4core5slice3cmpShNtNtB6_3cmp9PartialEq2eqCs4F26I76Lgqi_18build_script_build, symObjAddr: 0x3790, symBinAddr: 0x100014468, symSize: 0x34 }
  - { offset: 0x25E18, size: 0x8, addend: 0x0, symName: __RNvXs3_NtNtCsliVzVx4luf9_4core5slice3cmpShINtB5_14SlicePartialEqhE5equalCs4F26I76Lgqi_18build_script_build, symObjAddr: 0x3D14, symBinAddr: 0x1000149EC, symSize: 0x88 }
  - { offset: 0x260C0, size: 0x8, addend: 0x0, symName: __RNvNvNtNtCsliVzVx4luf9_4core5slice3raw14from_raw_parts18precondition_checkCs4F26I76Lgqi_18build_script_build, symObjAddr: 0x33CC, symBinAddr: 0x1000140A4, symSize: 0x164 }
  - { offset: 0x26269, size: 0x8, addend: 0x0, symName: __RNvNvNtNtCsliVzVx4luf9_4core5slice3raw18from_raw_parts_mut18precondition_checkCs4F26I76Lgqi_18build_script_build, symObjAddr: 0x3530, symBinAddr: 0x100014208, symSize: 0x164 }
  - { offset: 0x26584, size: 0x8, addend: 0x0, symName: __RNvXs2_NtNtCsliVzVx4luf9_4core5slice5indexINtNtNtB9_3ops5range5RangejEINtB5_10SliceIndexShE9index_mutCs4F26I76Lgqi_18build_script_build, symObjAddr: 0x38F0, symBinAddr: 0x1000145C8, symSize: 0xC8 }
  - { offset: 0x267B4, size: 0x8, addend: 0x0, symName: __RNvXs5_NtNtCsliVzVx4luf9_4core5slice5indexINtNtNtB9_3ops5range9RangeFromjEINtB5_10SliceIndexShE3getCs4F26I76Lgqi_18build_script_build, symObjAddr: 0x3E20, symBinAddr: 0x100014AF8, symSize: 0xA8 }
  - { offset: 0x26934, size: 0x8, addend: 0x0, symName: __RNvXs5_NtNtCsliVzVx4luf9_4core5slice5indexINtNtNtB9_3ops5range9RangeFromjEINtB5_10SliceIndexShE5indexCs4F26I76Lgqi_18build_script_build, symObjAddr: 0x3EC8, symBinAddr: 0x100014BA0, symSize: 0x90 }
  - { offset: 0x26CAC, size: 0x8, addend: 0x0, symName: __RNvNvMNtNtCsliVzVx4luf9_4core5alloc6layoutNtB4_6Layout5array5innerCs4F26I76Lgqi_18build_script_build, symObjAddr: 0x2E30, symBinAddr: 0x100013B08, symSize: 0xF4 }
  - { offset: 0x26EA5, size: 0x8, addend: 0x0, symName: __RNvNvNtCsliVzVx4luf9_4core9ub_checks17is_nonoverlapping7runtimeCs4F26I76Lgqi_18build_script_build, symObjAddr: 0x32E8, symBinAddr: 0x100013FC0, symSize: 0xE4 }
  - { offset: 0x27154, size: 0x8, addend: 0x0, symName: __RNvXNtCsliVzVx4luf9_4core7convertReINtB2_5AsRefNtNtNtCs6P7HZtpS3La_3std3ffi6os_str5OsStrE6as_refCs4F26I76Lgqi_18build_script_build, symObjAddr: 0x3694, symBinAddr: 0x10001436C, symSize: 0x30 }
  - { offset: 0x27554, size: 0x8, addend: 0x0, symName: __RNvXs0_NtCsliVzVx4luf9_4core6borrowReINtB5_6BorroweE6borrowCs4F26I76Lgqi_18build_script_build, symObjAddr: 0x382C, symBinAddr: 0x100014504, symSize: 0x20 }
  - { offset: 0x27985, size: 0x8, addend: 0x0, symName: __RNvXs0_NtNtCs69QEzRJvHMp_5alloc3ffi5c_strNtB5_7CStringNtNtNtCsliVzVx4luf9_4core3ops4drop4Drop4dropCs4F26I76Lgqi_18build_script_build, symObjAddr: 0x384C, symBinAddr: 0x100014524, symSize: 0x80 }
  - { offset: 0x27A69, size: 0x8, addend: 0x0, symName: __RNvXs6_NtCs69QEzRJvHMp_5alloc5boxedINtB5_3BoxDINtNtNtCsliVzVx4luf9_4core3ops8function5FnMutuEp6OutputINtNtBP_6result6ResultuNtNtNtCs6P7HZtpS3La_3std2io5error5ErrorENtNtBP_6marker4SyncNtB2E_4SendEL_ENtNtBN_4drop4Drop4dropCs4F26I76Lgqi_18build_script_build, symObjAddr: 0x3F58, symBinAddr: 0x100014C30, symSize: 0xA0 }
  - { offset: 0x27C55, size: 0x8, addend: 0x0, symName: __RNvXs6_NtCs69QEzRJvHMp_5alloc5boxedINtB5_3BoxDNtNtCsliVzVx4luf9_4core5error5ErrorNtNtBM_6marker4SyncNtB1j_4SendEL_ENtNtNtBM_3ops4drop4Drop4dropCs4F26I76Lgqi_18build_script_build, symObjAddr: 0x3FF8, symBinAddr: 0x100014CD0, symSize: 0xA0 }
  - { offset: 0x27E41, size: 0x8, addend: 0x0, symName: __RNvXs6_NtCs69QEzRJvHMp_5alloc5boxedINtB5_3BoxNtNtNtCs6P7HZtpS3La_3std2io5error6CustomENtNtNtCsliVzVx4luf9_4core3ops4drop4Drop4dropCs4F26I76Lgqi_18build_script_build, symObjAddr: 0x4098, symBinAddr: 0x100014D70, symSize: 0x8C }
  - { offset: 0x2802A, size: 0x8, addend: 0x0, symName: __RNvXs6_NtCs69QEzRJvHMp_5alloc5boxedINtB5_3BoxShENtNtNtCsliVzVx4luf9_4core3ops4drop4Drop4dropCs4F26I76Lgqi_18build_script_build, symObjAddr: 0x4124, symBinAddr: 0x100014DFC, symSize: 0x98 }
  - { offset: 0x28216, size: 0x8, addend: 0x0, symName: __RNvXs6_NtCs69QEzRJvHMp_5alloc5boxedINtB5_3BoxSmENtNtNtCsliVzVx4luf9_4core3ops4drop4Drop4dropCs4F26I76Lgqi_18build_script_build, symObjAddr: 0x41BC, symBinAddr: 0x100014E94, symSize: 0x98 }
  - { offset: 0x2895E, size: 0x8, addend: 0x0, symName: __RINvMNtCsliVzVx4luf9_4core6optionINtB3_6OptionNtNtCs69QEzRJvHMp_5alloc6string6StringE6map_orbNCNvCs4F26I76Lgqi_18build_script_build4mains_0EB1x_, symObjAddr: 0x2E8, symBinAddr: 0x100010FC0, symSize: 0xD0 }
  - { offset: 0x289D1, size: 0x8, addend: 0x0, symName: __RINvMNtCsliVzVx4luf9_4core6optionINtB3_6OptionNtNtNtCs6P7HZtpS3La_3std3ffi6os_str8OsStringE6filterNCNvNtCs4F26I76Lgqi_18build_script_build7version13rustc_version0EB1E_, symObjAddr: 0x3B8, symBinAddr: 0x100011090, symSize: 0x178 }
  - { offset: 0x28A39, size: 0x8, addend: 0x0, symName: __RINvMNtCsliVzVx4luf9_4core6optionINtB3_6OptionNtNtNtCs6P7HZtpS3La_3std3ffi6os_str8OsStringE7or_elseNCNvXs_NtNtNtB5_4iter8adapters5chainINtB1G_5ChainINtB3_8IntoIterBI_EINtNtNtB1K_7sources4once4OnceBI_EENtNtNtB1K_6traits8iterator8Iterator4next0ECs4F26I76Lgqi_18build_script_build, symObjAddr: 0x530, symBinAddr: 0x100011208, symSize: 0xD4 }
  - { offset: 0x28A9C, size: 0x8, addend: 0x0, symName: __RINvMNtCsliVzVx4luf9_4core6optionINtB3_6OptionReE3mapBI_NCNCNvMNtCs4F26I76Lgqi_18build_script_build7versionNtBZ_7Version5parses0_0s_0EB11_, symObjAddr: 0x604, symBinAddr: 0x1000112DC, symSize: 0x64 }
  - { offset: 0x28B07, size: 0x8, addend: 0x0, symName: __RINvMNtCsliVzVx4luf9_4core6optionINtB3_6OptionReE3mapBI_NCNCNvMNtCs4F26I76Lgqi_18build_script_build7versionNtBZ_7Version5parses1_0s_0EB11_, symObjAddr: 0x668, symBinAddr: 0x100011340, symSize: 0x64 }
  - { offset: 0x28B72, size: 0x8, addend: 0x0, symName: __RINvMNtCsliVzVx4luf9_4core6optionINtB3_6OptionReE3mapBI_NCNvMNtCs4F26I76Lgqi_18build_script_build7versionNtBX_7Version5parses_0EBZ_, symObjAddr: 0x6CC, symBinAddr: 0x1000113A4, symSize: 0x64 }
  - { offset: 0x28BF5, size: 0x8, addend: 0x0, symName: __RINvMNtCsliVzVx4luf9_4core6optionINtB3_6OptionReE3mapNtNtCs69QEzRJvHMp_5alloc6string6StringNvYeNtNtBT_6borrow7ToOwned8to_ownedECs4F26I76Lgqi_18build_script_build, symObjAddr: 0x730, symBinAddr: 0x100011408, symSize: 0x78 }
  - { offset: 0x28C6D, size: 0x8, addend: 0x0, symName: __RINvMNtCsliVzVx4luf9_4core6optionINtB3_6OptionReE7or_elseNCNvCs4F26I76Lgqi_18build_script_build4mains0_0EBX_, symObjAddr: 0x7A8, symBinAddr: 0x100011480, symSize: 0xC8 }
  - { offset: 0x28DFE, size: 0x8, addend: 0x0, symName: __RINvMs0_NtCsliVzVx4luf9_4core3fmtNtB6_9Arguments6new_v1Kj1_KBS_ECs4F26I76Lgqi_18build_script_build, symObjAddr: 0x870, symBinAddr: 0x100011548, symSize: 0x50 }
  - { offset: 0x28E4A, size: 0x8, addend: 0x0, symName: __RINvMs0_NtCsliVzVx4luf9_4core3fmtNtB6_9Arguments6new_v1Kj2_Kj1_ECs4F26I76Lgqi_18build_script_build, symObjAddr: 0x8C0, symBinAddr: 0x100011598, symSize: 0x54 }
  - { offset: 0x28E7C, size: 0x8, addend: 0x0, symName: __RINvMs0_NtCsliVzVx4luf9_4core3fmtNtB6_9Arguments9new_constKj1_ECs4F26I76Lgqi_18build_script_build, symObjAddr: 0x914, symBinAddr: 0x1000115EC, symSize: 0x48 }
  - { offset: 0x29117, size: 0x8, addend: 0x0, symName: __RNvMNtCsliVzVx4luf9_4core6optionINtB2_6OptionNtNtCs4F26I76Lgqi_18build_script_build7version4DateE9unwrap_orBL_, symObjAddr: 0x281C, symBinAddr: 0x1000134F4, symSize: 0x6C }
  - { offset: 0x2917C, size: 0x8, addend: 0x0, symName: __RNvMNtCsliVzVx4luf9_4core6optionINtB2_6OptionNtNtNtCs6P7HZtpS3La_3std3ffi6os_str8OsStringE7is_someCs4F26I76Lgqi_18build_script_build, symObjAddr: 0x2888, symBinAddr: 0x100013560, symSize: 0x4C }
  - { offset: 0x291A8, size: 0x8, addend: 0x0, symName: __RNvMNtCsliVzVx4luf9_4core6optionINtB2_6OptionReE17unwrap_or_defaultCs4F26I76Lgqi_18build_script_build, symObjAddr: 0x28D4, symBinAddr: 0x1000135AC, symSize: 0x68 }
  - { offset: 0x291F2, size: 0x8, addend: 0x0, symName: __RNvMNtCsliVzVx4luf9_4core6optionINtB2_6OptionReE9unwrap_orCs4F26I76Lgqi_18build_script_build, symObjAddr: 0x293C, symBinAddr: 0x100013614, symSize: 0x70 }
  - { offset: 0x2924C, size: 0x8, addend: 0x0, symName: __RNvMNtCsliVzVx4luf9_4core6optionINtB2_6OptionmE9unwrap_orCs4F26I76Lgqi_18build_script_build, symObjAddr: 0x29AC, symBinAddr: 0x100013684, symSize: 0x48 }
  - { offset: 0x292B1, size: 0x8, addend: 0x0, symName: __RNvMsf_NtNtCsliVzVx4luf9_4core3str4iterINtB5_13SplitInternalcE14next_inclusiveCs4F26I76Lgqi_18build_script_build, symObjAddr: 0x29F4, symBinAddr: 0x1000136CC, symSize: 0x128 }
  - { offset: 0x29404, size: 0x8, addend: 0x0, symName: __RNvMsf_NtNtCsliVzVx4luf9_4core3str4iterINtB5_13SplitInternalcE4nextCs4F26I76Lgqi_18build_script_build, symObjAddr: 0x2B1C, symBinAddr: 0x1000137F4, symSize: 0x138 }
  - { offset: 0x29568, size: 0x8, addend: 0x0, symName: __RNvMsf_NtNtCsliVzVx4luf9_4core3str4iterINtB5_13SplitInternalcE7get_endCs4F26I76Lgqi_18build_script_build, symObjAddr: 0x2C54, symBinAddr: 0x10001392C, symSize: 0x120 }
  - { offset: 0x2969B, size: 0x8, addend: 0x0, symName: __RNvMsl_NtNtCsliVzVx4luf9_4core3str4iterINtB5_14SplitNInternalcE4nextCs4F26I76Lgqi_18build_script_build, symObjAddr: 0x2D74, symBinAddr: 0x100013A4C, symSize: 0xAC }
  - { offset: 0x2A753, size: 0x8, addend: 0x0, symName: __RINvMs3_NtCs69QEzRJvHMp_5alloc3stre7replaceNCNvCs4F26I76Lgqi_18build_script_build4main0EBJ_, symObjAddr: 0x0, symBinAddr: 0x100015EB4, symSize: 0x4D8 }
  - { offset: 0x2C8BB, size: 0x8, addend: 0x0, symName: __RNvXs2_NtNtNtCsliVzVx4luf9_4core3ops8function5implsQNCINvNtCs69QEzRJvHMp_5alloc3str17join_generic_copyehReEs_0INtB7_6FnOnceTRB1E_EE9call_onceCs4F26I76Lgqi_18build_script_build, symObjAddr: 0x3348, symBinAddr: 0x100019134, symSize: 0x2C }
  - { offset: 0x2DE9B, size: 0x8, addend: 0x0, symName: __RINvNtCs69QEzRJvHMp_5alloc7raw_vec11finish_growNtNtB4_5alloc6GlobalECs4F26I76Lgqi_18build_script_build, symObjAddr: 0x1DB8, symBinAddr: 0x100017C6C, symSize: 0x320 }
  - { offset: 0x2E361, size: 0x8, addend: 0x0, symName: __RINvNvMs0_NtCs69QEzRJvHMp_5alloc7raw_vecINtB8_6RawVecppE7reserve21do_reserve_and_handleReNtNtBa_5alloc6GlobalECs4F26I76Lgqi_18build_script_build, symObjAddr: 0x20D8, symBinAddr: 0x1000A4924, symSize: 0x64 }
  - { offset: 0x2E3D9, size: 0x8, addend: 0x0, symName: __RINvNvMs0_NtCs69QEzRJvHMp_5alloc7raw_vecINtB8_6RawVecppE7reserve21do_reserve_and_handlehNtNtBa_5alloc6GlobalECs4F26I76Lgqi_18build_script_build, symObjAddr: 0x213C, symBinAddr: 0x1000A4988, symSize: 0x64 }
  - { offset: 0x2E6EC, size: 0x8, addend: 0x0, symName: __RNvXs2_NtCs69QEzRJvHMp_5alloc7raw_vecINtB5_6RawVecINtNtB7_5boxed3BoxDINtNtNtCsliVzVx4luf9_4core3ops8function5FnMutuEp6OutputINtNtB1c_6result6ResultuNtNtNtCs6P7HZtpS3La_3std2io5error5ErrorENtNtB1c_6marker4SyncNtB32_4SendEL_EENtNtB1a_4drop4Drop4dropCs4F26I76Lgqi_18build_script_build, symObjAddr: 0x3140, symBinAddr: 0x100018F2C, symSize: 0x68 }
  - { offset: 0x2E756, size: 0x8, addend: 0x0, symName: __RNvXs2_NtCs69QEzRJvHMp_5alloc7raw_vecINtB5_6RawVecNtNtNtB7_3ffi5c_str7CStringENtNtNtCsliVzVx4luf9_4core3ops4drop4Drop4dropCs4F26I76Lgqi_18build_script_build, symObjAddr: 0x31A8, symBinAddr: 0x100018F94, symSize: 0x68 }
  - { offset: 0x2E7C0, size: 0x8, addend: 0x0, symName: __RNvXs2_NtCs69QEzRJvHMp_5alloc7raw_vecINtB5_6RawVecPaENtNtNtCsliVzVx4luf9_4core3ops4drop4Drop4dropCs4F26I76Lgqi_18build_script_build, symObjAddr: 0x3210, symBinAddr: 0x100018FFC, symSize: 0x68 }
  - { offset: 0x2E82A, size: 0x8, addend: 0x0, symName: __RNvXs2_NtCs69QEzRJvHMp_5alloc7raw_vecINtB5_6RawVecReENtNtNtCsliVzVx4luf9_4core3ops4drop4Drop4dropCs4F26I76Lgqi_18build_script_build, symObjAddr: 0x3278, symBinAddr: 0x100019064, symSize: 0x68 }
  - { offset: 0x2E894, size: 0x8, addend: 0x0, symName: __RNvXs2_NtCs69QEzRJvHMp_5alloc7raw_vecINtB5_6RawVechENtNtNtCsliVzVx4luf9_4core3ops4drop4Drop4dropCs4F26I76Lgqi_18build_script_build, symObjAddr: 0x32E0, symBinAddr: 0x1000190CC, symSize: 0x68 }
  - { offset: 0x2EBBB, size: 0x8, addend: 0x0, symName: __RINvMs3_NtCs69QEzRJvHMp_5alloc3stre7replaceNCNvCs4F26I76Lgqi_18build_script_build4main0EBJ_, symObjAddr: 0x0, symBinAddr: 0x100015EB4, symSize: 0x4D8 }
  - { offset: 0x2FBED, size: 0x8, addend: 0x0, symName: __RNCNCINvNtCs69QEzRJvHMp_5alloc3str17join_generic_copyehReE00Cs4F26I76Lgqi_18build_script_build, symObjAddr: 0x2220, symBinAddr: 0x10001800C, symSize: 0x38 }
  - { offset: 0x2FC46, size: 0x8, addend: 0x0, symName: __RNCINvNtCs69QEzRJvHMp_5alloc3str17join_generic_copyehReEs_0Cs4F26I76Lgqi_18build_script_build, symObjAddr: 0x21A0, symBinAddr: 0x100017F8C, symSize: 0x80 }
  - { offset: 0x2FD3E, size: 0x8, addend: 0x0, symName: __RINvNtCs69QEzRJvHMp_5alloc3str17join_generic_copyehReECs4F26I76Lgqi_18build_script_build, symObjAddr: 0x4D8, symBinAddr: 0x10001638C, symSize: 0x18E0 }
  - { offset: 0x31826, size: 0x8, addend: 0x0, symName: __RNvXs2_NtCs69QEzRJvHMp_5alloc3streNtNtB7_6borrow7ToOwned8to_ownedCs4F26I76Lgqi_18build_script_build, symObjAddr: 0x30F0, symBinAddr: 0x100018EDC, symSize: 0x50 }
  - { offset: 0x3192D, size: 0x8, addend: 0x0, symName: __RNvXs_NtCs69QEzRJvHMp_5alloc3strSReINtNtB6_5slice4JoinBv_E4joinCs4F26I76Lgqi_18build_script_build, symObjAddr: 0x3374, symBinAddr: 0x100019160, symSize: 0x50 }
  - { offset: 0x32C38, size: 0x8, addend: 0x0, symName: __RNvMs0_NtCs69QEzRJvHMp_5alloc7raw_vecINtB5_6RawVecINtNtB7_5boxed3BoxDINtNtNtCsliVzVx4luf9_4core3ops8function5FnMutuEp6OutputINtNtB1c_6result6ResultuNtNtNtCs6P7HZtpS3La_3std2io5error5ErrorENtNtB1c_6marker4SyncNtB32_4SendEL_EE14current_memoryCs4F26I76Lgqi_18build_script_build, symObjAddr: 0x2258, symBinAddr: 0x100018044, symSize: 0xD0 }
  - { offset: 0x32E3F, size: 0x8, addend: 0x0, symName: __RNvMs0_NtCs69QEzRJvHMp_5alloc7raw_vecINtB5_6RawVecNtNtNtB7_3ffi5c_str7CStringE14current_memoryCs4F26I76Lgqi_18build_script_build, symObjAddr: 0x2328, symBinAddr: 0x100018114, symSize: 0xD0 }
  - { offset: 0x3303C, size: 0x8, addend: 0x0, symName: __RNvMs0_NtCs69QEzRJvHMp_5alloc7raw_vecINtB5_6RawVecPaE14current_memoryCs4F26I76Lgqi_18build_script_build, symObjAddr: 0x23F8, symBinAddr: 0x1000181E4, symSize: 0xC8 }
  - { offset: 0x33218, size: 0x8, addend: 0x0, symName: __RNvMs0_NtCs69QEzRJvHMp_5alloc7raw_vecINtB5_6RawVecReE14current_memoryCs4F26I76Lgqi_18build_script_build, symObjAddr: 0x24C0, symBinAddr: 0x1000182AC, symSize: 0xD0 }
  - { offset: 0x33454, size: 0x8, addend: 0x0, symName: __RNvMs0_NtCs69QEzRJvHMp_5alloc7raw_vecINtB5_6RawVecReE15try_allocate_inCs4F26I76Lgqi_18build_script_build, symObjAddr: 0x2590, symBinAddr: 0x10001837C, symSize: 0x288 }
  - { offset: 0x3381A, size: 0x8, addend: 0x0, symName: __RNvMs0_NtCs69QEzRJvHMp_5alloc7raw_vecINtB5_6RawVechE14current_memoryCs4F26I76Lgqi_18build_script_build, symObjAddr: 0x2818, symBinAddr: 0x100018604, symSize: 0xC8 }
  - { offset: 0x33A56, size: 0x8, addend: 0x0, symName: __RNvMs0_NtCs69QEzRJvHMp_5alloc7raw_vecINtB5_6RawVechE15try_allocate_inCs4F26I76Lgqi_18build_script_build, symObjAddr: 0x28E0, symBinAddr: 0x1000186CC, symSize: 0x284 }
  - { offset: 0x33E93, size: 0x8, addend: 0x0, symName: __RNvMs1_NtCs69QEzRJvHMp_5alloc7raw_vecINtB5_6RawVecReE14grow_amortizedCs4F26I76Lgqi_18build_script_build, symObjAddr: 0x2B64, symBinAddr: 0x100018950, symSize: 0x2C8 }
  - { offset: 0x343D8, size: 0x8, addend: 0x0, symName: __RNvMs1_NtCs69QEzRJvHMp_5alloc7raw_vecINtB5_6RawVechE14grow_amortizedCs4F26I76Lgqi_18build_script_build, symObjAddr: 0x2E2C, symBinAddr: 0x100018C18, symSize: 0x2C4 }
  - { offset: 0x348EC, size: 0x8, addend: 0x0, symName: ___llvm_profile_set_timestamp, symObjAddr: 0x0, symBinAddr: 0x1000191C4, symSize: 0x28 }
  - { offset: 0x348F4, size: 0x8, addend: 0x0, symName: ___llvm_profile_global_timestamp, symObjAddr: 0x130, symBinAddr: 0x1000FC000, symSize: 0x0 }
  - { offset: 0x34909, size: 0x8, addend: 0x0, symName: ___llvm_profile_global_timestamp, symObjAddr: 0x130, symBinAddr: 0x1000FC000, symSize: 0x0 }
  - { offset: 0x3498E, size: 0x8, addend: 0x0, symName: ___llvm_profile_set_timestamp, symObjAddr: 0x0, symBinAddr: 0x1000191C4, symSize: 0x28 }
  - { offset: 0x34996, size: 0x8, addend: 0x0, symName: ___llvm_profile_get_magic, symObjAddr: 0x28, symBinAddr: 0x1000191EC, symSize: 0x14 }
  - { offset: 0x349B9, size: 0x8, addend: 0x0, symName: ___llvm_profile_get_magic, symObjAddr: 0x28, symBinAddr: 0x1000191EC, symSize: 0x14 }
  - { offset: 0x349C1, size: 0x8, addend: 0x0, symName: ___llvm_profile_set_dumped, symObjAddr: 0x3C, symBinAddr: 0x100019200, symSize: 0x8 }
  - { offset: 0x349DA, size: 0x8, addend: 0x0, symName: ___llvm_profile_set_dumped, symObjAddr: 0x3C, symBinAddr: 0x100019200, symSize: 0x8 }
  - { offset: 0x349E2, size: 0x8, addend: 0x0, symName: ___llvm_profile_get_num_padding_bytes, symObjAddr: 0x44, symBinAddr: 0x100019208, symSize: 0xC }
  - { offset: 0x349F6, size: 0x8, addend: 0x0, symName: ___llvm_profile_get_num_padding_bytes, symObjAddr: 0x44, symBinAddr: 0x100019208, symSize: 0xC }
  - { offset: 0x349FE, size: 0x8, addend: 0x0, symName: ___llvm_profile_get_version, symObjAddr: 0x50, symBinAddr: 0x100019214, symSize: 0x10 }
  - { offset: 0x34A27, size: 0x8, addend: 0x0, symName: ___llvm_profile_get_version, symObjAddr: 0x50, symBinAddr: 0x100019214, symSize: 0x10 }
  - { offset: 0x34A2F, size: 0x8, addend: 0x0, symName: ___llvm_profile_reset_counters, symObjAddr: 0x60, symBinAddr: 0x100019224, symSize: 0xD0 }
  - { offset: 0x34A4E, size: 0x8, addend: 0x0, symName: ___llvm_profile_reset_counters, symObjAddr: 0x60, symBinAddr: 0x100019224, symSize: 0xD0 }
  - { offset: 0x34A56, size: 0x8, addend: 0x0, symName: ___llvm_profile_global_timestamp, symObjAddr: 0x130, symBinAddr: 0x1000FC000, symSize: 0x0 }
  - { offset: 0x34C8D, size: 0x8, addend: 0x0, symName: ___llvm_profile_is_continuous_mode_enabled, symObjAddr: 0x0, symBinAddr: 0x1000192F4, symSize: 0x20 }
  - { offset: 0x34CAA, size: 0x8, addend: 0x0, symName: __MergedGlobals, symObjAddr: 0x3724, symBinAddr: 0x1001031C8, symSize: 0x0 }
  - { offset: 0x34CCC, size: 0x8, addend: 0x0, symName: __MergedGlobals, symObjAddr: 0x3724, symBinAddr: 0x1001031C8, symSize: 0x0 }
  - { offset: 0x34CFB, size: 0x8, addend: 0x0, symName: ___llvm_profile_is_continuous_mode_enabled, symObjAddr: 0x0, symBinAddr: 0x1000192F4, symSize: 0x20 }
  - { offset: 0x34D03, size: 0x8, addend: 0x0, symName: ___llvm_profile_enable_continuous_mode, symObjAddr: 0x20, symBinAddr: 0x100019314, symSize: 0x10 }
  - { offset: 0x34D13, size: 0x8, addend: 0x0, symName: ___llvm_profile_enable_continuous_mode, symObjAddr: 0x20, symBinAddr: 0x100019314, symSize: 0x10 }
  - { offset: 0x34D1B, size: 0x8, addend: 0x0, symName: ___llvm_profile_disable_continuous_mode, symObjAddr: 0x30, symBinAddr: 0x100019324, symSize: 0xC }
  - { offset: 0x34D30, size: 0x8, addend: 0x0, symName: ___llvm_profile_disable_continuous_mode, symObjAddr: 0x30, symBinAddr: 0x100019324, symSize: 0xC }
  - { offset: 0x34D38, size: 0x8, addend: 0x0, symName: ___llvm_profile_set_page_size, symObjAddr: 0x3C, symBinAddr: 0x100019330, symSize: 0xC }
  - { offset: 0x34D4D, size: 0x8, addend: 0x0, symName: ___llvm_profile_set_page_size, symObjAddr: 0x3C, symBinAddr: 0x100019330, symSize: 0xC }
  - { offset: 0x34D55, size: 0x8, addend: 0x0, symName: ___llvm_profile_get_size_for_buffer, symObjAddr: 0x48, symBinAddr: 0x10001933C, symSize: 0x88 }
  - { offset: 0x34D78, size: 0x8, addend: 0x0, symName: ___llvm_profile_get_size_for_buffer, symObjAddr: 0x48, symBinAddr: 0x10001933C, symSize: 0x88 }
  - { offset: 0x34D80, size: 0x8, addend: 0x0, symName: ___llvm_profile_get_size_for_buffer_internal, symObjAddr: 0xD0, symBinAddr: 0x1000193C4, symSize: 0x160 }
  - { offset: 0x350E3, size: 0x8, addend: 0x0, symName: ___llvm_profile_get_size_for_buffer_internal, symObjAddr: 0xD0, symBinAddr: 0x1000193C4, symSize: 0x160 }
  - { offset: 0x350EB, size: 0x8, addend: 0x0, symName: ___llvm_profile_get_num_data, symObjAddr: 0x230, symBinAddr: 0x100019524, symSize: 0x10 }
  - { offset: 0x35420, size: 0x8, addend: 0x0, symName: ___llvm_profile_get_num_data, symObjAddr: 0x230, symBinAddr: 0x100019524, symSize: 0x10 }
  - { offset: 0x35428, size: 0x8, addend: 0x0, symName: ___llvm_profile_get_data_size, symObjAddr: 0x240, symBinAddr: 0x100019534, symSize: 0x10 }
  - { offset: 0x35459, size: 0x8, addend: 0x0, symName: ___llvm_profile_get_data_size, symObjAddr: 0x240, symBinAddr: 0x100019534, symSize: 0x10 }
  - { offset: 0x35461, size: 0x8, addend: 0x0, symName: ___llvm_profile_counter_entry_size, symObjAddr: 0x250, symBinAddr: 0x100019544, symSize: 0x1C }
  - { offset: 0x35485, size: 0x8, addend: 0x0, symName: ___llvm_profile_get_data_size, symObjAddr: 0x240, symBinAddr: 0x100019534, symSize: 0x10 }
  - { offset: 0x354B7, size: 0x8, addend: 0x0, symName: ___llvm_profile_counter_entry_size, symObjAddr: 0x250, symBinAddr: 0x100019544, symSize: 0x1C }
  - { offset: 0x354BF, size: 0x8, addend: 0x0, symName: ___llvm_profile_get_num_counters, symObjAddr: 0x26C, symBinAddr: 0x100019560, symSize: 0x48 }
  - { offset: 0x354CF, size: 0x8, addend: 0x0, symName: ___llvm_profile_get_num_counters, symObjAddr: 0x26C, symBinAddr: 0x100019560, symSize: 0x48 }
  - { offset: 0x354D7, size: 0x8, addend: 0x0, symName: ___llvm_profile_get_counters_size, symObjAddr: 0x2B4, symBinAddr: 0x1000195A8, symSize: 0x5C }
  - { offset: 0x3553C, size: 0x8, addend: 0x0, symName: ___llvm_profile_get_counters_size, symObjAddr: 0x2B4, symBinAddr: 0x1000195A8, symSize: 0x5C }
  - { offset: 0x35544, size: 0x8, addend: 0x0, symName: ___llvm_profile_get_num_bitmap_bytes, symObjAddr: 0x310, symBinAddr: 0x100019604, symSize: 0x8 }
  - { offset: 0x355E8, size: 0x8, addend: 0x0, symName: ___llvm_profile_get_num_bitmap_bytes, symObjAddr: 0x310, symBinAddr: 0x100019604, symSize: 0x8 }
  - { offset: 0x355F0, size: 0x8, addend: 0x0, symName: ___llvm_profile_get_name_size, symObjAddr: 0x318, symBinAddr: 0x10001960C, symSize: 0x8 }
  - { offset: 0x35611, size: 0x8, addend: 0x0, symName: ___llvm_profile_get_name_size, symObjAddr: 0x318, symBinAddr: 0x10001960C, symSize: 0x8 }
  - { offset: 0x35619, size: 0x8, addend: 0x0, symName: ___llvm_profile_get_padding_sizes_for_counters, symObjAddr: 0x320, symBinAddr: 0x100019614, symSize: 0x100 }
  - { offset: 0x3564F, size: 0x8, addend: 0x0, symName: ___llvm_profile_get_padding_sizes_for_counters, symObjAddr: 0x320, symBinAddr: 0x100019614, symSize: 0x100 }
  - { offset: 0x35657, size: 0x8, addend: 0x0, symName: _initBufferWriter, symObjAddr: 0x420, symBinAddr: 0x100019714, symSize: 0x10 }
  - { offset: 0x35787, size: 0x8, addend: 0x0, symName: _initBufferWriter, symObjAddr: 0x420, symBinAddr: 0x100019714, symSize: 0x10 }
  - { offset: 0x3578F, size: 0x8, addend: 0x0, symName: ___llvm_profile_write_buffer, symObjAddr: 0x430, symBinAddr: 0x100019724, symSize: 0x30 }
  - { offset: 0x3588C, size: 0x8, addend: 0x0, symName: ___llvm_profile_write_buffer, symObjAddr: 0x430, symBinAddr: 0x100019724, symSize: 0x30 }
  - { offset: 0x35894, size: 0x8, addend: 0x0, symName: ___llvm_profile_write_buffer_internal, symObjAddr: 0x460, symBinAddr: 0x100019754, symSize: 0x38 }
  - { offset: 0x358F2, size: 0x8, addend: 0x0, symName: ___llvm_profile_write_buffer_internal, symObjAddr: 0x460, symBinAddr: 0x100019754, symSize: 0x38 }
  - { offset: 0x359F5, size: 0x8, addend: 0x0, symName: _lprofCreateBufferIOInternal, symObjAddr: 0x0, symBinAddr: 0x10001978C, symSize: 0x74 }
  - { offset: 0x35A06, size: 0x8, addend: 0x0, symName: ___llvm_profile_register_write_file_atexit, symObjAddr: 0xBE8, symBinAddr: 0x10001A374, symSize: 0x44 }
  - { offset: 0x35A0E, size: 0x8, addend: 0x0, symName: ___llvm_profile_set_filename, symObjAddr: 0xC2C, symBinAddr: 0x10001A3B8, symSize: 0x38 }
  - { offset: 0x35A2B, size: 0x8, addend: 0x0, symName: ___llvm_profile_register_write_file_atexit.HasBeenRegistered, symObjAddr: 0x9CD8, symBinAddr: 0x1001031D0, symSize: 0x0 }
  - { offset: 0x35A4E, size: 0x8, addend: 0x0, symName: __MergedGlobals, symObjAddr: 0x9CE0, symBinAddr: 0x1001031D8, symSize: 0x0 }
  - { offset: 0x35B79, size: 0x8, addend: 0x0, symName: __MergedGlobals, symObjAddr: 0x9CE0, symBinAddr: 0x1001031D8, symSize: 0x0 }
  - { offset: 0x35DAA, size: 0x8, addend: 0x0, symName: __MergedGlobals, symObjAddr: 0x9CE0, symBinAddr: 0x1001031D8, symSize: 0x0 }
  - { offset: 0x35EE1, size: 0x8, addend: 0x0, symName: _lprofCreateBufferIOInternal, symObjAddr: 0x0, symBinAddr: 0x10001978C, symSize: 0x74 }
  - { offset: 0x35EE9, size: 0x8, addend: 0x0, symName: ___llvm_profile_get_path_prefix, symObjAddr: 0x74, symBinAddr: 0x100019800, symSize: 0x154 }
  - { offset: 0x35F72, size: 0x8, addend: 0x0, symName: ___llvm_profile_get_path_prefix, symObjAddr: 0x74, symBinAddr: 0x100019800, symSize: 0x154 }
  - { offset: 0x35F7A, size: 0x8, addend: 0x0, symName: _getCurFilenameLength, symObjAddr: 0x1C8, symBinAddr: 0x100019954, symSize: 0x108 }
  - { offset: 0x35FEA, size: 0x8, addend: 0x0, symName: _getCurFilenameLength, symObjAddr: 0x1C8, symBinAddr: 0x100019954, symSize: 0x108 }
  - { offset: 0x35FF2, size: 0x8, addend: 0x0, symName: _getCurFilename, symObjAddr: 0x2D0, symBinAddr: 0x100019A5C, symSize: 0x2B4 }
  - { offset: 0x36072, size: 0x8, addend: 0x0, symName: _getCurFilename, symObjAddr: 0x2D0, symBinAddr: 0x100019A5C, symSize: 0x2B4 }
  - { offset: 0x3607A, size: 0x8, addend: 0x0, symName: ___llvm_profile_get_filename, symObjAddr: 0x584, symBinAddr: 0x100019D10, symSize: 0x88 }
  - { offset: 0x361BC, size: 0x8, addend: 0x0, symName: ___llvm_profile_get_filename, symObjAddr: 0x584, symBinAddr: 0x100019D10, symSize: 0x88 }
  - { offset: 0x361C4, size: 0x8, addend: 0x0, symName: ___llvm_profile_initialize_file, symObjAddr: 0x60C, symBinAddr: 0x100019D98, symSize: 0x78 }
  - { offset: 0x3622E, size: 0x8, addend: 0x0, symName: ___llvm_profile_initialize_file, symObjAddr: 0x60C, symBinAddr: 0x100019D98, symSize: 0x78 }
  - { offset: 0x36236, size: 0x8, addend: 0x0, symName: _parseAndSetFilename, symObjAddr: 0x684, symBinAddr: 0x100019E10, symSize: 0x4AC }
  - { offset: 0x36367, size: 0x8, addend: 0x0, symName: _parseAndSetFilename, symObjAddr: 0x684, symBinAddr: 0x100019E10, symSize: 0x4AC }
  - { offset: 0x3636F, size: 0x8, addend: 0x0, symName: ___llvm_profile_initialize, symObjAddr: 0xB30, symBinAddr: 0x10001A2BC, symSize: 0xB8 }
  - { offset: 0x36563, size: 0x8, addend: 0x0, symName: ___llvm_profile_initialize, symObjAddr: 0xB30, symBinAddr: 0x10001A2BC, symSize: 0xB8 }
  - { offset: 0x3656B, size: 0x8, addend: 0x0, symName: ___llvm_profile_register_write_file_atexit, symObjAddr: 0xBE8, symBinAddr: 0x10001A374, symSize: 0x44 }
  - { offset: 0x365DF, size: 0x8, addend: 0x0, symName: ___llvm_profile_set_filename, symObjAddr: 0xC2C, symBinAddr: 0x10001A3B8, symSize: 0x38 }
  - { offset: 0x365E7, size: 0x8, addend: 0x0, symName: ___llvm_profile_write_file, symObjAddr: 0xC64, symBinAddr: 0x10001A3F0, symSize: 0x1B4 }
  - { offset: 0x36610, size: 0x8, addend: 0x0, symName: ___llvm_profile_write_file, symObjAddr: 0xC64, symBinAddr: 0x10001A3F0, symSize: 0x1B4 }
  - { offset: 0x36618, size: 0x8, addend: 0x0, symName: _writeFile, symObjAddr: 0xE18, symBinAddr: 0x10001A5A4, symSize: 0x294 }
  - { offset: 0x3676D, size: 0x8, addend: 0x0, symName: _writeFile, symObjAddr: 0xE18, symBinAddr: 0x10001A5A4, symSize: 0x294 }
  - { offset: 0x36775, size: 0x8, addend: 0x0, symName: ___llvm_profile_dump, symObjAddr: 0x10AC, symBinAddr: 0x10001A838, symSize: 0x6C }
  - { offset: 0x368DB, size: 0x8, addend: 0x0, symName: ___llvm_profile_dump, symObjAddr: 0x10AC, symBinAddr: 0x10001A838, symSize: 0x6C }
  - { offset: 0x368E3, size: 0x8, addend: 0x0, symName: ___llvm_orderfile_write_file, symObjAddr: 0x1118, symBinAddr: 0x10001A8A4, symSize: 0x260 }
  - { offset: 0x3699E, size: 0x8, addend: 0x0, symName: ___llvm_orderfile_write_file, symObjAddr: 0x1118, symBinAddr: 0x10001A8A4, symSize: 0x260 }
  - { offset: 0x369A6, size: 0x8, addend: 0x0, symName: ___llvm_orderfile_dump, symObjAddr: 0x1378, symBinAddr: 0x10001AB04, symSize: 0x4 }
  - { offset: 0x36AA3, size: 0x8, addend: 0x0, symName: ___llvm_orderfile_dump, symObjAddr: 0x1378, symBinAddr: 0x10001AB04, symSize: 0x4 }
  - { offset: 0x36AAB, size: 0x8, addend: 0x0, symName: _writeFileWithoutReturn, symObjAddr: 0x137C, symBinAddr: 0x10001AB08, symSize: 0x4 }
  - { offset: 0x36AD3, size: 0x8, addend: 0x0, symName: _writeFileWithoutReturn, symObjAddr: 0x137C, symBinAddr: 0x10001AB08, symSize: 0x4 }
  - { offset: 0x36ADB, size: 0x8, addend: 0x0, symName: ___llvm_profile_set_file_object, symObjAddr: 0x1380, symBinAddr: 0x10001AB0C, symSize: 0x1E4 }
  - { offset: 0x36B23, size: 0x8, addend: 0x0, symName: ___llvm_profile_set_file_object, symObjAddr: 0x1380, symBinAddr: 0x10001AB0C, symSize: 0x1E4 }
  - { offset: 0x36B2B, size: 0x8, addend: 0x0, symName: _getProfileFileSizeForMerging, symObjAddr: 0x1564, symBinAddr: 0x10001ACF0, symSize: 0x110 }
  - { offset: 0x36C4A, size: 0x8, addend: 0x0, symName: _getProfileFileSizeForMerging, symObjAddr: 0x1564, symBinAddr: 0x10001ACF0, symSize: 0x110 }
  - { offset: 0x36C52, size: 0x8, addend: 0x0, symName: _mmapProfileForMerging, symObjAddr: 0x1674, symBinAddr: 0x10001AE00, symSize: 0xBC }
  - { offset: 0x36C8F, size: 0x8, addend: 0x0, symName: _mmapProfileForMerging, symObjAddr: 0x1674, symBinAddr: 0x10001AE00, symSize: 0xBC }
  - { offset: 0x36C97, size: 0x8, addend: 0x0, symName: _mmapForContinuousMode, symObjAddr: 0x1730, symBinAddr: 0x10001AEBC, symSize: 0x250 }
  - { offset: 0x36CE5, size: 0x8, addend: 0x0, symName: _mmapForContinuousMode, symObjAddr: 0x1730, symBinAddr: 0x10001AEBC, symSize: 0x250 }
  - { offset: 0x36CED, size: 0x8, addend: 0x0, symName: _fileWriter, symObjAddr: 0x1980, symBinAddr: 0x10001B10C, symSize: 0x100 }
  - { offset: 0x36E8D, size: 0x8, addend: 0x0, symName: _fileWriter, symObjAddr: 0x1980, symBinAddr: 0x10001B10C, symSize: 0x100 }
  - { offset: 0x36E95, size: 0x8, addend: 0x0, symName: _truncateCurrentFile, symObjAddr: 0x1A80, symBinAddr: 0x10001B20C, symSize: 0xD8 }
  - { offset: 0x36F5C, size: 0x8, addend: 0x0, symName: _truncateCurrentFile, symObjAddr: 0x1A80, symBinAddr: 0x10001B20C, symSize: 0xD8 }
  - { offset: 0x36F64, size: 0x8, addend: 0x0, symName: _initializeProfileForContinuousMode, symObjAddr: 0x1B58, symBinAddr: 0x10001B2E4, symSize: 0x25C }
  - { offset: 0x37000, size: 0x8, addend: 0x0, symName: _initializeProfileForContinuousMode, symObjAddr: 0x1B58, symBinAddr: 0x10001B2E4, symSize: 0x25C }
  - { offset: 0x37008, size: 0x8, addend: 0x0, symName: _createProfileDir, symObjAddr: 0x1DB4, symBinAddr: 0x10001B540, symSize: 0xA4 }
  - { offset: 0x371D4, size: 0x8, addend: 0x0, symName: _createProfileDir, symObjAddr: 0x1DB4, symBinAddr: 0x10001B540, symSize: 0xA4 }
  - { offset: 0x371DC, size: 0x8, addend: 0x0, symName: _parseAndSetFilename.cold.1, symObjAddr: 0x1E58, symBinAddr: 0x1000A49EC, symSize: 0x24 }
  - { offset: 0x37238, size: 0x8, addend: 0x0, symName: _parseAndSetFilename.cold.1, symObjAddr: 0x1E58, symBinAddr: 0x1000A49EC, symSize: 0x24 }
  - { offset: 0x37240, size: 0x8, addend: 0x0, symName: _parseAndSetFilename.cold.2, symObjAddr: 0x1E7C, symBinAddr: 0x1000A4A10, symSize: 0x24 }
  - { offset: 0x37256, size: 0x8, addend: 0x0, symName: _parseAndSetFilename.cold.2, symObjAddr: 0x1E7C, symBinAddr: 0x1000A4A10, symSize: 0x24 }
  - { offset: 0x373F0, size: 0x8, addend: 0x0, symName: _lprofGetLoadModuleSignature, symObjAddr: 0x0, symBinAddr: 0x10001B5E4, symSize: 0xD0 }
  - { offset: 0x3740F, size: 0x8, addend: 0x0, symName: _VPMergeHook, symBinAddr: 0x100103150, symSize: 0x0 }
  - { offset: 0x37665, size: 0x8, addend: 0x0, symName: _lprofGetLoadModuleSignature, symObjAddr: 0x0, symBinAddr: 0x10001B5E4, symSize: 0xD0 }
  - { offset: 0x3766D, size: 0x8, addend: 0x0, symName: ___llvm_profile_check_compatibility, symObjAddr: 0xD0, symBinAddr: 0x10001B6B4, symSize: 0x1CC }
  - { offset: 0x376DC, size: 0x8, addend: 0x0, symName: ___llvm_profile_check_compatibility, symObjAddr: 0xD0, symBinAddr: 0x10001B6B4, symSize: 0x1CC }
  - { offset: 0x376E4, size: 0x8, addend: 0x0, symName: ___llvm_profile_merge_from_buffer, symObjAddr: 0x29C, symBinAddr: 0x10001B880, symSize: 0x3FC }
  - { offset: 0x37767, size: 0x8, addend: 0x0, symName: ___llvm_profile_merge_from_buffer, symObjAddr: 0x29C, symBinAddr: 0x10001B880, symSize: 0x3FC }
  - { offset: 0x37999, size: 0x8, addend: 0x0, symName: _lprofMergeValueProfData, symObjAddr: 0x0, symBinAddr: 0x10001BC7C, symSize: 0xE0 }
  - { offset: 0x379AA, size: 0x8, addend: 0x0, symName: _lprofMergeValueProfData, symObjAddr: 0x0, symBinAddr: 0x10001BC7C, symSize: 0xE0 }
  - { offset: 0x37C75, size: 0x8, addend: 0x0, symName: ___llvm_profile_begin_data, symObjAddr: 0x0, symBinAddr: 0x10001BD5C, symSize: 0xC }
  - { offset: 0x37C94, size: 0x8, addend: 0x0, symName: _CurrentVNode, symObjAddr: 0x90, symBinAddr: 0x1000FC008, symSize: 0x0 }
  - { offset: 0x37D10, size: 0x8, addend: 0x0, symName: _EndVNode, symObjAddr: 0x98, symBinAddr: 0x1000FC010, symSize: 0x0 }
  - { offset: 0x37D19, size: 0x8, addend: 0x0, symName: ___llvm_profile_begin_data, symObjAddr: 0x0, symBinAddr: 0x10001BD5C, symSize: 0xC }
  - { offset: 0x37D21, size: 0x8, addend: 0x0, symName: ___llvm_profile_end_data, symObjAddr: 0xC, symBinAddr: 0x10001BD68, symSize: 0xC }
  - { offset: 0x37D3A, size: 0x8, addend: 0x0, symName: ___llvm_profile_end_data, symObjAddr: 0xC, symBinAddr: 0x10001BD68, symSize: 0xC }
  - { offset: 0x37D42, size: 0x8, addend: 0x0, symName: ___llvm_profile_begin_names, symObjAddr: 0x18, symBinAddr: 0x10001BD74, symSize: 0xC }
  - { offset: 0x37D5B, size: 0x8, addend: 0x0, symName: ___llvm_profile_begin_names, symObjAddr: 0x18, symBinAddr: 0x10001BD74, symSize: 0xC }
  - { offset: 0x37D63, size: 0x8, addend: 0x0, symName: ___llvm_profile_end_names, symObjAddr: 0x24, symBinAddr: 0x10001BD80, symSize: 0xC }
  - { offset: 0x37D7C, size: 0x8, addend: 0x0, symName: ___llvm_profile_end_names, symObjAddr: 0x24, symBinAddr: 0x10001BD80, symSize: 0xC }
  - { offset: 0x37D84, size: 0x8, addend: 0x0, symName: ___llvm_profile_begin_counters, symObjAddr: 0x30, symBinAddr: 0x10001BD8C, symSize: 0xC }
  - { offset: 0x37D9D, size: 0x8, addend: 0x0, symName: ___llvm_profile_begin_counters, symObjAddr: 0x30, symBinAddr: 0x10001BD8C, symSize: 0xC }
  - { offset: 0x37DA5, size: 0x8, addend: 0x0, symName: ___llvm_profile_end_counters, symObjAddr: 0x3C, symBinAddr: 0x10001BD98, symSize: 0xC }
  - { offset: 0x37DBE, size: 0x8, addend: 0x0, symName: ___llvm_profile_end_counters, symObjAddr: 0x3C, symBinAddr: 0x10001BD98, symSize: 0xC }
  - { offset: 0x37DC6, size: 0x8, addend: 0x0, symName: ___llvm_profile_begin_bitmap, symObjAddr: 0x48, symBinAddr: 0x10001BDA4, symSize: 0xC }
  - { offset: 0x37DDF, size: 0x8, addend: 0x0, symName: ___llvm_profile_begin_bitmap, symObjAddr: 0x48, symBinAddr: 0x10001BDA4, symSize: 0xC }
  - { offset: 0x37DE7, size: 0x8, addend: 0x0, symName: ___llvm_profile_end_bitmap, symObjAddr: 0x54, symBinAddr: 0x10001BDB0, symSize: 0xC }
  - { offset: 0x37E00, size: 0x8, addend: 0x0, symName: ___llvm_profile_end_bitmap, symObjAddr: 0x54, symBinAddr: 0x10001BDB0, symSize: 0xC }
  - { offset: 0x37E08, size: 0x8, addend: 0x0, symName: ___llvm_profile_begin_orderfile, symObjAddr: 0x60, symBinAddr: 0x10001BDBC, symSize: 0xC }
  - { offset: 0x37E22, size: 0x8, addend: 0x0, symName: ___llvm_profile_begin_orderfile, symObjAddr: 0x60, symBinAddr: 0x10001BDBC, symSize: 0xC }
  - { offset: 0x37E2A, size: 0x8, addend: 0x0, symName: ___llvm_profile_begin_vnodes, symObjAddr: 0x6C, symBinAddr: 0x10001BDC8, symSize: 0xC }
  - { offset: 0x37E43, size: 0x8, addend: 0x0, symName: ___llvm_profile_begin_vnodes, symObjAddr: 0x6C, symBinAddr: 0x10001BDC8, symSize: 0xC }
  - { offset: 0x37E4B, size: 0x8, addend: 0x0, symName: ___llvm_profile_end_vnodes, symObjAddr: 0x78, symBinAddr: 0x10001BDD4, symSize: 0xC }
  - { offset: 0x37E64, size: 0x8, addend: 0x0, symName: ___llvm_profile_end_vnodes, symObjAddr: 0x78, symBinAddr: 0x10001BDD4, symSize: 0xC }
  - { offset: 0x37E6C, size: 0x8, addend: 0x0, symName: ___llvm_write_binary_ids, symObjAddr: 0x84, symBinAddr: 0x10001BDE0, symSize: 0x8 }
  - { offset: 0x37E84, size: 0x8, addend: 0x0, symName: ___llvm_write_binary_ids, symObjAddr: 0x84, symBinAddr: 0x10001BDE0, symSize: 0x8 }
  - { offset: 0x380DA, size: 0x8, addend: 0x0, symName: ___llvm_profile_runtime, symObjAddr: 0x548, symBinAddr: 0x100103158, symSize: 0x0 }
  - { offset: 0x38111, size: 0x8, addend: 0x0, symName: ___llvm_profile_recursive_mkdir, symObjAddr: 0x0, symBinAddr: 0x10001BE00, symSize: 0x58 }
  - { offset: 0x38119, size: 0x8, addend: 0x0, symName: _lprofDirMode, symObjAddr: 0x5A8, symBinAddr: 0x1000FC018, symSize: 0x0 }
  - { offset: 0x38130, size: 0x8, addend: 0x0, symName: _lprofDirMode, symObjAddr: 0x5A8, symBinAddr: 0x1000FC018, symSize: 0x0 }
  - { offset: 0x38162, size: 0x8, addend: 0x0, symName: ___llvm_profile_recursive_mkdir, symObjAddr: 0x0, symBinAddr: 0x10001BE00, symSize: 0x58 }
  - { offset: 0x3816A, size: 0x8, addend: 0x0, symName: ___llvm_profile_get_dir_mode, symObjAddr: 0x58, symBinAddr: 0x10001BE58, symSize: 0xC }
  - { offset: 0x381E0, size: 0x8, addend: 0x0, symName: ___llvm_profile_get_dir_mode, symObjAddr: 0x58, symBinAddr: 0x10001BE58, symSize: 0xC }
  - { offset: 0x381E8, size: 0x8, addend: 0x0, symName: ___llvm_profile_set_dir_mode, symObjAddr: 0x64, symBinAddr: 0x10001BE64, symSize: 0xC }
  - { offset: 0x381F8, size: 0x8, addend: 0x0, symName: ___llvm_profile_set_dir_mode, symObjAddr: 0x64, symBinAddr: 0x10001BE64, symSize: 0xC }
  - { offset: 0x38200, size: 0x8, addend: 0x0, symName: _lprofGetHostName, symObjAddr: 0x70, symBinAddr: 0x10001BE70, symSize: 0x80 }
  - { offset: 0x38223, size: 0x8, addend: 0x0, symName: _lprofGetHostName, symObjAddr: 0x70, symBinAddr: 0x10001BE70, symSize: 0x80 }
  - { offset: 0x3822B, size: 0x8, addend: 0x0, symName: _lprofLockFd, symObjAddr: 0xF0, symBinAddr: 0x10001BEF0, symSize: 0x8C }
  - { offset: 0x38280, size: 0x8, addend: 0x0, symName: _lprofLockFd, symObjAddr: 0xF0, symBinAddr: 0x10001BEF0, symSize: 0x8C }
  - { offset: 0x38288, size: 0x8, addend: 0x0, symName: _lprofUnlockFd, symObjAddr: 0x17C, symBinAddr: 0x10001BF7C, symSize: 0x8C }
  - { offset: 0x382AA, size: 0x8, addend: 0x0, symName: _lprofUnlockFd, symObjAddr: 0x17C, symBinAddr: 0x10001BF7C, symSize: 0x8C }
  - { offset: 0x382B2, size: 0x8, addend: 0x0, symName: _lprofLockFileHandle, symObjAddr: 0x208, symBinAddr: 0x10001C008, symSize: 0x90 }
  - { offset: 0x383AC, size: 0x8, addend: 0x0, symName: _lprofLockFileHandle, symObjAddr: 0x208, symBinAddr: 0x10001C008, symSize: 0x90 }
  - { offset: 0x383B4, size: 0x8, addend: 0x0, symName: _lprofUnlockFileHandle, symObjAddr: 0x298, symBinAddr: 0x10001C098, symSize: 0x90 }
  - { offset: 0x3843A, size: 0x8, addend: 0x0, symName: _lprofUnlockFileHandle, symObjAddr: 0x298, symBinAddr: 0x10001C098, symSize: 0x90 }
  - { offset: 0x38442, size: 0x8, addend: 0x0, symName: _lprofOpenFileEx, symObjAddr: 0x328, symBinAddr: 0x10001C128, symSize: 0xD0 }
  - { offset: 0x384A2, size: 0x8, addend: 0x0, symName: _lprofOpenFileEx, symObjAddr: 0x328, symBinAddr: 0x10001C128, symSize: 0xD0 }
  - { offset: 0x384AA, size: 0x8, addend: 0x0, symName: _lprofGetPathPrefix, symObjAddr: 0x3F8, symBinAddr: 0x10001C1F8, symSize: 0x98 }
  - { offset: 0x38519, size: 0x8, addend: 0x0, symName: _lprofGetPathPrefix, symObjAddr: 0x3F8, symBinAddr: 0x10001C1F8, symSize: 0x98 }
  - { offset: 0x38521, size: 0x8, addend: 0x0, symName: _lprofApplyPathPrefix, symObjAddr: 0x490, symBinAddr: 0x10001C290, symSize: 0xA8 }
  - { offset: 0x3857E, size: 0x8, addend: 0x0, symName: _lprofApplyPathPrefix, symObjAddr: 0x490, symBinAddr: 0x10001C290, symSize: 0xA8 }
  - { offset: 0x38586, size: 0x8, addend: 0x0, symName: _lprofFindFirstDirSeparator, symObjAddr: 0x538, symBinAddr: 0x10001C338, symSize: 0x8 }
  - { offset: 0x38621, size: 0x8, addend: 0x0, symName: _lprofFindFirstDirSeparator, symObjAddr: 0x538, symBinAddr: 0x10001C338, symSize: 0x8 }
  - { offset: 0x38629, size: 0x8, addend: 0x0, symName: _lprofFindLastDirSeparator, symObjAddr: 0x540, symBinAddr: 0x10001C340, symSize: 0x8 }
  - { offset: 0x38660, size: 0x8, addend: 0x0, symName: _lprofFindLastDirSeparator, symObjAddr: 0x540, symBinAddr: 0x10001C340, symSize: 0x8 }
  - { offset: 0x38668, size: 0x8, addend: 0x0, symName: _lprofSuspendSigKill, symObjAddr: 0x548, symBinAddr: 0x10001C348, symSize: 0x8 }
  - { offset: 0x3869F, size: 0x8, addend: 0x0, symName: _lprofSuspendSigKill, symObjAddr: 0x548, symBinAddr: 0x10001C348, symSize: 0x8 }
  - { offset: 0x386A7, size: 0x8, addend: 0x0, symName: _lprofRestoreSigKill, symObjAddr: 0x550, symBinAddr: 0x10001C350, symSize: 0x4 }
  - { offset: 0x386C1, size: 0x8, addend: 0x0, symName: _lprofRestoreSigKill, symObjAddr: 0x550, symBinAddr: 0x10001C350, symSize: 0x4 }
  - { offset: 0x386C9, size: 0x8, addend: 0x0, symName: _lprofReleaseMemoryPagesToOS, symObjAddr: 0x554, symBinAddr: 0x10001C354, symSize: 0x54 }
  - { offset: 0x3873F, size: 0x8, addend: 0x0, symName: _lprofReleaseMemoryPagesToOS, symObjAddr: 0x554, symBinAddr: 0x10001C354, symSize: 0x54 }
  - { offset: 0x38747, size: 0x8, addend: 0x0, symName: _lprofDirMode, symObjAddr: 0x5A8, symBinAddr: 0x1000FC018, symSize: 0x0 }
  - { offset: 0x38AAA, size: 0x8, addend: 0x0, symName: _getValueProfRecordHeaderSize, symObjAddr: 0x0, symBinAddr: 0x10001C3A8, symSize: 0xC }
  - { offset: 0x38AC9, size: 0x8, addend: 0x0, symName: _VPMaxNumValsPerSite, symObjAddr: 0x13F0, symBinAddr: 0x1000FC020, symSize: 0x0 }
  - { offset: 0x38AF2, size: 0x8, addend: 0x0, symName: _lprofValueProfNodes, symObjAddr: 0x1570, symBinAddr: 0x1000FCF88, symSize: 0x0 }
  - { offset: 0x38B7C, size: 0x8, addend: 0x0, symName: __MergedGlobals, symObjAddr: 0xE1C8, symBinAddr: 0x1001032C8, symSize: 0x0 }
  - { offset: 0x38B9E, size: 0x8, addend: 0x0, symName: __MergedGlobals, symObjAddr: 0xE1C8, symBinAddr: 0x1001032C8, symSize: 0x0 }
  - { offset: 0x38BB5, size: 0x8, addend: 0x0, symName: __MergedGlobals, symObjAddr: 0xE1C8, symBinAddr: 0x1001032C8, symSize: 0x0 }
  - { offset: 0x38BD4, size: 0x8, addend: 0x0, symName: _TheVPDataReader, symObjAddr: 0x13F8, symBinAddr: 0x1000FC028, symSize: 0x0 }
  - { offset: 0x38E74, size: 0x8, addend: 0x0, symName: _RTRecord, symObjAddr: 0xE1A8, symBinAddr: 0x1001032A8, symSize: 0x0 }
  - { offset: 0x3906F, size: 0x8, addend: 0x0, symName: _getValueProfRecordHeaderSize, symObjAddr: 0x0, symBinAddr: 0x10001C3A8, symSize: 0xC }
  - { offset: 0x39077, size: 0x8, addend: 0x0, symName: _getValueProfRecordSize, symObjAddr: 0xC, symBinAddr: 0x10001C3B4, symSize: 0x10 }
  - { offset: 0x390C4, size: 0x8, addend: 0x0, symName: _getValueProfRecordSize, symObjAddr: 0xC, symBinAddr: 0x10001C3B4, symSize: 0x10 }
  - { offset: 0x390CC, size: 0x8, addend: 0x0, symName: _getValueProfRecordValueData, symObjAddr: 0x1C, symBinAddr: 0x10001C3C4, symSize: 0x14 }
  - { offset: 0x390F1, size: 0x8, addend: 0x0, symName: _getValueProfRecordSize, symObjAddr: 0xC, symBinAddr: 0x10001C3B4, symSize: 0x10 }
  - { offset: 0x39118, size: 0x8, addend: 0x0, symName: _getValueProfRecordValueData, symObjAddr: 0x1C, symBinAddr: 0x10001C3C4, symSize: 0x14 }
  - { offset: 0x39120, size: 0x8, addend: 0x0, symName: _getValueProfRecordNumValueData, symObjAddr: 0x30, symBinAddr: 0x10001C3D8, symSize: 0x184 }
  - { offset: 0x39164, size: 0x8, addend: 0x0, symName: _getValueProfRecordNumValueData, symObjAddr: 0x30, symBinAddr: 0x10001C3D8, symSize: 0x184 }
  - { offset: 0x3916C, size: 0x8, addend: 0x0, symName: _getValueProfRecordNext, symObjAddr: 0x1B4, symBinAddr: 0x10001C55C, symSize: 0x1A4 }
  - { offset: 0x391F8, size: 0x8, addend: 0x0, symName: _getValueProfRecordNext, symObjAddr: 0x1B4, symBinAddr: 0x10001C55C, symSize: 0x1A4 }
  - { offset: 0x39200, size: 0x8, addend: 0x0, symName: _getFirstValueProfRecord, symObjAddr: 0x358, symBinAddr: 0x10001C700, symSize: 0x8 }
  - { offset: 0x39267, size: 0x8, addend: 0x0, symName: _getFirstValueProfRecord, symObjAddr: 0x358, symBinAddr: 0x10001C700, symSize: 0x8 }
  - { offset: 0x3926F, size: 0x8, addend: 0x0, symName: _getValueProfDataSize, symObjAddr: 0x360, symBinAddr: 0x10001C708, symSize: 0xB0 }
  - { offset: 0x39289, size: 0x8, addend: 0x0, symName: _getValueProfDataSize, symObjAddr: 0x360, symBinAddr: 0x10001C708, symSize: 0xB0 }
  - { offset: 0x39291, size: 0x8, addend: 0x0, symName: _serializeValueProfRecordFrom, symObjAddr: 0x410, symBinAddr: 0x10001C7B8, symSize: 0x9C }
  - { offset: 0x39340, size: 0x8, addend: 0x0, symName: _serializeValueProfRecordFrom, symObjAddr: 0x410, symBinAddr: 0x10001C7B8, symSize: 0x9C }
  - { offset: 0x39348, size: 0x8, addend: 0x0, symName: _serializeValueProfDataFrom, symObjAddr: 0x4AC, symBinAddr: 0x10001C854, symSize: 0x37C }
  - { offset: 0x3950B, size: 0x8, addend: 0x0, symName: _serializeValueProfDataFrom, symObjAddr: 0x4AC, symBinAddr: 0x10001C854, symSize: 0x37C }
  - { offset: 0x39513, size: 0x8, addend: 0x0, symName: _InstProfClzll, symObjAddr: 0x828, symBinAddr: 0x10001CBD0, symSize: 0x8 }
  - { offset: 0x3975F, size: 0x8, addend: 0x0, symName: _InstProfClzll, symObjAddr: 0x828, symBinAddr: 0x10001CBD0, symSize: 0x8 }
  - { offset: 0x39767, size: 0x8, addend: 0x0, symName: _InstProfPopcountll, symObjAddr: 0x830, symBinAddr: 0x10001CBD8, symSize: 0x14 }
  - { offset: 0x39781, size: 0x8, addend: 0x0, symName: _InstProfPopcountll, symObjAddr: 0x830, symBinAddr: 0x10001CBD8, symSize: 0x14 }
  - { offset: 0x39789, size: 0x8, addend: 0x0, symName: _InstrProfGetRangeRepValue, symObjAddr: 0x844, symBinAddr: 0x10001CBEC, symSize: 0x40 }
  - { offset: 0x397DF, size: 0x8, addend: 0x0, symName: _InstrProfGetRangeRepValue, symObjAddr: 0x844, symBinAddr: 0x10001CBEC, symSize: 0x40 }
  - { offset: 0x397E7, size: 0x8, addend: 0x0, symName: _InstrProfIsSingleValRange, symObjAddr: 0x884, symBinAddr: 0x10001CC2C, symSize: 0x28 }
  - { offset: 0x39846, size: 0x8, addend: 0x0, symName: _InstrProfIsSingleValRange, symObjAddr: 0x884, symBinAddr: 0x10001CC2C, symSize: 0x28 }
  - { offset: 0x3984E, size: 0x8, addend: 0x0, symName: _lprofSetupValueProfiler, symObjAddr: 0x8AC, symBinAddr: 0x10001CC54, symSize: 0x64 }
  - { offset: 0x3989D, size: 0x8, addend: 0x0, symName: _lprofSetupValueProfiler, symObjAddr: 0x8AC, symBinAddr: 0x10001CC54, symSize: 0x64 }
  - { offset: 0x398A5, size: 0x8, addend: 0x0, symName: _lprofSetMaxValsPerSite, symObjAddr: 0x910, symBinAddr: 0x10001CCB8, symSize: 0x18 }
  - { offset: 0x398C9, size: 0x8, addend: 0x0, symName: _lprofSetMaxValsPerSite, symObjAddr: 0x910, symBinAddr: 0x10001CCB8, symSize: 0x18 }
  - { offset: 0x398D1, size: 0x8, addend: 0x0, symName: ___llvm_profile_set_num_value_sites, symObjAddr: 0x928, symBinAddr: 0x10001CCD0, symSize: 0xC }
  - { offset: 0x398F4, size: 0x8, addend: 0x0, symName: ___llvm_profile_set_num_value_sites, symObjAddr: 0x928, symBinAddr: 0x10001CCD0, symSize: 0xC }
  - { offset: 0x398FC, size: 0x8, addend: 0x0, symName: ___llvm_profile_iterate_data, symObjAddr: 0x934, symBinAddr: 0x10001CCDC, symSize: 0x8 }
  - { offset: 0x39939, size: 0x8, addend: 0x0, symName: ___llvm_profile_iterate_data, symObjAddr: 0x934, symBinAddr: 0x10001CCDC, symSize: 0x8 }
  - { offset: 0x39941, size: 0x8, addend: 0x0, symName: ___llvm_get_function_addr, symObjAddr: 0x93C, symBinAddr: 0x10001CCE4, symSize: 0x8 }
  - { offset: 0x3996A, size: 0x8, addend: 0x0, symName: ___llvm_get_function_addr, symObjAddr: 0x93C, symBinAddr: 0x10001CCE4, symSize: 0x8 }
  - { offset: 0x39972, size: 0x8, addend: 0x0, symName: ___llvm_profile_instrument_target, symObjAddr: 0x944, symBinAddr: 0x10001CCEC, symSize: 0x258 }
  - { offset: 0x39A80, size: 0x8, addend: 0x0, symName: ___llvm_profile_instrument_target, symObjAddr: 0x944, symBinAddr: 0x10001CCEC, symSize: 0x258 }
  - { offset: 0x39A88, size: 0x8, addend: 0x0, symName: ___llvm_profile_instrument_target_value, symObjAddr: 0xB9C, symBinAddr: 0x10001CF44, symSize: 0x288 }
  - { offset: 0x39B8B, size: 0x8, addend: 0x0, symName: ___llvm_profile_instrument_target_value, symObjAddr: 0xB9C, symBinAddr: 0x10001CF44, symSize: 0x288 }
  - { offset: 0x39B93, size: 0x8, addend: 0x0, symName: ___llvm_profile_instrument_memop, symObjAddr: 0xE24, symBinAddr: 0x10001D1CC, symSize: 0x40 }
  - { offset: 0x39CC4, size: 0x8, addend: 0x0, symName: ___llvm_profile_instrument_memop, symObjAddr: 0xE24, symBinAddr: 0x10001D1CC, symSize: 0x40 }
  - { offset: 0x39CCC, size: 0x8, addend: 0x0, symName: _lprofGetVPDataReader, symObjAddr: 0xE64, symBinAddr: 0x10001D20C, symSize: 0xC }
  - { offset: 0x39D27, size: 0x8, addend: 0x0, symName: ___llvm_profile_instrument_memop, symObjAddr: 0xE24, symBinAddr: 0x10001D1CC, symSize: 0x40 }
  - { offset: 0x39D8A, size: 0x8, addend: 0x0, symName: _lprofGetVPDataReader, symObjAddr: 0xE64, symBinAddr: 0x10001D20C, symSize: 0xC }
  - { offset: 0x39D92, size: 0x8, addend: 0x0, symName: _initializeValueProfRuntimeRecord, symObjAddr: 0xE70, symBinAddr: 0x10001D218, symSize: 0x19C }
  - { offset: 0x39DAC, size: 0x8, addend: 0x0, symName: _initializeValueProfRuntimeRecord, symObjAddr: 0xE70, symBinAddr: 0x10001D218, symSize: 0x19C }
  - { offset: 0x39DB4, size: 0x8, addend: 0x0, symName: _getNumValueDataForSiteWrapper, symObjAddr: 0x100C, symBinAddr: 0x10001D3B4, symSize: 0x14 }
  - { offset: 0x39EC1, size: 0x8, addend: 0x0, symName: _getNumValueDataForSiteWrapper, symObjAddr: 0x100C, symBinAddr: 0x10001D3B4, symSize: 0x14 }
  - { offset: 0x39EC9, size: 0x8, addend: 0x0, symName: _getValueProfDataSizeWrapper, symObjAddr: 0x1020, symBinAddr: 0x10001D3C8, symSize: 0xA0 }
  - { offset: 0x39F07, size: 0x8, addend: 0x0, symName: _getNumValueDataForSiteWrapper, symObjAddr: 0x100C, symBinAddr: 0x10001D3B4, symSize: 0x14 }
  - { offset: 0x39F2D, size: 0x8, addend: 0x0, symName: _getValueProfDataSizeWrapper, symObjAddr: 0x1020, symBinAddr: 0x10001D3C8, symSize: 0xA0 }
  - { offset: 0x39F35, size: 0x8, addend: 0x0, symName: _getNextNValueData, symObjAddr: 0x10C0, symBinAddr: 0x10001D468, symSize: 0x44 }
  - { offset: 0x39FD6, size: 0x8, addend: 0x0, symName: _getNextNValueData, symObjAddr: 0x10C0, symBinAddr: 0x10001D468, symSize: 0x44 }
  - { offset: 0x39FDE, size: 0x8, addend: 0x0, symName: _getNumValueSitesRT, symObjAddr: 0x1104, symBinAddr: 0x10001D4AC, symSize: 0x10 }
  - { offset: 0x3A06C, size: 0x8, addend: 0x0, symName: _getNumValueSitesRT, symObjAddr: 0x1104, symBinAddr: 0x10001D4AC, symSize: 0x10 }
  - { offset: 0x3A074, size: 0x8, addend: 0x0, symName: _getNumValueDataRT, symObjAddr: 0x1114, symBinAddr: 0x10001D4BC, symSize: 0x190 }
  - { offset: 0x3A0AF, size: 0x8, addend: 0x0, symName: _getNumValueDataRT, symObjAddr: 0x1114, symBinAddr: 0x10001D4BC, symSize: 0x190 }
  - { offset: 0x3A0B7, size: 0x8, addend: 0x0, symName: ___llvm_profile_instrument_target.cold.1, symObjAddr: 0x12A4, symBinAddr: 0x1000A4A34, symSize: 0x24 }
  - { offset: 0x3A125, size: 0x8, addend: 0x0, symName: ___llvm_profile_instrument_target.cold.1, symObjAddr: 0x12A4, symBinAddr: 0x1000A4A34, symSize: 0x24 }
  - { offset: 0x3A12D, size: 0x8, addend: 0x0, symName: ___llvm_profile_instrument_target_value.cold.1, symObjAddr: 0x12C8, symBinAddr: 0x1000A4A58, symSize: 0x24 }
  - { offset: 0x3A143, size: 0x8, addend: 0x0, symName: ___llvm_profile_instrument_target_value.cold.1, symObjAddr: 0x12C8, symBinAddr: 0x1000A4A58, symSize: 0x24 }
  - { offset: 0x3A1A6, size: 0x8, addend: 0x0, symName: ___llvm_profile_raw_version, symObjAddr: 0x0, symBinAddr: 0x1000FC058, symSize: 0x0 }
  - { offset: 0x3A1E8, size: 0x8, addend: 0x0, symName: _lprofBufferWriter, symObjAddr: 0x0, symBinAddr: 0x10001D64C, symSize: 0x6C }
  - { offset: 0x3A207, size: 0x8, addend: 0x0, symName: _FreeHook, symObjAddr: 0x45D8, symBinAddr: 0x100103160, symSize: 0x0 }
  - { offset: 0x3A22D, size: 0x8, addend: 0x0, symName: _DynamicBufferIOBuffer, symObjAddr: 0x45E0, symBinAddr: 0x100103168, symSize: 0x0 }
  - { offset: 0x3A25B, size: 0x8, addend: 0x0, symName: _VPBufferSize, symObjAddr: 0x45E8, symBinAddr: 0x100103170, symSize: 0x0 }
  - { offset: 0x3A282, size: 0x8, addend: 0x0, symName: __MergedGlobals, symObjAddr: 0x65F0, symBinAddr: 0x1001052D8, symSize: 0x0 }
  - { offset: 0x3A3CC, size: 0x8, addend: 0x0, symName: _BufferIOBuffer, symObjAddr: 0x45F0, symBinAddr: 0x1001032D8, symSize: 0x0 }
  - { offset: 0x3A3F6, size: 0x8, addend: 0x0, symName: __MergedGlobals, symObjAddr: 0x65F0, symBinAddr: 0x1001052D8, symSize: 0x0 }
  - { offset: 0x3A472, size: 0x8, addend: 0x0, symName: _lprofBufferWriter, symObjAddr: 0x0, symBinAddr: 0x10001D64C, symSize: 0x6C }
  - { offset: 0x3A47A, size: 0x8, addend: 0x0, symName: _lprofCreateBufferIO, symObjAddr: 0x6C, symBinAddr: 0x10001D6B8, symSize: 0x48 }
  - { offset: 0x3A502, size: 0x8, addend: 0x0, symName: _lprofCreateBufferIO, symObjAddr: 0x6C, symBinAddr: 0x10001D6B8, symSize: 0x48 }
  - { offset: 0x3A50A, size: 0x8, addend: 0x0, symName: _lprofDeleteBufferIO, symObjAddr: 0xB4, symBinAddr: 0x10001D700, symSize: 0x4C }
  - { offset: 0x3A55C, size: 0x8, addend: 0x0, symName: _lprofDeleteBufferIO, symObjAddr: 0xB4, symBinAddr: 0x10001D700, symSize: 0x4C }
  - { offset: 0x3A564, size: 0x8, addend: 0x0, symName: _lprofBufferIOWrite, symObjAddr: 0x100, symBinAddr: 0x10001D74C, symSize: 0x134 }
  - { offset: 0x3A606, size: 0x8, addend: 0x0, symName: _lprofBufferIOWrite, symObjAddr: 0x100, symBinAddr: 0x10001D74C, symSize: 0x134 }
  - { offset: 0x3A60E, size: 0x8, addend: 0x0, symName: _lprofBufferIOFlush, symObjAddr: 0x234, symBinAddr: 0x10001D880, symSize: 0xC0 }
  - { offset: 0x3A6F5, size: 0x8, addend: 0x0, symName: _lprofBufferIOFlush, symObjAddr: 0x234, symBinAddr: 0x10001D880, symSize: 0xC0 }
  - { offset: 0x3A6FD, size: 0x8, addend: 0x0, symName: _lprofWriteData, symObjAddr: 0x2F4, symBinAddr: 0x10001D940, symSize: 0xB0 }
  - { offset: 0x3A726, size: 0x8, addend: 0x0, symName: _lprofWriteData, symObjAddr: 0x2F4, symBinAddr: 0x10001D940, symSize: 0xB0 }
  - { offset: 0x3A72E, size: 0x8, addend: 0x0, symName: _lprofWriteDataImpl, symObjAddr: 0x3A4, symBinAddr: 0x10001D9F0, symSize: 0x368 }
  - { offset: 0x3AB16, size: 0x8, addend: 0x0, symName: _lprofWriteDataImpl, symObjAddr: 0x3A4, symBinAddr: 0x10001D9F0, symSize: 0x368 }
  - { offset: 0x3AB1E, size: 0x8, addend: 0x0, symName: _lprofWriteOneBinaryId, symObjAddr: 0x70C, symBinAddr: 0x10001DD58, symSize: 0x8C }
  - { offset: 0x3AD93, size: 0x8, addend: 0x0, symName: _lprofWriteOneBinaryId, symObjAddr: 0x70C, symBinAddr: 0x10001DD58, symSize: 0x8C }
  - { offset: 0x3AD9B, size: 0x8, addend: 0x0, symName: _writeOneValueProfData, symObjAddr: 0x798, symBinAddr: 0x10001DDE4, symSize: 0x380 }
  - { offset: 0x3AE0B, size: 0x8, addend: 0x0, symName: _writeOneValueProfData, symObjAddr: 0x798, symBinAddr: 0x10001DDE4, symSize: 0x380 }
  - { offset: 0x3B07E, size: 0x8, addend: 0x0, symName: _lprofProfileDumped, symObjAddr: 0x0, symBinAddr: 0x10001E164, symSize: 0xC }
  - { offset: 0x3B09B, size: 0x8, addend: 0x0, symName: _ProfileDumped, symObjAddr: 0x490, symBinAddr: 0x1001053F8, symSize: 0x0 }
  - { offset: 0x3B0AB, size: 0x8, addend: 0x0, symName: _lprofProfileDumped, symObjAddr: 0x0, symBinAddr: 0x10001E164, symSize: 0xC }
  - { offset: 0x3B0B3, size: 0x8, addend: 0x0, symName: _lprofSetProfileDumped, symObjAddr: 0xC, symBinAddr: 0x10001E170, symSize: 0xC }
  - { offset: 0x3B0CC, size: 0x8, addend: 0x0, symName: _lprofSetProfileDumped, symObjAddr: 0xC, symBinAddr: 0x10001E170, symSize: 0xC }
  - { offset: 0x3B116, size: 0x8, addend: 0x0, symName: '__ZN108_$LT$alloc..collections..btree..map..Iter$LT$K$C$V$GT$$u20$as$u20$core..iter..traits..iterator..Iterator$GT$4next17hefc6e15f88d5c450E', symObjAddr: 0x0, symBinAddr: 0x10001E17C, symSize: 0x128 }
  - { offset: 0x3B5DF, size: 0x8, addend: 0x0, symName: '__ZN5alloc11collections5btree4node208Handle$LT$alloc..collections..btree..node..NodeRef$LT$alloc..collections..btree..node..marker..Mut$C$K$C$V$C$alloc..collections..btree..node..marker..Leaf$GT$$C$alloc..collections..btree..node..marker..KV$GT$5split17ha7a88203a6c73fffE', symObjAddr: 0xE324, symBinAddr: 0x10002C1D8, symSize: 0x1D8 }
  - { offset: 0x3BAAD, size: 0x8, addend: 0x0, symName: '__ZN5alloc11collections5btree4node208Handle$LT$alloc..collections..btree..node..NodeRef$LT$alloc..collections..btree..node..marker..Mut$C$K$C$V$C$alloc..collections..btree..node..marker..Leaf$GT$$C$alloc..collections..btree..node..marker..KV$GT$5split17hd82cc6acc9979253E', symObjAddr: 0xE4FC, symBinAddr: 0x10002C3B0, symSize: 0x1CC }
  - { offset: 0x3BF5A, size: 0x8, addend: 0x0, symName: '__ZN5alloc11collections5btree4node212Handle$LT$alloc..collections..btree..node..NodeRef$LT$alloc..collections..btree..node..marker..Mut$C$K$C$V$C$alloc..collections..btree..node..marker..Internal$GT$$C$alloc..collections..btree..node..marker..KV$GT$5split17h94507dfc3ce73de3E', symObjAddr: 0xE6C8, symBinAddr: 0x10002C57C, symSize: 0x29C }
  - { offset: 0x3C622, size: 0x8, addend: 0x0, symName: '__ZN5alloc11collections5btree4node212Handle$LT$alloc..collections..btree..node..NodeRef$LT$alloc..collections..btree..node..marker..Mut$C$K$C$V$C$alloc..collections..btree..node..marker..Internal$GT$$C$alloc..collections..btree..node..marker..KV$GT$5split17h9f2cc015ef16aea9E', symObjAddr: 0xE964, symBinAddr: 0x10002C818, symSize: 0x2A8 }
  - { offset: 0x3CD5F, size: 0x8, addend: 0x0, symName: '__ZN5alloc11collections5btree6remove259_$LT$impl$u20$alloc..collections..btree..node..Handle$LT$alloc..collections..btree..node..NodeRef$LT$alloc..collections..btree..node..marker..Mut$C$K$C$V$C$alloc..collections..btree..node..marker..Leaf$GT$$C$alloc..collections..btree..node..marker..KV$GT$$GT$14remove_leaf_kv17h09451ae000f7f863E', symObjAddr: 0xF388, symBinAddr: 0x10002D23C, symSize: 0x5B8 }
  - { offset: 0x3DA17, size: 0x8, addend: 0x0, symName: '__ZN5alloc11collections5btree6remove259_$LT$impl$u20$alloc..collections..btree..node..Handle$LT$alloc..collections..btree..node..NodeRef$LT$alloc..collections..btree..node..marker..Mut$C$K$C$V$C$alloc..collections..btree..node..marker..Leaf$GT$$C$alloc..collections..btree..node..marker..KV$GT$$GT$14remove_leaf_kv17h574fb35ea01eef5bE', symObjAddr: 0xF940, symBinAddr: 0x10002D7F4, symSize: 0x5B8 }
  - { offset: 0x3F531, size: 0x8, addend: 0x0, symName: '__ZN5alloc11collections5btree4node29BalancingContext$LT$K$C$V$GT$15bulk_steal_left17h3e6eb60539232d87E', symObjAddr: 0xEC0C, symBinAddr: 0x10002CAC0, symSize: 0x288 }
  - { offset: 0x3FB6A, size: 0x8, addend: 0x0, symName: '__ZN5alloc11collections5btree4node29BalancingContext$LT$K$C$V$GT$16bulk_steal_right17h65d23fb7d7dd2ae9E', symObjAddr: 0xEE94, symBinAddr: 0x10002CD48, symSize: 0x2A8 }
  - { offset: 0x40288, size: 0x8, addend: 0x0, symName: '__ZN5alloc11collections5btree4node29BalancingContext$LT$K$C$V$GT$8do_merge17hafd23ce1cc5a650fE', symObjAddr: 0xF13C, symBinAddr: 0x10002CFF0, symSize: 0x24C }
  - { offset: 0x40A41, size: 0x8, addend: 0x0, symName: '__ZN108_$LT$alloc..collections..btree..map..Iter$LT$K$C$V$GT$$u20$as$u20$core..iter..traits..iterator..Iterator$GT$4next17hefc6e15f88d5c450E', symObjAddr: 0x0, symBinAddr: 0x10001E17C, symSize: 0x128 }
  - { offset: 0x40E1D, size: 0x8, addend: 0x0, symName: '__ZN5alloc11collections5btree3map25BTreeMap$LT$K$C$V$C$A$GT$6insert17h1f036c343c5c4da9E', symObjAddr: 0xC9C4, symBinAddr: 0x10002A878, symSize: 0x9A4 }
  - { offset: 0x42520, size: 0x8, addend: 0x0, symName: '__ZN5alloc11collections5btree3map25BTreeMap$LT$K$C$V$C$A$GT$6insert17he531d9715f5df3e6E', symObjAddr: 0xD368, symBinAddr: 0x10002B21C, symSize: 0x968 }
  - { offset: 0x43D9E, size: 0x8, addend: 0x0, symName: '__ZN5alloc11collections5btree3map25IntoIter$LT$K$C$V$C$A$GT$10dying_next17h357fedd534c3180aE', symObjAddr: 0xDCD0, symBinAddr: 0x10002BB84, symSize: 0x21C }
  - { offset: 0x4418D, size: 0x8, addend: 0x0, symName: '__ZN5alloc11collections5btree3map25IntoIter$LT$K$C$V$C$A$GT$10dying_next17h96f4f4c955a1e680E', symObjAddr: 0xDEEC, symBinAddr: 0x10002BDA0, symSize: 0x21C }
  - { offset: 0x4457C, size: 0x8, addend: 0x0, symName: '__ZN5alloc11collections5btree3map25IntoIter$LT$K$C$V$C$A$GT$10dying_next17hd31e7a5b9a53c2ecE', symObjAddr: 0xE108, symBinAddr: 0x10002BFBC, symSize: 0x21C }
  - { offset: 0x44971, size: 0x8, addend: 0x0, symName: '__ZN94_$LT$alloc..collections..btree..map..BTreeMap$LT$K$C$V$C$A$GT$$u20$as$u20$core..fmt..Debug$GT$3fmt17h2c25d56ca588312bE', symObjAddr: 0x18A2C, symBinAddr: 0x10003656C, symSize: 0xB8 }
  - { offset: 0x44DA8, size: 0x8, addend: 0x0, symName: '__ZN5alloc7raw_vec19RawVec$LT$T$C$A$GT$8grow_one17h02f8db35dece1f53E', symObjAddr: 0x1067C, symBinAddr: 0x10002E1BC, symSize: 0xBC }
  - { offset: 0x44F04, size: 0x8, addend: 0x0, symName: '__ZN5alloc7raw_vec19RawVec$LT$T$C$A$GT$8grow_one17h0cec605581d175a5E', symObjAddr: 0x10738, symBinAddr: 0x10002E278, symSize: 0xB8 }
  - { offset: 0x45052, size: 0x8, addend: 0x0, symName: '__ZN5alloc7raw_vec19RawVec$LT$T$C$A$GT$8grow_one17h0e65c6b61f74eb4aE', symObjAddr: 0x107F0, symBinAddr: 0x10002E330, symSize: 0xBC }
  - { offset: 0x451AE, size: 0x8, addend: 0x0, symName: '__ZN5alloc7raw_vec19RawVec$LT$T$C$A$GT$8grow_one17h10abd059bded75caE', symObjAddr: 0x108AC, symBinAddr: 0x10002E3EC, symSize: 0xA8 }
  - { offset: 0x452FC, size: 0x8, addend: 0x0, symName: '__ZN5alloc7raw_vec19RawVec$LT$T$C$A$GT$8grow_one17h333e08c4172ee965E', symObjAddr: 0x10954, symBinAddr: 0x10002E494, symSize: 0xBC }
  - { offset: 0x4542E, size: 0x8, addend: 0x0, symName: '__ZN5alloc7raw_vec19RawVec$LT$T$C$A$GT$8grow_one17h377cc84b1ef0305dE', symObjAddr: 0x10A10, symBinAddr: 0x10002E550, symSize: 0x9C }
  - { offset: 0x45567, size: 0x8, addend: 0x0, symName: '__ZN5alloc7raw_vec19RawVec$LT$T$C$A$GT$8grow_one17h398243ac45bbbbafE', symObjAddr: 0x10AAC, symBinAddr: 0x10002E5EC, symSize: 0xA8 }
  - { offset: 0x456C3, size: 0x8, addend: 0x0, symName: '__ZN5alloc7raw_vec19RawVec$LT$T$C$A$GT$8grow_one17h7eb544ccae85b590E', symObjAddr: 0x10B54, symBinAddr: 0x10002E694, symSize: 0xA8 }
  - { offset: 0x45811, size: 0x8, addend: 0x0, symName: '__ZN5alloc7raw_vec19RawVec$LT$T$C$A$GT$8grow_one17h96d5c9b623494cdeE', symObjAddr: 0x10BFC, symBinAddr: 0x10002E73C, symSize: 0xB8 }
  - { offset: 0x4595F, size: 0x8, addend: 0x0, symName: '__ZN5alloc7raw_vec19RawVec$LT$T$C$A$GT$8grow_one17hc4c7fa7c76b4185aE', symObjAddr: 0x10CB4, symBinAddr: 0x10002E7F4, symSize: 0xA8 }
  - { offset: 0x45AAD, size: 0x8, addend: 0x0, symName: '__ZN5alloc7raw_vec19RawVec$LT$T$C$A$GT$8grow_one17hc55dd7d6d12a2231E', symObjAddr: 0x10D5C, symBinAddr: 0x10002E89C, symSize: 0xC8 }
  - { offset: 0x45BFB, size: 0x8, addend: 0x0, symName: '__ZN5alloc7raw_vec19RawVec$LT$T$C$A$GT$8grow_one17he03f9df097de36e5E', symObjAddr: 0x10E24, symBinAddr: 0x10002E964, symSize: 0xA8 }
  - { offset: 0x45D49, size: 0x8, addend: 0x0, symName: '__ZN5alloc7raw_vec19RawVec$LT$T$C$A$GT$8grow_one17he74b4c11d262f7b2E', symObjAddr: 0x10ECC, symBinAddr: 0x10002EA0C, symSize: 0xBC }
  - { offset: 0x45E97, size: 0x8, addend: 0x0, symName: '__ZN5alloc7raw_vec19RawVec$LT$T$C$A$GT$8grow_one17hf8daf606d9faa52eE', symObjAddr: 0x10F88, symBinAddr: 0x10002EAC8, symSize: 0xB8 }
  - { offset: 0x46DEA, size: 0x8, addend: 0x0, symName: __ZN5alloc7raw_vec11finish_grow17ha313ec1b1d4d77bfE, symObjAddr: 0x10268, symBinAddr: 0x10002E11C, symSize: 0xA0 }
  - { offset: 0x46E78, size: 0x8, addend: 0x0, symName: '__ZN5alloc7raw_vec19RawVec$LT$T$C$A$GT$7reserve21do_reserve_and_handle17h07efe0cbe7d183b4E', symObjAddr: 0x10308, symBinAddr: 0x1000A4D44, symSize: 0xBC }
  - { offset: 0x46FA3, size: 0x8, addend: 0x0, symName: '__ZN5alloc7raw_vec19RawVec$LT$T$C$A$GT$7reserve21do_reserve_and_handle17h0ae92de42e4e1785E', symObjAddr: 0x103C4, symBinAddr: 0x1000A4E00, symSize: 0xB8 }
  - { offset: 0x470CE, size: 0x8, addend: 0x0, symName: '__ZN5alloc7raw_vec19RawVec$LT$T$C$A$GT$7reserve21do_reserve_and_handle17h6fc06d060a087029E', symObjAddr: 0x1047C, symBinAddr: 0x1000A4EB8, symSize: 0x9C }
  - { offset: 0x471E4, size: 0x8, addend: 0x0, symName: '__ZN5alloc7raw_vec19RawVec$LT$T$C$A$GT$7reserve21do_reserve_and_handle17h8ccaaf37775eaadfE', symObjAddr: 0x10518, symBinAddr: 0x1000A4F54, symSize: 0xBC }
  - { offset: 0x4730F, size: 0x8, addend: 0x0, symName: '__ZN5alloc7raw_vec19RawVec$LT$T$C$A$GT$7reserve21do_reserve_and_handle17hdc90fc52231477edE', symObjAddr: 0x105D4, symBinAddr: 0x1000A5010, symSize: 0xA8 }
  - { offset: 0x4891B, size: 0x8, addend: 0x0, symName: '__ZN65_$LT$alloc..vec..Vec$LT$T$C$A$GT$$u20$as$u20$core..fmt..Debug$GT$3fmt17h4a3f8a6b5465909aE', symObjAddr: 0x17D64, symBinAddr: 0x1000358A4, symSize: 0x74 }
  - { offset: 0x48A05, size: 0x8, addend: 0x0, symName: '__ZN65_$LT$alloc..vec..Vec$LT$T$C$A$GT$$u20$as$u20$core..fmt..Debug$GT$3fmt17he774a52e512585acE', symObjAddr: 0x17DD8, symBinAddr: 0x100035918, symSize: 0x70 }
  - { offset: 0x4962B, size: 0x8, addend: 0x0, symName: '__ZN64_$LT$alloc..ffi..c_str..NulError$u20$as$u20$core..fmt..Debug$GT$3fmt17hf336ccceb94d9391E', symObjAddr: 0x17CA8, symBinAddr: 0x1000357E8, symSize: 0x4C }
  - { offset: 0x49810, size: 0x8, addend: 0x0, symName: '__ZN5alloc4sync16Arc$LT$T$C$A$GT$9drop_slow17h343810ddd08da0c7E', symObjAddr: 0xFEF8, symBinAddr: 0x10002DDAC, symSize: 0x44 }
  - { offset: 0x49911, size: 0x8, addend: 0x0, symName: '__ZN5alloc4sync16Arc$LT$T$C$A$GT$9drop_slow17h4df3be9ecc1319c0E', symObjAddr: 0xFF3C, symBinAddr: 0x10002DDF0, symSize: 0x9C }
  - { offset: 0x49BA3, size: 0x8, addend: 0x0, symName: '__ZN5alloc4sync16Arc$LT$T$C$A$GT$9drop_slow17h53739280891f49b4E', symObjAddr: 0xFFD8, symBinAddr: 0x10002DE8C, symSize: 0xC0 }
  - { offset: 0x49D29, size: 0x8, addend: 0x0, symName: '__ZN5alloc4sync16Arc$LT$T$C$A$GT$9drop_slow17h5b9d99c223cd274fE', symObjAddr: 0x10098, symBinAddr: 0x10002DF4C, symSize: 0xC4 }
  - { offset: 0x49FAD, size: 0x8, addend: 0x0, symName: '__ZN5alloc4sync16Arc$LT$T$C$A$GT$9drop_slow17h9362e373b14bd3f8E', symObjAddr: 0x1015C, symBinAddr: 0x10002E010, symSize: 0x7C }
  - { offset: 0x4A1B2, size: 0x8, addend: 0x0, symName: '__ZN5alloc4sync16Arc$LT$T$C$A$GT$9drop_slow17h9e1bdac9c27435fdE', symObjAddr: 0x101D8, symBinAddr: 0x10002E08C, symSize: 0x90 }
  - { offset: 0x4ADE0, size: 0x8, addend: 0x0, symName: '__ZN58_$LT$alloc..string..String$u20$as$u20$core..fmt..Debug$GT$3fmt17h77d7411b817c370aE', symObjAddr: 0xC7EC, symBinAddr: 0x10002A6A0, symSize: 0x1C }
  - { offset: 0x4AF4D, size: 0x8, addend: 0x0, symName: '__ZN58_$LT$alloc..string..String$u20$as$u20$core..fmt..Write$GT$10write_char17hca45edefa45c6ef3E', symObjAddr: 0xC808, symBinAddr: 0x10002A6BC, symSize: 0x144 }
  - { offset: 0x4B136, size: 0x8, addend: 0x0, symName: '__ZN58_$LT$alloc..string..String$u20$as$u20$core..fmt..Write$GT$9write_str17heacf67f8438e8ac1E', symObjAddr: 0xC94C, symBinAddr: 0x10002A800, symSize: 0x78 }
  - { offset: 0x4B255, size: 0x8, addend: 0x0, symName: '__ZN60_$LT$alloc..string..String$u20$as$u20$core..fmt..Display$GT$3fmt17h9bbaa6c934637ec9E', symObjAddr: 0x17C8C, symBinAddr: 0x1000357CC, symSize: 0x1C }
  - { offset: 0x4B324, size: 0x8, addend: 0x0, symName: '__ZN66_$LT$alloc..borrow..Cow$LT$B$GT$$u20$as$u20$core..fmt..Display$GT$3fmt17h868fd5485203622fE', symObjAddr: 0x17E48, symBinAddr: 0x100035988, symSize: 0x1C }
  - { offset: 0x4C644, size: 0x8, addend: 0x0, symName: '__ZN4core3ptr100drop_in_place$LT$core..option..Option$LT$std..sys..pal..unix..process..process_common..Stdio$GT$$GT$17h4fb8941c4525de60E', symObjAddr: 0x1728, symBinAddr: 0x10001F8A4, symSize: 0x28 }
  - { offset: 0x4C6DA, size: 0x8, addend: 0x0, symName: '__ZN4core3ptr104drop_in_place$LT$alloc..vec..Vec$LT$$LP$usize$C$std..backtrace_rs..symbolize..gimli..Mapping$RP$$GT$$GT$17h4a01111a8c26198bE', symObjAddr: 0x1750, symBinAddr: 0x10001F8CC, symSize: 0xC4 }
  - { offset: 0x4C86A, size: 0x8, addend: 0x0, symName: '__ZN4core3ptr107drop_in_place$LT$alloc..vec..Vec$LT$$LP$std..ffi..os_str..OsString$C$std..ffi..os_str..OsString$RP$$GT$$GT$17h9e4835de7fe447cfE', symObjAddr: 0x1814, symBinAddr: 0x10001F990, symSize: 0x94 }
  - { offset: 0x4CABF, size: 0x8, addend: 0x0, symName: '__ZN4core3ptr107drop_in_place$LT$core..option..Option$LT$std..sys..pal..unix..process..process_common..CStringArray$GT$$GT$17h81be4f04a31f309aE', symObjAddr: 0x18A8, symBinAddr: 0x10001FA24, symSize: 0xB0 }
  - { offset: 0x4CCE4, size: 0x8, addend: 0x0, symName: '__ZN4core3ptr108drop_in_place$LT$alloc..collections..btree..map..BTreeMap$LT$u64$C$gimli..read..abbrev..Abbreviation$GT$$GT$17hb90914b2f9140eb9E', symObjAddr: 0x1958, symBinAddr: 0x10001FAD4, symSize: 0xB0 }
  - { offset: 0x4CE89, size: 0x8, addend: 0x0, symName: '__ZN4core3ptr112drop_in_place$LT$$LP$std..ffi..os_str..OsString$C$core..option..Option$LT$std..ffi..os_str..OsString$GT$$RP$$GT$17h240b9d88b526ea04E', symObjAddr: 0x1A08, symBinAddr: 0x10001FB84, symSize: 0x58 }
  - { offset: 0x4CFDA, size: 0x8, addend: 0x0, symName: '__ZN4core3ptr118drop_in_place$LT$$LT$std..backtrace..Backtrace$u20$as$u20$core..fmt..Display$GT$..fmt..$u7b$$u7b$closure$u7d$$u7d$$GT$17h8589323099eda18eE', symObjAddr: 0x1A60, symBinAddr: 0x10001FBDC, symSize: 0x40 }
  - { offset: 0x4D0E1, size: 0x8, addend: 0x0, symName: '__ZN4core3ptr123drop_in_place$LT$addr2line..Context$LT$gimli..read..endian_slice..EndianSlice$LT$gimli..endianity..LittleEndian$GT$$GT$$GT$17ha3ee999c6ccfd959E', symObjAddr: 0x1AA0, symBinAddr: 0x10001FC1C, symSize: 0x120 }
  - { offset: 0x4D401, size: 0x8, addend: 0x0, symName: '__ZN4core3ptr123drop_in_place$LT$addr2line..ResUnit$LT$gimli..read..endian_slice..EndianSlice$LT$gimli..endianity..LittleEndian$GT$$GT$$GT$17h226608217e183e6fE', symObjAddr: 0x1BC0, symBinAddr: 0x10001FD3C, symSize: 0xE4 }
  - { offset: 0x4D5DB, size: 0x8, addend: 0x0, symName: '__ZN4core3ptr123drop_in_place$LT$addr2line..SupUnit$LT$gimli..read..endian_slice..EndianSlice$LT$gimli..endianity..LittleEndian$GT$$GT$$GT$17hdb03f8f410881f47E', symObjAddr: 0x1CA4, symBinAddr: 0x10001FE20, symSize: 0x54 }
  - { offset: 0x4D6A8, size: 0x8, addend: 0x0, symName: '__ZN4core3ptr124drop_in_place$LT$alloc..collections..btree..map..BTreeMap$LT$std..ffi..os_str..OsString$C$std..ffi..os_str..OsString$GT$$GT$17h1a54e532199a59e3E', symObjAddr: 0x1CF8, symBinAddr: 0x10001FE74, symSize: 0xC4 }
  - { offset: 0x4D893, size: 0x8, addend: 0x0, symName: '__ZN4core3ptr124drop_in_place$LT$alloc..collections..btree..map..IntoIter$LT$std..ffi..os_str..OsString$C$std..ffi..os_str..OsString$GT$$GT$17hfbf0e793ebce2d9aE', symObjAddr: 0x1DBC, symBinAddr: 0x10001FF38, symSize: 0x94 }
  - { offset: 0x4DA2A, size: 0x8, addend: 0x0, symName: '__ZN4core3ptr127drop_in_place$LT$std..sync..poison..PoisonError$LT$std..sync..mutex..MutexGuard$LT$std..sync..barrier..BarrierState$GT$$GT$$GT$17h7c91750bb96da73bE', symObjAddr: 0x1E50, symBinAddr: 0x10001FFCC, symSize: 0x5C }
  - { offset: 0x4DB73, size: 0x8, addend: 0x0, symName: '__ZN4core3ptr130drop_in_place$LT$gimli..read..dwarf..Dwarf$LT$gimli..read..endian_slice..EndianSlice$LT$gimli..endianity..LittleEndian$GT$$GT$$GT$17ha7af00636cb34252E', symObjAddr: 0x1EAC, symBinAddr: 0x100020028, symSize: 0x58 }
  - { offset: 0x4DC09, size: 0x8, addend: 0x0, symName: '__ZN4core3ptr131drop_in_place$LT$alloc..boxed..Box$LT$dyn$u20$core..ops..function..FnOnce$LT$$LP$$RP$$GT$$u2b$Output$u20$$u3d$$u20$$LP$$RP$$GT$$GT$17h220dd46b4385b86cE', symObjAddr: 0x1F04, symBinAddr: 0x100020080, symSize: 0x78 }
  - { offset: 0x4DCF4, size: 0x8, addend: 0x0, symName: '__ZN4core3ptr137drop_in_place$LT$gimli..read..dwarf..Unit$LT$gimli..read..endian_slice..EndianSlice$LT$gimli..endianity..LittleEndian$GT$$C$usize$GT$$GT$17ha716519da39d45daE', symObjAddr: 0x1F7C, symBinAddr: 0x1000200F8, symSize: 0x54 }
  - { offset: 0x4DDC7, size: 0x8, addend: 0x0, symName: '__ZN4core3ptr144drop_in_place$LT$alloc..vec..Vec$LT$core..option..Option$LT$core..option..Option$LT$std..backtrace_rs..symbolize..gimli..Mapping$GT$$GT$$GT$$GT$17ha25b37f0718ca279E', symObjAddr: 0x1FD0, symBinAddr: 0x10002014C, symSize: 0x10C }
  - { offset: 0x4DF5F, size: 0x8, addend: 0x0, symName: '__ZN4core3ptr146drop_in_place$LT$alloc..vec..Vec$LT$addr2line..ResUnit$LT$gimli..read..endian_slice..EndianSlice$LT$gimli..endianity..LittleEndian$GT$$GT$$GT$$GT$17h35527b5538aed72cE', symObjAddr: 0x20DC, symBinAddr: 0x100020258, symSize: 0xC4 }
  - { offset: 0x4E0BE, size: 0x8, addend: 0x0, symName: '__ZN4core3ptr146drop_in_place$LT$alloc..vec..Vec$LT$addr2line..SupUnit$LT$gimli..read..endian_slice..EndianSlice$LT$gimli..endianity..LittleEndian$GT$$GT$$GT$$GT$17h13716ece94008830E', symObjAddr: 0x21A0, symBinAddr: 0x10002031C, symSize: 0xF4 }
  - { offset: 0x4E2B8, size: 0x8, addend: 0x0, symName: '__ZN4core3ptr152drop_in_place$LT$alloc..collections..btree..map..BTreeMap$LT$std..ffi..os_str..OsString$C$core..option..Option$LT$std..ffi..os_str..OsString$GT$$GT$$GT$17h2d7b71084d972a74E', symObjAddr: 0x2294, symBinAddr: 0x100020410, symSize: 0xD0 }
  - { offset: 0x4E4BC, size: 0x8, addend: 0x0, symName: '__ZN4core3ptr158drop_in_place$LT$alloc..boxed..Box$LT$$u5b$addr2line..ResUnit$LT$gimli..read..endian_slice..EndianSlice$LT$gimli..endianity..LittleEndian$GT$$GT$$u5d$$GT$$GT$17hfdf3c685226957f7E', symObjAddr: 0x2364, symBinAddr: 0x1000204E0, symSize: 0xB4 }
  - { offset: 0x4E5B5, size: 0x8, addend: 0x0, symName: '__ZN4core3ptr158drop_in_place$LT$alloc..boxed..Box$LT$$u5b$addr2line..SupUnit$LT$gimli..read..endian_slice..EndianSlice$LT$gimli..endianity..LittleEndian$GT$$GT$$u5d$$GT$$GT$17h29f4d96dcc05b80dE', symObjAddr: 0x2418, symBinAddr: 0x100020594, symSize: 0xE4 }
  - { offset: 0x4E765, size: 0x8, addend: 0x0, symName: '__ZN4core3ptr159drop_in_place$LT$alloc..sync..ArcInner$LT$gimli..read..dwarf..Dwarf$LT$gimli..read..endian_slice..EndianSlice$LT$gimli..endianity..LittleEndian$GT$$GT$$GT$$GT$17hff97e628a0f855e6E', symObjAddr: 0x24FC, symBinAddr: 0x100020678, symSize: 0x58 }
  - { offset: 0x4E87A, size: 0x8, addend: 0x0, symName: '__ZN4core3ptr174drop_in_place$LT$core..result..Result$LT$addr2line..FrameIter$LT$gimli..read..endian_slice..EndianSlice$LT$gimli..endianity..LittleEndian$GT$$GT$$C$gimli..read..Error$GT$$GT$17h1c6aad002dc8e54cE', symObjAddr: 0x2554, symBinAddr: 0x1000206D0, symSize: 0x44 }
  - { offset: 0x4E980, size: 0x8, addend: 0x0, symName: '__ZN4core3ptr175drop_in_place$LT$std..sync..reentrant_lock..ReentrantLockGuard$LT$core..cell..RefCell$LT$std..io..buffered..linewriter..LineWriter$LT$std..io..stdio..StdoutRaw$GT$$GT$$GT$$GT$17h2d7ac8dcc27a0fd4E', symObjAddr: 0x2598, symBinAddr: 0x100020714, symSize: 0x3C }
  - { offset: 0x4EABA, size: 0x8, addend: 0x0, symName: '__ZN4core3ptr181drop_in_place$LT$core..option..Option$LT$gimli..read..line..IncompleteLineProgram$LT$gimli..read..endian_slice..EndianSlice$LT$gimli..endianity..LittleEndian$GT$$C$usize$GT$$GT$$GT$17h209a67c5b5662411E', symObjAddr: 0x25D4, symBinAddr: 0x100020750, symSize: 0x94 }
  - { offset: 0x4ED83, size: 0x8, addend: 0x0, symName: '__ZN4core3ptr184drop_in_place$LT$core..result..Result$LT$addr2line..function..Functions$LT$gimli..read..endian_slice..EndianSlice$LT$gimli..endianity..LittleEndian$GT$$GT$$C$gimli..read..Error$GT$$GT$17hea232ac1528d3b30E', symObjAddr: 0x2668, symBinAddr: 0x1000207E4, symSize: 0xD8 }
  - { offset: 0x4F021, size: 0x8, addend: 0x0, symName: '__ZN4core3ptr205drop_in_place$LT$$LT$alloc..boxed..Box$LT$dyn$u20$core..error..Error$u2b$core..marker..Sync$u2b$core..marker..Send$GT$$u20$as$u20$core..convert..From$LT$alloc..string..String$GT$$GT$..from..StringError$GT$17h7c0e94d5ec36fe8aE', symObjAddr: 0x2740, symBinAddr: 0x1000208BC, symSize: 0x28 }
  - { offset: 0x4F0F6, size: 0x8, addend: 0x0, symName: '__ZN4core3ptr215drop_in_place$LT$std..sys..thread_local..native..lazy..State$LT$core..cell..Cell$LT$core..option..Option$LT$alloc..sync..Arc$LT$std..sync..mutex..Mutex$LT$alloc..vec..Vec$LT$u8$GT$$GT$$GT$$GT$$GT$$C$$LP$$RP$$GT$$GT$17hf6d7ddc562b306eaE', symObjAddr: 0x2768, symBinAddr: 0x1000208E4, symSize: 0x40 }
  - { offset: 0x4F1B8, size: 0x8, addend: 0x0, symName: '__ZN4core3ptr250drop_in_place$LT$$LP$gimli..read..UnitOffset$C$addr2line..lazy..LazyCell$LT$core..result..Result$LT$addr2line..function..Function$LT$gimli..read..endian_slice..EndianSlice$LT$gimli..endianity..LittleEndian$GT$$GT$$C$gimli..read..Error$GT$$GT$$RP$$GT$17h047d47e449c338f5E', symObjAddr: 0x27A8, symBinAddr: 0x100020924, symSize: 0x64 }
  - { offset: 0x4F1CF, size: 0x8, addend: 0x0, symName: '__ZN4core3ptr250drop_in_place$LT$$LP$gimli..read..UnitOffset$C$addr2line..lazy..LazyCell$LT$core..result..Result$LT$addr2line..function..Function$LT$gimli..read..endian_slice..EndianSlice$LT$gimli..endianity..LittleEndian$GT$$GT$$C$gimli..read..Error$GT$$GT$$RP$$GT$17h047d47e449c338f5E', symObjAddr: 0x27A8, symBinAddr: 0x100020924, symSize: 0x64 }
  - { offset: 0x4F1E4, size: 0x8, addend: 0x0, symName: '__ZN4core3ptr250drop_in_place$LT$$LP$gimli..read..UnitOffset$C$addr2line..lazy..LazyCell$LT$core..result..Result$LT$addr2line..function..Function$LT$gimli..read..endian_slice..EndianSlice$LT$gimli..endianity..LittleEndian$GT$$GT$$C$gimli..read..Error$GT$$GT$$RP$$GT$17h047d47e449c338f5E', symObjAddr: 0x27A8, symBinAddr: 0x100020924, symSize: 0x64 }
  - { offset: 0x4F1F9, size: 0x8, addend: 0x0, symName: '__ZN4core3ptr250drop_in_place$LT$$LP$gimli..read..UnitOffset$C$addr2line..lazy..LazyCell$LT$core..result..Result$LT$addr2line..function..Function$LT$gimli..read..endian_slice..EndianSlice$LT$gimli..endianity..LittleEndian$GT$$GT$$C$gimli..read..Error$GT$$GT$$RP$$GT$17h047d47e449c338f5E', symObjAddr: 0x27A8, symBinAddr: 0x100020924, symSize: 0x64 }
  - { offset: 0x4F33B, size: 0x8, addend: 0x0, symName: '__ZN4core3ptr273drop_in_place$LT$alloc..vec..Vec$LT$$LP$gimli..read..UnitOffset$C$addr2line..lazy..LazyCell$LT$core..result..Result$LT$addr2line..function..Function$LT$gimli..read..endian_slice..EndianSlice$LT$gimli..endianity..LittleEndian$GT$$GT$$C$gimli..read..Error$GT$$GT$$RP$$GT$$GT$17h9cc92eb1dac3f90aE', symObjAddr: 0x280C, symBinAddr: 0x100020988, symSize: 0xAC }
  - { offset: 0x4F554, size: 0x8, addend: 0x0, symName: '__ZN4core3ptr275drop_in_place$LT$gimli..read..line..LineRows$LT$gimli..read..endian_slice..EndianSlice$LT$gimli..endianity..LittleEndian$GT$$C$gimli..read..line..IncompleteLineProgram$LT$gimli..read..endian_slice..EndianSlice$LT$gimli..endianity..LittleEndian$GT$$C$usize$GT$$C$usize$GT$$GT$17hfbe11a1465dd5e5fE', symObjAddr: 0x28B8, symBinAddr: 0x100020A34, symSize: 0x88 }
  - { offset: 0x4F783, size: 0x8, addend: 0x0, symName: '__ZN4core3ptr280drop_in_place$LT$$LT$alloc..collections..btree..map..IntoIter$LT$K$C$V$C$A$GT$$u20$as$u20$core..ops..drop..Drop$GT$..drop..DropGuard$LT$u64$C$core..result..Result$LT$alloc..sync..Arc$LT$gimli..read..abbrev..Abbreviations$GT$$C$gimli..read..Error$GT$$C$alloc..alloc..Global$GT$$GT$17h0eec43d9ae0b27c7E', symObjAddr: 0x2940, symBinAddr: 0x100020ABC, symSize: 0x84 }
  - { offset: 0x4F8CE, size: 0x8, addend: 0x0, symName: '__ZN4core3ptr285drop_in_place$LT$alloc..boxed..Box$LT$$u5b$$LP$gimli..read..UnitOffset$C$addr2line..lazy..LazyCell$LT$core..result..Result$LT$addr2line..function..Function$LT$gimli..read..endian_slice..EndianSlice$LT$gimli..endianity..LittleEndian$GT$$GT$$C$gimli..read..Error$GT$$GT$$RP$$u5d$$GT$$GT$17h97a9bbc675f28bd3E', symObjAddr: 0x29C4, symBinAddr: 0x100020B40, symSize: 0x9C }
  - { offset: 0x4F8E5, size: 0x8, addend: 0x0, symName: '__ZN4core3ptr285drop_in_place$LT$alloc..boxed..Box$LT$$u5b$$LP$gimli..read..UnitOffset$C$addr2line..lazy..LazyCell$LT$core..result..Result$LT$addr2line..function..Function$LT$gimli..read..endian_slice..EndianSlice$LT$gimli..endianity..LittleEndian$GT$$GT$$C$gimli..read..Error$GT$$GT$$RP$$u5d$$GT$$GT$17h97a9bbc675f28bd3E', symObjAddr: 0x29C4, symBinAddr: 0x100020B40, symSize: 0x9C }
  - { offset: 0x50384, size: 0x8, addend: 0x0, symName: '__ZN4core3ptr37drop_in_place$LT$std..env..VarsOs$GT$17h8fdc36dd8c5d2a85E', symObjAddr: 0x2A60, symBinAddr: 0x100020BDC, symSize: 0xAC }
  - { offset: 0x50643, size: 0x8, addend: 0x0, symName: '__ZN4core3ptr383drop_in_place$LT$core..result..Result$LT$core..option..Option$LT$alloc..boxed..Box$LT$$LP$alloc..sync..Arc$LT$gimli..read..dwarf..Dwarf$LT$gimli..read..endian_slice..EndianSlice$LT$gimli..endianity..LittleEndian$GT$$GT$$GT$$C$gimli..read..dwarf..Unit$LT$gimli..read..endian_slice..EndianSlice$LT$gimli..endianity..LittleEndian$GT$$C$usize$GT$$RP$$GT$$GT$$C$gimli..read..Error$GT$$GT$17hc5b7eba6c2196267E', symObjAddr: 0x2B0C, symBinAddr: 0x100020C88, symSize: 0xD4 }
  - { offset: 0x5082E, size: 0x8, addend: 0x0, symName: '__ZN4core3ptr39drop_in_place$LT$std..path..PathBuf$GT$17h4f56829f9865deb7E', symObjAddr: 0x2BE0, symBinAddr: 0x100020D5C, symSize: 0x28 }
  - { offset: 0x50933, size: 0x8, addend: 0x0, symName: '__ZN4core3ptr40drop_in_place$LT$std..process..Child$GT$17h22a421cc86686e44E', symObjAddr: 0x2C08, symBinAddr: 0x100020D84, symSize: 0x54 }
  - { offset: 0x50AED, size: 0x8, addend: 0x0, symName: '__ZN4core3ptr40drop_in_place$LT$std..thread..Thread$GT$17h53b887f7e2493e43E', symObjAddr: 0x2C5C, symBinAddr: 0x100020DD8, symSize: 0x30 }
  - { offset: 0x50BBC, size: 0x8, addend: 0x0, symName: '__ZN4core3ptr41drop_in_place$LT$std..panicking..Hook$GT$17h38cf99798f034f8eE', symObjAddr: 0x2C8C, symBinAddr: 0x100020E08, symSize: 0x7C }
  - { offset: 0x50CB5, size: 0x8, addend: 0x0, symName: '__ZN4core3ptr42drop_in_place$LT$alloc..string..String$GT$17hcd01494a25ba2af2E', symObjAddr: 0x2D08, symBinAddr: 0x100020E84, symSize: 0x28 }
  - { offset: 0x50D82, size: 0x8, addend: 0x0, symName: '__ZN4core3ptr42drop_in_place$LT$std..io..error..Error$GT$17h2b0e9f2486e9c94bE', symObjAddr: 0x2D30, symBinAddr: 0x100020EAC, symSize: 0xB4 }
  - { offset: 0x50FB3, size: 0x8, addend: 0x0, symName: '__ZN4core3ptr44drop_in_place$LT$object..read..ObjectMap$GT$17h1c9ff34f1eb69361E', symObjAddr: 0x2DE4, symBinAddr: 0x100020F60, symSize: 0x58 }
  - { offset: 0x510F0, size: 0x8, addend: 0x0, symName: '__ZN4core3ptr44drop_in_place$LT$std..backtrace..Capture$GT$17ha8c2422dbeae44e3E', symObjAddr: 0x2E3C, symBinAddr: 0x100020FB8, symSize: 0x6C }
  - { offset: 0x511CF, size: 0x8, addend: 0x0, symName: '__ZN4core3ptr44drop_in_place$LT$std..thread..PanicGuard$GT$17h3d1b2d24006c9d4cE', symObjAddr: 0x2EA8, symBinAddr: 0x100021024, symSize: 0x44 }
  - { offset: 0x51223, size: 0x8, addend: 0x0, symName: '__ZN4core3ptr44drop_in_place$LT$std..thread..ThreadName$GT$17hdf4334493db505c8E', symObjAddr: 0x2EEC, symBinAddr: 0x100021068, symSize: 0x3C }
  - { offset: 0x512D0, size: 0x8, addend: 0x0, symName: '__ZN4core3ptr46drop_in_place$LT$alloc..vec..Vec$LT$u8$GT$$GT$17h5d7e9027fc96b78aE', symObjAddr: 0x2F28, symBinAddr: 0x1000210A4, symSize: 0x28 }
  - { offset: 0x5134F, size: 0x8, addend: 0x0, symName: '__ZN4core3ptr46drop_in_place$LT$std..io..stdio..StdinLock$GT$17h82544d3cad140442E', symObjAddr: 0x2F50, symBinAddr: 0x1000210CC, symSize: 0x68 }
  - { offset: 0x51483, size: 0x8, addend: 0x0, symName: '__ZN4core3ptr47drop_in_place$LT$alloc..ffi..c_str..CString$GT$17h866413208d5c5f93E', symObjAddr: 0x2FB8, symBinAddr: 0x100021134, symSize: 0x30 }
  - { offset: 0x51504, size: 0x8, addend: 0x0, symName: '__ZN4core3ptr47drop_in_place$LT$std..ffi..os_str..OsString$GT$17h7613e520c651ba5bE', symObjAddr: 0x2FE8, symBinAddr: 0x100021164, symSize: 0x28 }
  - { offset: 0x51591, size: 0x8, addend: 0x0, symName: '__ZN4core3ptr48drop_in_place$LT$alloc..ffi..c_str..NulError$GT$17h55c1c5fab4a439e4E', symObjAddr: 0x3010, symBinAddr: 0x10002118C, symSize: 0x28 }
  - { offset: 0x51618, size: 0x8, addend: 0x0, symName: '__ZN4core3ptr49drop_in_place$LT$std..sys..pal..unix..os..Env$GT$17h9cc6a62b73f08be7E', symObjAddr: 0x3038, symBinAddr: 0x1000211B4, symSize: 0xAC }
  - { offset: 0x51915, size: 0x8, addend: 0x0, symName: '__ZN4core3ptr51drop_in_place$LT$std..backtrace..BacktraceFrame$GT$17h285e1b35d760f26cE', symObjAddr: 0x30E4, symBinAddr: 0x100021260, symSize: 0xE4 }
  - { offset: 0x51B84, size: 0x8, addend: 0x0, symName: '__ZN4core3ptr52drop_in_place$LT$std..backtrace..BacktraceSymbol$GT$17h82dfd6245946b29dE', symObjAddr: 0x31C8, symBinAddr: 0x100021344, symSize: 0x90 }
  - { offset: 0x51D5A, size: 0x8, addend: 0x0, symName: '__ZN4core3ptr52drop_in_place$LT$std..sys..pal..unix..args..Args$GT$17h756527ee3c6b3ac8E', symObjAddr: 0x3258, symBinAddr: 0x1000213D4, symSize: 0x98 }
  - { offset: 0x51F44, size: 0x8, addend: 0x0, symName: '__ZN4core3ptr54drop_in_place$LT$std..sys..pal..unix..fd..FileDesc$GT$17h2e791ac76f24eea3E', symObjAddr: 0x32F0, symBinAddr: 0x10002146C, symSize: 0x14 }
  - { offset: 0x51FAE, size: 0x8, addend: 0x0, symName: '__ZN4core3ptr55drop_in_place$LT$gimli..read..abbrev..Abbreviations$GT$17h4fa2f3e326c438baE', symObjAddr: 0x3304, symBinAddr: 0x100021480, symSize: 0x84 }
  - { offset: 0x5211B, size: 0x8, addend: 0x0, symName: '__ZN4core3ptr57drop_in_place$LT$std..sys_common..process..CommandEnv$GT$17hd0c084ea39aa2c4cE', symObjAddr: 0x3388, symBinAddr: 0x100021504, symSize: 0x10 }
  - { offset: 0x52160, size: 0x8, addend: 0x0, symName: '__ZN4core3ptr60drop_in_place$LT$gimli..read..abbrev..AbbreviationsCache$GT$17ha2c72b883a64e571E', symObjAddr: 0x3398, symBinAddr: 0x100021514, symSize: 0xCC }
  - { offset: 0x522F4, size: 0x8, addend: 0x0, symName: '__ZN4core3ptr62drop_in_place$LT$std..sys..sync..rwlock..queue..PanicGuard$GT$17h0f87a14b4a232d8fE', symObjAddr: 0x3464, symBinAddr: 0x1000215E0, symSize: 0x44 }
  - { offset: 0x52356, size: 0x8, addend: 0x0, symName: '__ZN4core3ptr65drop_in_place$LT$alloc..vec..Vec$LT$alloc..string..String$GT$$GT$17ha46e6013a504a85fE', symObjAddr: 0x34A8, symBinAddr: 0x100021624, symSize: 0x80 }
  - { offset: 0x524A6, size: 0x8, addend: 0x0, symName: '__ZN4core3ptr65drop_in_place$LT$std..backtrace_rs..symbolize..gimli..Mapping$GT$17h73751e99b3e0544dE', symObjAddr: 0x3528, symBinAddr: 0x1000216A4, symSize: 0x70 }
  - { offset: 0x5255E, size: 0x8, addend: 0x0, symName: '__ZN4core3ptr67drop_in_place$LT$alloc..vec..Vec$LT$addr2line..LineSequence$GT$$GT$17hb513da859e5c8ab6E', symObjAddr: 0x3598, symBinAddr: 0x100021714, symSize: 0x84 }
  - { offset: 0x526A0, size: 0x8, addend: 0x0, symName: '__ZN4core3ptr70drop_in_place$LT$alloc..vec..Vec$LT$alloc..ffi..c_str..CString$GT$$GT$17h5d95a421bf4059dcE', symObjAddr: 0x361C, symBinAddr: 0x100021798, symSize: 0x80 }
  - { offset: 0x527CD, size: 0x8, addend: 0x0, symName: '__ZN4core3ptr70drop_in_place$LT$alloc..vec..Vec$LT$std..ffi..os_str..OsString$GT$$GT$17hd6f1baea30e123e0E', symObjAddr: 0x369C, symBinAddr: 0x100021818, symSize: 0x80 }
  - { offset: 0x52986, size: 0x8, addend: 0x0, symName: '__ZN4core3ptr70drop_in_place$LT$std..backtrace_rs..symbolize..gimli..stash..Stash$GT$17h94d40a2cdb6e32d7E', symObjAddr: 0x371C, symBinAddr: 0x100021898, symSize: 0xB8 }
  - { offset: 0x52C2A, size: 0x8, addend: 0x0, symName: '__ZN4core3ptr71drop_in_place$LT$std..backtrace_rs..symbolize..gimli..macho..Object$GT$17h88ea9f365f74b02cE', symObjAddr: 0x37D4, symBinAddr: 0x100021950, symSize: 0x15C }
  - { offset: 0x52F36, size: 0x8, addend: 0x0, symName: '__ZN4core3ptr71drop_in_place$LT$std..panicking..rust_panic_without_hook..RewrapBox$GT$17h39eaf9ac151373b8E', symObjAddr: 0x3930, symBinAddr: 0x100021AAC, symSize: 0x6C }
  - { offset: 0x5302F, size: 0x8, addend: 0x0, symName: '__ZN4core3ptr71drop_in_place$LT$std..sync..rwlock..RwLockReadGuard$LT$$LP$$RP$$GT$$GT$17h7abfce6813421e1fE', symObjAddr: 0x399C, symBinAddr: 0x100021B18, symSize: 0x44 }
  - { offset: 0x530E1, size: 0x8, addend: 0x0, symName: '__ZN4core3ptr72drop_in_place$LT$core..option..Option$LT$object..read..ObjectMap$GT$$GT$17ha5f91d0d9c16dab1E', symObjAddr: 0x39E0, symBinAddr: 0x100021B5C, symSize: 0x64 }
  - { offset: 0x5320A, size: 0x8, addend: 0x0, symName: '__ZN4core3ptr73drop_in_place$LT$core..option..Option$LT$std..process..ChildStdin$GT$$GT$17h48ae0c3e74754cedE', symObjAddr: 0x3A44, symBinAddr: 0x100021BC0, symSize: 0x24 }
  - { offset: 0x5328C, size: 0x8, addend: 0x0, symName: '__ZN4core3ptr75drop_in_place$LT$core..option..Option$LT$alloc..ffi..c_str..CString$GT$$GT$17ha17f170e26d60827E', symObjAddr: 0x3A68, symBinAddr: 0x100021BE4, symSize: 0x34 }
  - { offset: 0x53323, size: 0x8, addend: 0x0, symName: '__ZN4core3ptr77drop_in_place$LT$alloc..boxed..Box$LT$$u5b$alloc..string..String$u5d$$GT$$GT$17h726f9a1ddbbb2021E', symObjAddr: 0x3A9C, symBinAddr: 0x100021C18, symSize: 0x70 }
  - { offset: 0x5333A, size: 0x8, addend: 0x0, symName: '__ZN4core3ptr77drop_in_place$LT$alloc..boxed..Box$LT$$u5b$alloc..string..String$u5d$$GT$$GT$17h726f9a1ddbbb2021E', symObjAddr: 0x3A9C, symBinAddr: 0x100021C18, symSize: 0x70 }
  - { offset: 0x53438, size: 0x8, addend: 0x0, symName: '__ZN4core3ptr77drop_in_place$LT$std..panicking..begin_panic_handler..FormatStringPayload$GT$17h3dd341b871a222aeE', symObjAddr: 0x3B0C, symBinAddr: 0x100021C88, symSize: 0x34 }
  - { offset: 0x534EC, size: 0x8, addend: 0x0, symName: '__ZN4core3ptr77drop_in_place$LT$std..sys..pal..unix..process..process_common..ChildPipes$GT$17hb9dac74fc079d835E', symObjAddr: 0x3B40, symBinAddr: 0x100021CBC, symSize: 0x78 }
  - { offset: 0x535FC, size: 0x8, addend: 0x0, symName: '__ZN4core3ptr77drop_in_place$LT$std..sys..pal..unix..process..process_common..StdioPipes$GT$17h3b9f07d6dbe5bc62E', symObjAddr: 0x3BB8, symBinAddr: 0x100021D34, symSize: 0x54 }
  - { offset: 0x53758, size: 0x8, addend: 0x0, symName: '__ZN4core3ptr78drop_in_place$LT$core..result..Result$LT$usize$C$std..io..error..Error$GT$$GT$17h0ddcc17ec6130291E', symObjAddr: 0x3C0C, symBinAddr: 0x100021D88, symSize: 0x24 }
  - { offset: 0x5376C, size: 0x8, addend: 0x0, symName: '__ZN4core3ptr79drop_in_place$LT$std..sys..pal..unix..process..process_common..CStringArray$GT$17h161bab841667ea38E', symObjAddr: 0x3C30, symBinAddr: 0x100021DAC, symSize: 0x98 }
  - { offset: 0x53927, size: 0x8, addend: 0x0, symName: '__ZN4core3ptr81drop_in_place$LT$core..result..Result$LT$$LP$$RP$$C$std..io..error..Error$GT$$GT$17hc2770a8d1a414b6bE', symObjAddr: 0x3CC8, symBinAddr: 0x100021E44, symSize: 0x20 }
  - { offset: 0x5393B, size: 0x8, addend: 0x0, symName: '__ZN4core3ptr84drop_in_place$LT$$LP$std..ffi..os_str..OsString$C$std..ffi..os_str..OsString$RP$$GT$17h5d2f5cbd145af6ffE', symObjAddr: 0x3CE8, symBinAddr: 0x100021E64, symSize: 0x4C }
  - { offset: 0x53A7A, size: 0x8, addend: 0x0, symName: '__ZN4core3ptr84drop_in_place$LT$alloc..sync..ArcInner$LT$gimli..read..abbrev..Abbreviations$GT$$GT$17h8876b37342673c8aE', symObjAddr: 0x3D34, symBinAddr: 0x100021EB0, symSize: 0x84 }
  - { offset: 0x53C2E, size: 0x8, addend: 0x0, symName: '__ZN4core3ptr86drop_in_place$LT$core..result..Result$LT$addr2line..Lines$C$gimli..read..Error$GT$$GT$17ha4c691398c70bb9cE', symObjAddr: 0x3DB8, symBinAddr: 0x100021F34, symSize: 0xE4 }
  - { offset: 0x53E82, size: 0x8, addend: 0x0, symName: '__ZN4core3ptr87drop_in_place$LT$alloc..sync..ArcInner$LT$std..sys..pal..unix..fs..InnerReadDir$GT$$GT$17hf9c3f636a01bee63E', symObjAddr: 0x3E9C, symBinAddr: 0x100022018, symSize: 0x60 }
  - { offset: 0x54017, size: 0x8, addend: 0x0, symName: '__ZN4core3ptr87drop_in_place$LT$core..option..Option$LT$alloc..boxed..Box$LT$$u5b$u32$u5d$$GT$$GT$$GT$17h5a0d09d3774be1f0E', symObjAddr: 0x3EFC, symBinAddr: 0x100022078, symSize: 0x34 }
  - { offset: 0x540F3, size: 0x8, addend: 0x0, symName: '__ZN4core3ptr88drop_in_place$LT$alloc..vec..Vec$LT$std..backtrace_rs..symbolize..gimli..Library$GT$$GT$17h04050c05a5d842bcE', symObjAddr: 0x3F30, symBinAddr: 0x1000220AC, symSize: 0x98 }
  - { offset: 0x542BB, size: 0x8, addend: 0x0, symName: '__ZN4core3ptr88drop_in_place$LT$std..io..Write..write_fmt..Adapter$LT$alloc..vec..Vec$LT$u8$GT$$GT$$GT$17h5358196583d41b36E', symObjAddr: 0x3FC8, symBinAddr: 0x100022144, symSize: 0x20 }
  - { offset: 0x54301, size: 0x8, addend: 0x0, symName: '__ZN4core3ptr90drop_in_place$LT$std..io..buffered..bufwriter..BufWriter$LT$W$GT$..flush_buf..BufGuard$GT$17h05f5ebe575167496E', symObjAddr: 0x3FE8, symBinAddr: 0x100022164, symSize: 0x60 }
  - { offset: 0x5446B, size: 0x8, addend: 0x0, symName: '__ZN4core3ptr91drop_in_place$LT$core..result..Result$LT$alloc..string..String$C$std..env..VarError$GT$$GT$17h4e0a16c9d60eca46E', symObjAddr: 0x4048, symBinAddr: 0x1000221C4, symSize: 0x3C }
  - { offset: 0x54502, size: 0x8, addend: 0x0, symName: '__ZN4core3ptr91drop_in_place$LT$core..result..Result$LT$std..path..PathBuf$C$std..io..error..Error$GT$$GT$17he2fe5d49e06075efE', symObjAddr: 0x4084, symBinAddr: 0x100022200, symSize: 0x40 }
  - { offset: 0x545C9, size: 0x8, addend: 0x0, symName: '__ZN4core3ptr92drop_in_place$LT$alloc..boxed..Box$LT$std..sys..sync..mutex..pthread..AllocatedMutex$GT$$GT$17hb1be1c1402585e5fE', symObjAddr: 0x40C4, symBinAddr: 0x100022240, symSize: 0x2C }
  - { offset: 0x54666, size: 0x8, addend: 0x0, symName: '__ZN4core3ptr95drop_in_place$LT$core..option..IntoIter$LT$std..backtrace_rs..symbolize..gimli..Library$GT$$GT$17hb13fd984bb29173bE', symObjAddr: 0x40F0, symBinAddr: 0x10002226C, symSize: 0x5C }
  - { offset: 0x54684, size: 0x8, addend: 0x0, symName: '__ZN4core3ptr95drop_in_place$LT$core..option..IntoIter$LT$std..backtrace_rs..symbolize..gimli..Library$GT$$GT$17hb13fd984bb29173bE', symObjAddr: 0x40F0, symBinAddr: 0x10002226C, symSize: 0x5C }
  - { offset: 0x54699, size: 0x8, addend: 0x0, symName: '__ZN4core3ptr95drop_in_place$LT$core..option..IntoIter$LT$std..backtrace_rs..symbolize..gimli..Library$GT$$GT$17hb13fd984bb29173bE', symObjAddr: 0x40F0, symBinAddr: 0x10002226C, symSize: 0x5C }
  - { offset: 0x547D8, size: 0x8, addend: 0x0, symName: '__ZN4core3ptr95drop_in_place$LT$std..io..buffered..linewriter..LineWriter$LT$std..io..stdio..StdoutRaw$GT$$GT$17h691b956c1d8f63d9E', symObjAddr: 0x414C, symBinAddr: 0x1000222C8, symSize: 0x84 }
  - { offset: 0x56CB7, size: 0x8, addend: 0x0, symName: '__ZN66_$LT$core..option..Option$LT$T$GT$$u20$as$u20$core..fmt..Debug$GT$3fmt17h05512150c1addc11E', symObjAddr: 0x17E64, symBinAddr: 0x1000359A4, symSize: 0x60 }
  - { offset: 0x56CD2, size: 0x8, addend: 0x0, symName: '__ZN66_$LT$core..option..Option$LT$T$GT$$u20$as$u20$core..fmt..Debug$GT$3fmt17h058ef1772b026c73E', symObjAddr: 0x17EC4, symBinAddr: 0x100035A04, symSize: 0x5C }
  - { offset: 0x56CED, size: 0x8, addend: 0x0, symName: '__ZN66_$LT$core..option..Option$LT$T$GT$$u20$as$u20$core..fmt..Debug$GT$3fmt17h273f19cc6fa9d080E', symObjAddr: 0x17F20, symBinAddr: 0x100035A60, symSize: 0x60 }
  - { offset: 0x56D08, size: 0x8, addend: 0x0, symName: '__ZN66_$LT$core..option..Option$LT$T$GT$$u20$as$u20$core..fmt..Debug$GT$3fmt17h583e07eeb2233c77E', symObjAddr: 0x17F80, symBinAddr: 0x100035AC0, symSize: 0x60 }
  - { offset: 0x56D23, size: 0x8, addend: 0x0, symName: '__ZN66_$LT$core..option..Option$LT$T$GT$$u20$as$u20$core..fmt..Debug$GT$3fmt17h70e8b344c6b48d2fE', symObjAddr: 0x17FE0, symBinAddr: 0x100035B20, symSize: 0x5C }
  - { offset: 0x56D3E, size: 0x8, addend: 0x0, symName: '__ZN66_$LT$core..option..Option$LT$T$GT$$u20$as$u20$core..fmt..Debug$GT$3fmt17hb22d3f4c59653ea1E', symObjAddr: 0x1803C, symBinAddr: 0x100035B7C, symSize: 0x60 }
  - { offset: 0x56D59, size: 0x8, addend: 0x0, symName: '__ZN66_$LT$core..option..Option$LT$T$GT$$u20$as$u20$core..fmt..Debug$GT$3fmt17hb7a6757fbf7a4532E', symObjAddr: 0x1809C, symBinAddr: 0x100035BDC, symSize: 0x60 }
  - { offset: 0x56D74, size: 0x8, addend: 0x0, symName: '__ZN66_$LT$core..option..Option$LT$T$GT$$u20$as$u20$core..fmt..Debug$GT$3fmt17hed7a8a634cef5e73E', symObjAddr: 0x180FC, symBinAddr: 0x100035C3C, symSize: 0x5C }
  - { offset: 0x56D8F, size: 0x8, addend: 0x0, symName: '__ZN66_$LT$core..option..Option$LT$T$GT$$u20$as$u20$core..fmt..Debug$GT$3fmt17hfe6192f917274507E', symObjAddr: 0x18158, symBinAddr: 0x100035C98, symSize: 0x60 }
  - { offset: 0x5950B, size: 0x8, addend: 0x0, symName: __ZN4core5slice4sort6shared5pivot11median3_rec17h0534ca6bde53f177E, symObjAddr: 0x459C, symBinAddr: 0x100022504, symSize: 0xD0 }
  - { offset: 0x59607, size: 0x8, addend: 0x0, symName: __ZN4core5slice4sort6shared5pivot11median3_rec17h0b8e67c634c5c3b8E, symObjAddr: 0x466C, symBinAddr: 0x1000225D4, symSize: 0xCC }
  - { offset: 0x59703, size: 0x8, addend: 0x0, symName: __ZN4core5slice4sort6shared5pivot11median3_rec17h32845867eb75765bE, symObjAddr: 0x4738, symBinAddr: 0x1000226A0, symSize: 0x11C }
  - { offset: 0x59803, size: 0x8, addend: 0x0, symName: __ZN4core5slice4sort6shared5pivot11median3_rec17h5aa6296c9f7ae746E, symObjAddr: 0x4854, symBinAddr: 0x1000227BC, symSize: 0xCC }
  - { offset: 0x59955, size: 0x8, addend: 0x0, symName: __ZN4core5slice4sort6shared5pivot11median3_rec17ha632b79f98dc3967E, symObjAddr: 0x4920, symBinAddr: 0x100022888, symSize: 0xD0 }
  - { offset: 0x59A51, size: 0x8, addend: 0x0, symName: __ZN4core5slice4sort6shared5pivot11median3_rec17ha8ed7364fc6e6f61E, symObjAddr: 0x49F0, symBinAddr: 0x100022958, symSize: 0x134 }
  - { offset: 0x59C79, size: 0x8, addend: 0x0, symName: __ZN4core5slice4sort6shared5pivot11median3_rec17hec84e2f429b25122E, symObjAddr: 0x4B24, symBinAddr: 0x100022A8C, symSize: 0xD0 }
  - { offset: 0x59D75, size: 0x8, addend: 0x0, symName: __ZN4core5slice4sort6shared5pivot11median3_rec17hf4028786c4f7746cE, symObjAddr: 0x4BF4, symBinAddr: 0x100022B5C, symSize: 0xCC }
  - { offset: 0x59F48, size: 0x8, addend: 0x0, symName: __ZN4core5slice4sort6shared9smallsort12sort4_stable17h7e441015973a9447E, symObjAddr: 0x4CC0, symBinAddr: 0x100022C28, symSize: 0x1A4 }
  - { offset: 0x5A0F3, size: 0x8, addend: 0x0, symName: __ZN4core5slice4sort6shared9smallsort12sort4_stable17hed864d17efc3d973E, symObjAddr: 0x4E64, symBinAddr: 0x100022DCC, symSize: 0x180 }
  - { offset: 0x5A515, size: 0x8, addend: 0x0, symName: __ZN4core5slice4sort6shared9smallsort12sort8_stable17h690803de50e7907dE, symObjAddr: 0x4FE4, symBinAddr: 0x100022F4C, symSize: 0x2B8 }
  - { offset: 0x5AA9E, size: 0x8, addend: 0x0, symName: __ZN4core5slice4sort6shared9smallsort18small_sort_general17h2c0f0fa1539f628dE, symObjAddr: 0x529C, symBinAddr: 0x100023204, symSize: 0x3E0 }
  - { offset: 0x5AFF9, size: 0x8, addend: 0x0, symName: __ZN4core5slice4sort6shared9smallsort18small_sort_general17h3bed075cb7deed06E, symObjAddr: 0x567C, symBinAddr: 0x1000235E4, symSize: 0x48C }
  - { offset: 0x5B9E8, size: 0x8, addend: 0x0, symName: __ZN4core5slice4sort6stable14driftsort_main17h22633d844a320b1bE, symObjAddr: 0x5B08, symBinAddr: 0x100023A70, symSize: 0x128 }
  - { offset: 0x5BBF9, size: 0x8, addend: 0x0, symName: __ZN4core5slice4sort6stable14driftsort_main17h496d51656247e842E, symObjAddr: 0x5C30, symBinAddr: 0x100023B98, symSize: 0x128 }
  - { offset: 0x5BE76, size: 0x8, addend: 0x0, symName: __ZN4core5slice4sort6stable14driftsort_main17h5a6d3e7fa837cc90E, symObjAddr: 0x5D58, symBinAddr: 0x100023CC0, symSize: 0x128 }
  - { offset: 0x5C0F3, size: 0x8, addend: 0x0, symName: __ZN4core5slice4sort6stable14driftsort_main17h7d14e312668f708eE, symObjAddr: 0x5E80, symBinAddr: 0x100023DE8, symSize: 0x138 }
  - { offset: 0x5C370, size: 0x8, addend: 0x0, symName: __ZN4core5slice4sort6stable14driftsort_main17h95c2393b0254706aE, symObjAddr: 0x5FB8, symBinAddr: 0x100023F20, symSize: 0x128 }
  - { offset: 0x5C5ED, size: 0x8, addend: 0x0, symName: __ZN4core5slice4sort6stable14driftsort_main17hd75afaeb2565969fE, symObjAddr: 0x60E0, symBinAddr: 0x100024048, symSize: 0x138 }
  - { offset: 0x5CA5B, size: 0x8, addend: 0x0, symName: __ZN4core5slice4sort6stable5drift4sort17h60cc9182136cda5cE, symObjAddr: 0x6218, symBinAddr: 0x100024180, symSize: 0x540 }
  - { offset: 0x5D1C9, size: 0x8, addend: 0x0, symName: __ZN4core5slice4sort6stable5drift4sort17h71d3a7c237d8bc21E, symObjAddr: 0x6758, symBinAddr: 0x1000246C0, symSize: 0x6E4 }
  - { offset: 0x5D917, size: 0x8, addend: 0x0, symName: __ZN4core5slice4sort6stable5drift4sort17h86ad6bb9081aaa2fE, symObjAddr: 0x6E3C, symBinAddr: 0x100024DA4, symSize: 0x5C4 }
  - { offset: 0x5E042, size: 0x8, addend: 0x0, symName: __ZN4core5slice4sort6stable5drift4sort17h87684b83ddb42972E, symObjAddr: 0x7400, symBinAddr: 0x100025368, symSize: 0x610 }
  - { offset: 0x5E72D, size: 0x8, addend: 0x0, symName: __ZN4core5slice4sort6stable5drift4sort17hb681bb09c11579ccE, symObjAddr: 0x7A10, symBinAddr: 0x100025978, symSize: 0x4DC }
  - { offset: 0x5EDE7, size: 0x8, addend: 0x0, symName: __ZN4core5slice4sort6stable5drift4sort17hbf49ec332eaaf34eE, symObjAddr: 0x7EEC, symBinAddr: 0x100025E54, symSize: 0x5BC }
  - { offset: 0x5F6C2, size: 0x8, addend: 0x0, symName: __ZN4core5slice4sort6stable9quicksort9quicksort17h1515c4092c302c3dE, symObjAddr: 0x84A8, symBinAddr: 0x100026410, symSize: 0x81C }
  - { offset: 0x6078D, size: 0x8, addend: 0x0, symName: __ZN4core5slice4sort6stable9quicksort9quicksort17h4e99096524226925E, symObjAddr: 0x8CC4, symBinAddr: 0x100026C2C, symSize: 0x730 }
  - { offset: 0x60F0D, size: 0x8, addend: 0x0, symName: __ZN4core5slice4sort6stable9quicksort9quicksort17h509f541a5f8ec74eE, symObjAddr: 0x93F4, symBinAddr: 0x10002735C, symSize: 0x78C }
  - { offset: 0x61C5A, size: 0x8, addend: 0x0, symName: __ZN4core5slice4sort6stable9quicksort9quicksort17h63bc058d18821eb1E, symObjAddr: 0x9B80, symBinAddr: 0x100027AE8, symSize: 0x820 }
  - { offset: 0x62899, size: 0x8, addend: 0x0, symName: __ZN4core5slice4sort6stable9quicksort9quicksort17h7dc19a129485b3dbE, symObjAddr: 0xA3A0, symBinAddr: 0x100028308, symSize: 0x684 }
  - { offset: 0x634BB, size: 0x8, addend: 0x0, symName: __ZN4core5slice4sort6stable9quicksort9quicksort17hde2118cea34212b8E, symObjAddr: 0xAA24, symBinAddr: 0x10002898C, symSize: 0x6BC }
  - { offset: 0x63FD9, size: 0x8, addend: 0x0, symName: __ZN4core5slice4sort8unstable7ipnsort17h5288bd6041973aecE, symObjAddr: 0xB0E0, symBinAddr: 0x100029048, symSize: 0x280 }
  - { offset: 0x6426B, size: 0x8, addend: 0x0, symName: __ZN4core5slice4sort8unstable7ipnsort17h5c9d94b5a2a0e6c7E, symObjAddr: 0xB360, symBinAddr: 0x1000292C8, symSize: 0x1DC }
  - { offset: 0x64381, size: 0x8, addend: 0x0, symName: __ZN4core5slice4sort8unstable8heapsort8heapsort17hb67a2a465a84c732E, symObjAddr: 0xB53C, symBinAddr: 0x1000294A4, symSize: 0xCC }
  - { offset: 0x644A2, size: 0x8, addend: 0x0, symName: __ZN4core5slice4sort8unstable8heapsort8heapsort17hf941a15be94bf67eE, symObjAddr: 0xB608, symBinAddr: 0x100029570, symSize: 0xCC }
  - { offset: 0x645C3, size: 0x8, addend: 0x0, symName: __ZN4core5slice4sort8unstable8heapsort9sift_down17h5f2ddf0a38e296cbE, symObjAddr: 0xB6D4, symBinAddr: 0x10002963C, symSize: 0x100 }
  - { offset: 0x64782, size: 0x8, addend: 0x0, symName: __ZN4core5slice4sort8unstable8heapsort9sift_down17hd0a87b5e90d5dea7E, symObjAddr: 0xB7D4, symBinAddr: 0x10002973C, symSize: 0xC4 }
  - { offset: 0x648CD, size: 0x8, addend: 0x0, symName: __ZN4core5slice4sort8unstable9quicksort9quicksort17h19812907f46dbe1aE, symObjAddr: 0xB898, symBinAddr: 0x100029800, symSize: 0x468 }
  - { offset: 0x650EC, size: 0x8, addend: 0x0, symName: __ZN4core5slice4sort8unstable9quicksort9quicksort17ha2a0900214ce7a36E, symObjAddr: 0xBD00, symBinAddr: 0x100029C68, symSize: 0x5D8 }
  - { offset: 0x65E43, size: 0x8, addend: 0x0, symName: '__ZN36_$LT$T$u20$as$u20$core..any..Any$GT$7type_id17h45c34de45125290fE', symObjAddr: 0x128, symBinAddr: 0x10001E2A4, symSize: 0x30 }
  - { offset: 0x65E5D, size: 0x8, addend: 0x0, symName: '__ZN36_$LT$T$u20$as$u20$core..any..Any$GT$7type_id17h607b95c48c373ee8E', symObjAddr: 0x158, symBinAddr: 0x10001E2D4, symSize: 0x30 }
  - { offset: 0x65E77, size: 0x8, addend: 0x0, symName: '__ZN36_$LT$T$u20$as$u20$core..any..Any$GT$7type_id17h6c8b8c3316132f4cE', symObjAddr: 0x188, symBinAddr: 0x10001E304, symSize: 0x30 }
  - { offset: 0x65F13, size: 0x8, addend: 0x0, symName: '__ZN41_$LT$bool$u20$as$u20$core..fmt..Debug$GT$3fmt17h8899a7d3f6070ae0E', symObjAddr: 0x1B8, symBinAddr: 0x10001E334, symSize: 0x10 }
  - { offset: 0x65FAE, size: 0x8, addend: 0x0, symName: '__ZN4core3fmt3num52_$LT$impl$u20$core..fmt..Debug$u20$for$u20$usize$GT$3fmt17hc6ee39df5af44366E', symObjAddr: 0xD54, symBinAddr: 0x10001EED0, symSize: 0x2C }
  - { offset: 0x65FEA, size: 0x8, addend: 0x0, symName: '__ZN4core3fmt3num50_$LT$impl$u20$core..fmt..Debug$u20$for$u20$u64$GT$3fmt17h929cf2acb405774bE', symObjAddr: 0xD28, symBinAddr: 0x10001EEA4, symSize: 0x2C }
  - { offset: 0x66026, size: 0x8, addend: 0x0, symName: '__ZN4core3fmt3num50_$LT$impl$u20$core..fmt..Debug$u20$for$u20$i32$GT$3fmt17ha44be03f85eb0176E', symObjAddr: 0xCA4, symBinAddr: 0x10001EE20, symSize: 0x2C }
  - { offset: 0x66062, size: 0x8, addend: 0x0, symName: '__ZN4core3fmt3num50_$LT$impl$u20$core..fmt..Debug$u20$for$u20$u32$GT$3fmt17h31aa996ccf46335eE', symObjAddr: 0xCFC, symBinAddr: 0x10001EE78, symSize: 0x2C }
  - { offset: 0x6609E, size: 0x8, addend: 0x0, symName: '__ZN4core3fmt3num49_$LT$impl$u20$core..fmt..Debug$u20$for$u20$u8$GT$3fmt17h92769b6c3de71b18E', symObjAddr: 0xC78, symBinAddr: 0x10001EDF4, symSize: 0x2C }
  - { offset: 0x660CD, size: 0x8, addend: 0x0, symName: '__ZN4core3fmt3num50_$LT$impl$u20$core..fmt..Debug$u20$for$u20$i64$GT$3fmt17ha149ee16010f4982E', symObjAddr: 0xCD0, symBinAddr: 0x10001EE4C, symSize: 0x2C }
  - { offset: 0x66103, size: 0x8, addend: 0x0, symName: '__ZN42_$LT$$RF$T$u20$as$u20$core..fmt..Debug$GT$3fmt17h035b8a40731a12b1E', symObjAddr: 0x1C8, symBinAddr: 0x10001E344, symSize: 0x30 }
  - { offset: 0x66149, size: 0x8, addend: 0x0, symName: '__ZN42_$LT$$RF$T$u20$as$u20$core..fmt..Debug$GT$3fmt17h1873458755d6bfaeE', symObjAddr: 0x1F8, symBinAddr: 0x10001E374, symSize: 0x58 }
  - { offset: 0x6617A, size: 0x8, addend: 0x0, symName: '__ZN42_$LT$$RF$T$u20$as$u20$core..fmt..Debug$GT$3fmt17h25fe07880282f9edE', symObjAddr: 0x250, symBinAddr: 0x10001E3CC, symSize: 0xC8 }
  - { offset: 0x661A4, size: 0x8, addend: 0x0, symName: '__ZN42_$LT$$RF$T$u20$as$u20$core..fmt..Debug$GT$3fmt17h2ae5c7d3295cd6adE', symObjAddr: 0x318, symBinAddr: 0x10001E494, symSize: 0x14 }
  - { offset: 0x661BF, size: 0x8, addend: 0x0, symName: '__ZN42_$LT$$RF$T$u20$as$u20$core..fmt..Debug$GT$3fmt17h36874f61606ef3b0E', symObjAddr: 0x32C, symBinAddr: 0x10001E4A8, symSize: 0x6C }
  - { offset: 0x661F0, size: 0x8, addend: 0x0, symName: '__ZN42_$LT$$RF$T$u20$as$u20$core..fmt..Debug$GT$3fmt17h4f98e7904ca3c43fE', symObjAddr: 0x398, symBinAddr: 0x10001E514, symSize: 0x144 }
  - { offset: 0x66221, size: 0x8, addend: 0x0, symName: '__ZN42_$LT$$RF$T$u20$as$u20$core..fmt..Debug$GT$3fmt17h55364b5d19e919fbE', symObjAddr: 0x4DC, symBinAddr: 0x10001E658, symSize: 0x38 }
  - { offset: 0x66252, size: 0x8, addend: 0x0, symName: '__ZN42_$LT$$RF$T$u20$as$u20$core..fmt..Debug$GT$3fmt17h554ba96c5bc2054aE', symObjAddr: 0x514, symBinAddr: 0x10001E690, symSize: 0x64 }
  - { offset: 0x6627C, size: 0x8, addend: 0x0, symName: '__ZN42_$LT$$RF$T$u20$as$u20$core..fmt..Debug$GT$3fmt17h57bdd5b9ba9d5761E', symObjAddr: 0x578, symBinAddr: 0x10001E6F4, symSize: 0x38 }
  - { offset: 0x662BB, size: 0x8, addend: 0x0, symName: '__ZN42_$LT$$RF$T$u20$as$u20$core..fmt..Debug$GT$3fmt17h605b4d0c28b231d7E', symObjAddr: 0x5B0, symBinAddr: 0x10001E72C, symSize: 0x9C }
  - { offset: 0x66365, size: 0x8, addend: 0x0, symName: '__ZN42_$LT$$RF$T$u20$as$u20$core..fmt..Debug$GT$3fmt17h61f0231a29d1016cE', symObjAddr: 0x64C, symBinAddr: 0x10001E7C8, symSize: 0x64 }
  - { offset: 0x66396, size: 0x8, addend: 0x0, symName: '__ZN42_$LT$$RF$T$u20$as$u20$core..fmt..Debug$GT$3fmt17h6611b8e95a4d59edE', symObjAddr: 0x6B0, symBinAddr: 0x10001E82C, symSize: 0x4C }
  - { offset: 0x66405, size: 0x8, addend: 0x0, symName: '__ZN42_$LT$$RF$T$u20$as$u20$core..fmt..Debug$GT$3fmt17h73aab46faf7c81beE', symObjAddr: 0x6FC, symBinAddr: 0x10001E878, symSize: 0x2C }
  - { offset: 0x664F9, size: 0x8, addend: 0x0, symName: '__ZN42_$LT$$RF$T$u20$as$u20$core..fmt..Debug$GT$3fmt17h78f485bb8fe8d17bE', symObjAddr: 0x728, symBinAddr: 0x10001E8A4, symSize: 0x30 }
  - { offset: 0x6654D, size: 0x8, addend: 0x0, symName: '__ZN42_$LT$$RF$T$u20$as$u20$core..fmt..Debug$GT$3fmt17h7e37f69eaf642e6dE', symObjAddr: 0x758, symBinAddr: 0x10001E8D4, symSize: 0x2C }
  - { offset: 0x665BF, size: 0x8, addend: 0x0, symName: '__ZN42_$LT$$RF$T$u20$as$u20$core..fmt..Debug$GT$3fmt17h86b147f22f7d46a5E', symObjAddr: 0x784, symBinAddr: 0x10001E900, symSize: 0x14 }
  - { offset: 0x665DA, size: 0x8, addend: 0x0, symName: '__ZN42_$LT$$RF$T$u20$as$u20$core..fmt..Debug$GT$3fmt17h91301b55a11785ffE', symObjAddr: 0x798, symBinAddr: 0x10001E914, symSize: 0x64 }
  - { offset: 0x6660B, size: 0x8, addend: 0x0, symName: '__ZN42_$LT$$RF$T$u20$as$u20$core..fmt..Debug$GT$3fmt17h9be1edc3cea5f4a4E', symObjAddr: 0x7FC, symBinAddr: 0x10001E978, symSize: 0x1C }
  - { offset: 0x6661F, size: 0x8, addend: 0x0, symName: '__ZN42_$LT$$RF$T$u20$as$u20$core..fmt..Debug$GT$3fmt17ha738dcbcc539a552E', symObjAddr: 0x818, symBinAddr: 0x10001E994, symSize: 0x1C }
  - { offset: 0x66650, size: 0x8, addend: 0x0, symName: '__ZN42_$LT$$RF$T$u20$as$u20$core..fmt..Debug$GT$3fmt17hb074a3153394b13fE', symObjAddr: 0x834, symBinAddr: 0x10001E9B0, symSize: 0x20 }
  - { offset: 0x6668F, size: 0x8, addend: 0x0, symName: '__ZN42_$LT$$RF$T$u20$as$u20$core..fmt..Debug$GT$3fmt17hbf482749e872d0d2E', symObjAddr: 0x854, symBinAddr: 0x10001E9D0, symSize: 0x74 }
  - { offset: 0x6674E, size: 0x8, addend: 0x0, symName: '__ZN42_$LT$$RF$T$u20$as$u20$core..fmt..Debug$GT$3fmt17hc348eb28f40b67cbE', symObjAddr: 0x8C8, symBinAddr: 0x10001EA44, symSize: 0x1C }
  - { offset: 0x66769, size: 0x8, addend: 0x0, symName: '__ZN42_$LT$$RF$T$u20$as$u20$core..fmt..Debug$GT$3fmt17hc3dd8f51e17d0606E', symObjAddr: 0x8E4, symBinAddr: 0x10001EA60, symSize: 0x30 }
  - { offset: 0x667AF, size: 0x8, addend: 0x0, symName: '__ZN42_$LT$$RF$T$u20$as$u20$core..fmt..Debug$GT$3fmt17hc4deff5c3c4a87d2E', symObjAddr: 0x914, symBinAddr: 0x10001EA90, symSize: 0x38 }
  - { offset: 0x667EE, size: 0x8, addend: 0x0, symName: '__ZN42_$LT$$RF$T$u20$as$u20$core..fmt..Debug$GT$3fmt17hc5ca9bc5b58eeac5E', symObjAddr: 0x94C, symBinAddr: 0x10001EAC8, symSize: 0x1C }
  - { offset: 0x6681F, size: 0x8, addend: 0x0, symName: '__ZN42_$LT$$RF$T$u20$as$u20$core..fmt..Debug$GT$3fmt17hccf13b0b6133ed77E', symObjAddr: 0x968, symBinAddr: 0x10001EAE4, symSize: 0x30 }
  - { offset: 0x66865, size: 0x8, addend: 0x0, symName: '__ZN42_$LT$$RF$T$u20$as$u20$core..fmt..Debug$GT$3fmt17hcf172f27ccb6472eE', symObjAddr: 0x998, symBinAddr: 0x10001EB14, symSize: 0x74 }
  - { offset: 0x66896, size: 0x8, addend: 0x0, symName: '__ZN42_$LT$$RF$T$u20$as$u20$core..fmt..Debug$GT$3fmt17he00f1676ca75a544E', symObjAddr: 0xA0C, symBinAddr: 0x10001EB88, symSize: 0x70 }
  - { offset: 0x668C7, size: 0x8, addend: 0x0, symName: '__ZN42_$LT$$RF$T$u20$as$u20$core..fmt..Debug$GT$3fmt17he0a02c214950ec73E', symObjAddr: 0xA7C, symBinAddr: 0x10001EBF8, symSize: 0x78 }
  - { offset: 0x66986, size: 0x8, addend: 0x0, symName: '__ZN42_$LT$$RF$T$u20$as$u20$core..fmt..Debug$GT$3fmt17he0f92af6658fe571E', symObjAddr: 0xAF4, symBinAddr: 0x10001EC70, symSize: 0x44 }
  - { offset: 0x669B7, size: 0x8, addend: 0x0, symName: '__ZN42_$LT$$RF$T$u20$as$u20$core..fmt..Debug$GT$3fmt17he60d8b29453d9194E', symObjAddr: 0xB38, symBinAddr: 0x10001ECB4, symSize: 0x14 }
  - { offset: 0x669D2, size: 0x8, addend: 0x0, symName: '__ZN42_$LT$$RF$T$u20$as$u20$core..fmt..Debug$GT$3fmt17hee7af2f0cd4e1454E', symObjAddr: 0xB4C, symBinAddr: 0x10001ECC8, symSize: 0x68 }
  - { offset: 0x66A03, size: 0x8, addend: 0x0, symName: '__ZN42_$LT$$RF$T$u20$as$u20$core..fmt..Debug$GT$3fmt17hf9657e17b6d699daE', symObjAddr: 0xBB4, symBinAddr: 0x10001ED30, symSize: 0x74 }
  - { offset: 0x66C1D, size: 0x8, addend: 0x0, symName: '__ZN45_$LT$$LP$$RP$$u20$as$u20$core..fmt..Debug$GT$3fmt17hf473be81c0a30d72E', symObjAddr: 0xC58, symBinAddr: 0x10001EDD4, symSize: 0x20 }
  - { offset: 0x66C45, size: 0x8, addend: 0x0, symName: '__ZN50_$LT$$LP$U$C$T$RP$$u20$as$u20$core..fmt..Debug$GT$3fmt17hd4e9051e1089d1ceE', symObjAddr: 0xC3A0, symBinAddr: 0x10002A254, symSize: 0x74 }
  - { offset: 0x66C66, size: 0x8, addend: 0x0, symName: '__ZN44_$LT$$RF$T$u20$as$u20$core..fmt..Display$GT$3fmt17h2e4330607842d110E', symObjAddr: 0xC28, symBinAddr: 0x10001EDA4, symSize: 0x1C }
  - { offset: 0x66C81, size: 0x8, addend: 0x0, symName: '__ZN44_$LT$$RF$T$u20$as$u20$core..fmt..Display$GT$3fmt17h5e722bf78060dd9aE', symObjAddr: 0xC44, symBinAddr: 0x10001EDC0, symSize: 0x14 }
  - { offset: 0x66CBE, size: 0x8, addend: 0x0, symName: __ZN4core3fmt5Write10write_char17h03fe027584fb7b8aE, symObjAddr: 0xD80, symBinAddr: 0x10001EEFC, symSize: 0xC8 }
  - { offset: 0x66D12, size: 0x8, addend: 0x0, symName: __ZN4core3fmt5Write10write_char17h1a7cc692ce203d2bE, symObjAddr: 0xE48, symBinAddr: 0x10001EFC4, symSize: 0xC8 }
  - { offset: 0x66D66, size: 0x8, addend: 0x0, symName: __ZN4core3fmt5Write10write_char17h65fba614a2c32148E, symObjAddr: 0xF10, symBinAddr: 0x10001F08C, symSize: 0x148 }
  - { offset: 0x67001, size: 0x8, addend: 0x0, symName: __ZN4core3fmt5Write10write_char17hc530fcad25c3271cE, symObjAddr: 0x1058, symBinAddr: 0x10001F1D4, symSize: 0x120 }
  - { offset: 0x6715F, size: 0x8, addend: 0x0, symName: __ZN4core3fmt5Write10write_char17hdd83a334e90f0abbE, symObjAddr: 0x1178, symBinAddr: 0x10001F2F4, symSize: 0x140 }
  - { offset: 0x6721F, size: 0x8, addend: 0x0, symName: __ZN4core3fmt5Write9write_fmt17h7832dba1b2d41d75E, symObjAddr: 0x12B8, symBinAddr: 0x10001F434, symSize: 0x1C }
  - { offset: 0x6724E, size: 0x8, addend: 0x0, symName: __ZN4core3fmt5Write9write_fmt17h8f583c1cd83e3fdaE, symObjAddr: 0x12D4, symBinAddr: 0x10001F450, symSize: 0x1C }
  - { offset: 0x6727D, size: 0x8, addend: 0x0, symName: __ZN4core3fmt5Write9write_fmt17hd2ea283352ef0290E, symObjAddr: 0x12F0, symBinAddr: 0x10001F46C, symSize: 0x1C }
  - { offset: 0x672AC, size: 0x8, addend: 0x0, symName: __ZN4core3fmt5Write9write_fmt17he79ad15ec159b03bE, symObjAddr: 0x130C, symBinAddr: 0x10001F488, symSize: 0x1C }
  - { offset: 0x672DB, size: 0x8, addend: 0x0, symName: __ZN4core3fmt5Write9write_fmt17hf3fafc4986bcbc2aE, symObjAddr: 0x1328, symBinAddr: 0x10001F4A4, symSize: 0x1C }
  - { offset: 0x6730A, size: 0x8, addend: 0x0, symName: __ZN4core3fmt5Write9write_fmt17hfdb0c4514f1fb71bE, symObjAddr: 0x1344, symBinAddr: 0x10001F4C0, symSize: 0x1C }
  - { offset: 0x6783D, size: 0x8, addend: 0x0, symName: '__ZN50_$LT$$BP$mut$u20$T$u20$as$u20$core..fmt..Debug$GT$3fmt17h8582913e3852e093E', symObjAddr: 0xC38C, symBinAddr: 0x10002A240, symSize: 0x14 }
  - { offset: 0x6788A, size: 0x8, addend: 0x0, symName: '__ZN52_$LT$$RF$mut$u20$T$u20$as$u20$core..fmt..Display$GT$3fmt17h03b6186d188a349eE', symObjAddr: 0xC414, symBinAddr: 0x10002A2C8, symSize: 0x1C }
  - { offset: 0x678E5, size: 0x8, addend: 0x0, symName: '__ZN4core5array69_$LT$impl$u20$core..fmt..Debug$u20$for$u20$$u5b$T$u3b$$u20$N$u5d$$GT$3fmt17h9d1b174766f48c2bE', symObjAddr: 0x43E4, symBinAddr: 0x10002234C, symSize: 0xFC }
  - { offset: 0x68032, size: 0x8, addend: 0x0, symName: '__ZN73_$LT$core..num..nonzero..NonZero$LT$T$GT$$u20$as$u20$core..fmt..Debug$GT$3fmt17he43fa5ed80185e10E', symObjAddr: 0x185AC, symBinAddr: 0x1000360EC, symSize: 0x48 }
  - { offset: 0x689E0, size: 0x8, addend: 0x0, symName: '__ZN70_$LT$core..num..error..TryFromIntError$u20$as$u20$core..fmt..Debug$GT$3fmt17h305ddb5addda189bE', symObjAddr: 0x18550, symBinAddr: 0x100036090, symSize: 0x40 }
  - { offset: 0x68A00, size: 0x8, addend: 0x0, symName: '__ZN72_$LT$core..num..error..TryFromIntError$u20$as$u20$core..error..Error$GT$11description17h20dda52ab5f5a948E', symObjAddr: 0x18590, symBinAddr: 0x1000360D0, symSize: 0x1C }
  - { offset: 0x68C44, size: 0x8, addend: 0x0, symName: '__ZN55_$LT$$RF$str$u20$as$u20$core..str..pattern..Pattern$GT$15is_contained_in17h29c9037f41a5292fE', symObjAddr: 0xC430, symBinAddr: 0x10002A2E4, symSize: 0x3BC }
  - { offset: 0x690F5, size: 0x8, addend: 0x0, symName: '__ZN64_$LT$core..str..error..Utf8Error$u20$as$u20$core..fmt..Debug$GT$3fmt17hb83bfa153c1c07f9E', symObjAddr: 0x17CF4, symBinAddr: 0x100035834, symSize: 0x70 }
  - { offset: 0x6964A, size: 0x8, addend: 0x0, symName: '__ZN4core4cell4once17OnceCell$LT$T$GT$8try_init17h4ecab0050ee19b1eE', symObjAddr: 0x41D0, symBinAddr: 0x1000A4A7C, symSize: 0x144 }
  - { offset: 0x69950, size: 0x8, addend: 0x0, symName: '__ZN4core4cell4once17OnceCell$LT$T$GT$8try_init17h6fc0f5858f22d960E', symObjAddr: 0x4314, symBinAddr: 0x1000A4BC0, symSize: 0xD0 }
  - { offset: 0x6B248, size: 0x8, addend: 0x0, symName: __ZN4core3ops8function2Fn4call17hb9f19970acbb8fc5E, symObjAddr: 0x1360, symBinAddr: 0x10001F4DC, symSize: 0x14 }
  - { offset: 0x6B268, size: 0x8, addend: 0x0, symName: __ZN4core3ops8function5FnMut8call_mut17hc4545255b4d3711cE, symObjAddr: 0x1374, symBinAddr: 0x10001F4F0, symSize: 0x14 }
  - { offset: 0x6B2BC, size: 0x8, addend: 0x0, symName: '__ZN4core3ops8function6FnOnce40call_once$u7b$$u7b$vtable.shim$u7d$$u7d$17h01a05e975c8e0fafE', symObjAddr: 0x1388, symBinAddr: 0x10001F504, symSize: 0x10 }
  - { offset: 0x6B2F8, size: 0x8, addend: 0x0, symName: '__ZN4core3ops8function6FnOnce40call_once$u7b$$u7b$vtable.shim$u7d$$u7d$17h1d54896b8c4407d1E', symObjAddr: 0x1398, symBinAddr: 0x10001F514, symSize: 0x60 }
  - { offset: 0x6B407, size: 0x8, addend: 0x0, symName: '__ZN4core3ops8function6FnOnce40call_once$u7b$$u7b$vtable.shim$u7d$$u7d$17h47cba8c400a4f8b9E', symObjAddr: 0x13F8, symBinAddr: 0x10001F574, symSize: 0x28 }
  - { offset: 0x6B443, size: 0x8, addend: 0x0, symName: '__ZN4core3ops8function6FnOnce40call_once$u7b$$u7b$vtable.shim$u7d$$u7d$17h56cf6089b56f6aa8E', symObjAddr: 0x1420, symBinAddr: 0x10001F59C, symSize: 0x18 }
  - { offset: 0x6B494, size: 0x8, addend: 0x0, symName: '__ZN4core3ops8function6FnOnce40call_once$u7b$$u7b$vtable.shim$u7d$$u7d$17h584e0ad816f50c1bE', symObjAddr: 0x1438, symBinAddr: 0x10001F5B4, symSize: 0xB0 }
  - { offset: 0x6B5D7, size: 0x8, addend: 0x0, symName: '__ZN4core3ops8function6FnOnce40call_once$u7b$$u7b$vtable.shim$u7d$$u7d$17h87ce8f1cec794850E', symObjAddr: 0x14E8, symBinAddr: 0x10001F664, symSize: 0x74 }
  - { offset: 0x6B757, size: 0x8, addend: 0x0, symName: '__ZN4core3ops8function6FnOnce40call_once$u7b$$u7b$vtable.shim$u7d$$u7d$17h909ded468b711dfeE', symObjAddr: 0x155C, symBinAddr: 0x10001F6D8, symSize: 0x18 }
  - { offset: 0x6B7A8, size: 0x8, addend: 0x0, symName: '__ZN4core3ops8function6FnOnce40call_once$u7b$$u7b$vtable.shim$u7d$$u7d$17h9472b116ce35e948E', symObjAddr: 0x1574, symBinAddr: 0x10001F6F0, symSize: 0x28 }
  - { offset: 0x6B7E4, size: 0x8, addend: 0x0, symName: '__ZN4core3ops8function6FnOnce40call_once$u7b$$u7b$vtable.shim$u7d$$u7d$17h979dc5fcab70c0aaE', symObjAddr: 0x159C, symBinAddr: 0x10001F718, symSize: 0x18 }
  - { offset: 0x6B820, size: 0x8, addend: 0x0, symName: '__ZN4core3ops8function6FnOnce40call_once$u7b$$u7b$vtable.shim$u7d$$u7d$17hbec1828a61939a60E', symObjAddr: 0x15B4, symBinAddr: 0x10001F730, symSize: 0x78 }
  - { offset: 0x6B9BB, size: 0x8, addend: 0x0, symName: '__ZN4core3ops8function6FnOnce40call_once$u7b$$u7b$vtable.shim$u7d$$u7d$17hd0c9775e2f30ae44E', symObjAddr: 0x162C, symBinAddr: 0x10001F7A8, symSize: 0xA4 }
  - { offset: 0x6BAEB, size: 0x8, addend: 0x0, symName: '__ZN4core3ops8function6FnOnce40call_once$u7b$$u7b$vtable.shim$u7d$$u7d$17hd8dc28e1a19f0f7dE', symObjAddr: 0x16D0, symBinAddr: 0x10001F84C, symSize: 0x10 }
  - { offset: 0x6BB27, size: 0x8, addend: 0x0, symName: '__ZN4core3ops8function6FnOnce40call_once$u7b$$u7b$vtable.shim$u7d$$u7d$17hf47fdf10b439735eE', symObjAddr: 0x16E0, symBinAddr: 0x10001F85C, symSize: 0x28 }
  - { offset: 0x6BB63, size: 0x8, addend: 0x0, symName: '__ZN4core3ops8function6FnOnce40call_once$u7b$$u7b$vtable.shim$u7d$$u7d$17hfb98776129d27541E', symObjAddr: 0x1708, symBinAddr: 0x10001F884, symSize: 0x14 }
  - { offset: 0x6BB92, size: 0x8, addend: 0x0, symName: __ZN4core3ops8function6FnOnce9call_once17hdb662f428a26e25eE, symObjAddr: 0x171C, symBinAddr: 0x10001F898, symSize: 0xC }
  - { offset: 0x6F0BF, size: 0x8, addend: 0x0, symName: __ZN4core5error5Error5cause17h0070ca72b480c60eE, symObjAddr: 0x44E0, symBinAddr: 0x100022448, symSize: 0x14 }
  - { offset: 0x6F0D9, size: 0x8, addend: 0x0, symName: __ZN4core5error5Error5cause17h7a8ffd385e995a9cE, symObjAddr: 0x44F4, symBinAddr: 0x10002245C, symSize: 0x14 }
  - { offset: 0x6F0F3, size: 0x8, addend: 0x0, symName: __ZN4core5error5Error7provide17h6a9dd377fbd73831E, symObjAddr: 0x4508, symBinAddr: 0x100022470, symSize: 0x10 }
  - { offset: 0x6F10D, size: 0x8, addend: 0x0, symName: __ZN4core5error5Error7provide17ha5e3a1e82ff323b8E, symObjAddr: 0x4518, symBinAddr: 0x100022480, symSize: 0x10 }
  - { offset: 0x6F127, size: 0x8, addend: 0x0, symName: __ZN4core5error5Error7type_id17h6a58e055ebfbabf0E, symObjAddr: 0x4528, symBinAddr: 0x100022490, symSize: 0x30 }
  - { offset: 0x6F141, size: 0x8, addend: 0x0, symName: __ZN4core5error5Error7type_id17h931d063bc74fac4aE, symObjAddr: 0x4558, symBinAddr: 0x1000224C0, symSize: 0x30 }
  - { offset: 0x6F167, size: 0x8, addend: 0x0, symName: __ZN4core5panic12PanicPayload6as_str17h70068a8135d4d2abE, symObjAddr: 0x4588, symBinAddr: 0x1000224F0, symSize: 0x14 }
  - { offset: 0x70092, size: 0x8, addend: 0x0, symName: __ZN4core9panicking13assert_failed17h96e128e0d0243447E, symObjAddr: 0xC2D8, symBinAddr: 0x1000A4C90, symSize: 0x30 }
  - { offset: 0x700AD, size: 0x8, addend: 0x0, symName: __ZN4core9panicking13assert_failed17h9adad02e67577145E, symObjAddr: 0xC308, symBinAddr: 0x1000A4CC0, symSize: 0x40 }
  - { offset: 0x700C9, size: 0x8, addend: 0x0, symName: __ZN4core9panicking13assert_failed17hc423c3cd3f27717cE, symObjAddr: 0xC348, symBinAddr: 0x1000A4D00, symSize: 0x44 }
  - { offset: 0x70986, size: 0x8, addend: 0x0, symName: '__ZN92_$LT$std..sys..pal..unix..process..process_inner..ExitStatus$u20$as$u20$core..fmt..Debug$GT$3fmt17hb13b59a80bdf0898E', symObjAddr: 0x42FD4, symBinAddr: 0x10005FD40, symSize: 0x58 }
  - { offset: 0x709E6, size: 0x8, addend: 0x0, symName: __ZN3std3sys3pal4unix7process13process_inner7Process4wait17h290f5cbcb9460265E, symObjAddr: 0x42EFC, symBinAddr: 0x10005FC68, symSize: 0xD8 }
  - { offset: 0x70B7B, size: 0x8, addend: 0x0, symName: '__ZN193_$LT$std..sys..pal..unix..process..process_inner..$LT$impl$u20$std..sys..pal..unix..process..process_common..Command$GT$..posix_spawn..PosixSpawnFileActions$u20$as$u20$core..ops..drop..Drop$GT$4drop17h0e075605561eee94E', symObjAddr: 0x42ED4, symBinAddr: 0x10005FC40, symSize: 0x14 }
  - { offset: 0x70BA3, size: 0x8, addend: 0x0, symName: '__ZN186_$LT$std..sys..pal..unix..process..process_inner..$LT$impl$u20$std..sys..pal..unix..process..process_common..Command$GT$..posix_spawn..PosixSpawnattr$u20$as$u20$core..ops..drop..Drop$GT$4drop17h6be71d5f36ece00dE', symObjAddr: 0x42EE8, symBinAddr: 0x10005FC54, symSize: 0x14 }
  - { offset: 0x70C09, size: 0x8, addend: 0x0, symName: '__ZN173_$LT$std..sys..pal..unix..process..process_inner..$LT$impl$u20$std..sys..pal..unix..process..process_common..Command$GT$..do_exec..Reset$u20$as$u20$core..ops..drop..Drop$GT$4drop17h895b157e3869b2ceE', symObjAddr: 0x42EB0, symBinAddr: 0x10005FC1C, symSize: 0x24 }
  - { offset: 0x70C63, size: 0x8, addend: 0x0, symName: '__ZN94_$LT$std..sys..pal..unix..process..process_inner..ExitStatus$u20$as$u20$core..fmt..Display$GT$3fmt17hb82f9b9a6ab615d1E', symObjAddr: 0x4302C, symBinAddr: 0x10005FD98, symSize: 0x1C0 }
  - { offset: 0x70DFC, size: 0x8, addend: 0x0, symName: '__ZN97_$LT$std..sys..pal..unix..process..process_inner..ExitStatusError$u20$as$u20$core..fmt..Debug$GT$3fmt17h150bb030a68c4416E', symObjAddr: 0x431EC, symBinAddr: 0x10005FF58, symSize: 0x58 }
  - { offset: 0x70E96, size: 0x8, addend: 0x0, symName: __ZN3std3sys3pal4unix7process14process_common7Command3new17ha183a9d8cac59761E, symObjAddr: 0x3F750, symBinAddr: 0x10005C4BC, symSize: 0x234 }
  - { offset: 0x7126B, size: 0x8, addend: 0x0, symName: __ZN3std3sys3pal4unix7process14process_common7Command9set_arg_017hb196ef7bd97f1775E, symObjAddr: 0x3F984, symBinAddr: 0x10005C6F0, symSize: 0xCC }
  - { offset: 0x71426, size: 0x8, addend: 0x0, symName: __ZN3std3sys3pal4unix7process14process_common7Command3arg17h9ccb55b6cd2dbb13E, symObjAddr: 0x3FA50, symBinAddr: 0x10005C7BC, symSize: 0xEC }
  - { offset: 0x7156B, size: 0x8, addend: 0x0, symName: __ZN3std3sys3pal4unix7process14process_common7Command3cwd17h173a95964f71277eE, symObjAddr: 0x3FB3C, symBinAddr: 0x10005C8A8, symSize: 0x60 }
  - { offset: 0x7161D, size: 0x8, addend: 0x0, symName: __ZN3std3sys3pal4unix7process14process_common7Command8pre_exec17he53ff4b7f57cb0c4E, symObjAddr: 0x3FB9C, symBinAddr: 0x10005C908, symSize: 0x70 }
  - { offset: 0x716B1, size: 0x8, addend: 0x0, symName: __ZN3std3sys3pal4unix7process14process_common7Command5stdin17hbff0f18d32528992E, symObjAddr: 0x3FC0C, symBinAddr: 0x10005C978, symSize: 0x44 }
  - { offset: 0x7173A, size: 0x8, addend: 0x0, symName: __ZN3std3sys3pal4unix7process14process_common7Command6stdout17h1fa80f1b70cadcbdE, symObjAddr: 0x3FC50, symBinAddr: 0x10005C9BC, symSize: 0x44 }
  - { offset: 0x717C3, size: 0x8, addend: 0x0, symName: __ZN3std3sys3pal4unix7process14process_common7Command6stderr17h3137bf5f2843aa96E, symObjAddr: 0x3FC94, symBinAddr: 0x10005CA00, symSize: 0x44 }
  - { offset: 0x7184C, size: 0x8, addend: 0x0, symName: __ZN3std3sys3pal4unix7process14process_common7Command11capture_env17h2525a13a6269d0e1E, symObjAddr: 0x3FCD8, symBinAddr: 0x10005CA44, symSize: 0xA14 }
  - { offset: 0x73106, size: 0x8, addend: 0x0, symName: __ZN3std3sys3pal4unix7process14process_common7Command8setup_io17h370087ec71f7a7c3E, symObjAddr: 0x406EC, symBinAddr: 0x10005D458, symSize: 0x29C }
  - { offset: 0x735EA, size: 0x8, addend: 0x0, symName: '__ZN3std3sys3pal4unix7process13process_inner71_$LT$impl$u20$std..sys..pal..unix..process..process_common..Command$GT$5spawn17h3e454931690fe97aE', symObjAddr: 0x420E4, symBinAddr: 0x10005EE50, symSize: 0x9A0 }
  - { offset: 0x747AB, size: 0x8, addend: 0x0, symName: '__ZN3std3sys3pal4unix7process13process_inner71_$LT$impl$u20$std..sys..pal..unix..process..process_common..Command$GT$7do_exec17hbcc5260fea1a82faE', symObjAddr: 0x42A84, symBinAddr: 0x10005F7F0, symSize: 0x42C }
  - { offset: 0x74F31, size: 0x8, addend: 0x0, symName: '__ZN116_$LT$std..sys..pal..unix..process..process_common..CommandArgs$u20$as$u20$core..iter..traits..iterator..Iterator$GT$4next17h3f710ee4da71ef7cE', symObjAddr: 0x41298, symBinAddr: 0x10005E004, symSize: 0x34 }
  - { offset: 0x74F48, size: 0x8, addend: 0x0, symName: '__ZN116_$LT$std..sys..pal..unix..process..process_common..CommandArgs$u20$as$u20$core..iter..traits..iterator..Iterator$GT$4next17h3f710ee4da71ef7cE', symObjAddr: 0x41298, symBinAddr: 0x10005E004, symSize: 0x34 }
  - { offset: 0x74FDC, size: 0x8, addend: 0x0, symName: '__ZN116_$LT$std..sys..pal..unix..process..process_common..CommandArgs$u20$as$u20$core..iter..traits..iterator..Iterator$GT$9size_hint17h238c339840140e8aE', symObjAddr: 0x412CC, symBinAddr: 0x10005E038, symSize: 0x28 }
  - { offset: 0x75045, size: 0x8, addend: 0x0, symName: '__ZN127_$LT$std..sys..pal..unix..process..process_common..CommandArgs$u20$as$u20$core..iter..traits..exact_size..ExactSizeIterator$GT$3len17hdeae497e2b22c823E', symObjAddr: 0x412F4, symBinAddr: 0x10005E060, symSize: 0x1C }
  - { offset: 0x7513C, size: 0x8, addend: 0x0, symName: __ZN3std3sys3pal4unix7process14process_common4os2c17hd72a55b605fe88f1E, symObjAddr: 0x40988, symBinAddr: 0x10005D6F4, symSize: 0x10C }
  - { offset: 0x75369, size: 0x8, addend: 0x0, symName: __ZN3std3sys3pal4unix7process14process_common5Stdio14to_child_stdio17hc9fdf1de6fcc078bE, symObjAddr: 0x40A94, symBinAddr: 0x10005D800, symSize: 0x13C }
  - { offset: 0x75401, size: 0x8, addend: 0x0, symName: '__ZN90_$LT$std..sys..pal..unix..process..process_common..Command$u20$as$u20$core..fmt..Debug$GT$3fmt17hcc3be04c9e103507E', symObjAddr: 0x40BD0, symBinAddr: 0x10005D93C, symSize: 0x670 }
  - { offset: 0x759C1, size: 0x8, addend: 0x0, symName: '__ZN91_$LT$std..sys..pal..unix..process..process_common..ExitCode$u20$as$u20$core..fmt..Debug$GT$3fmt17h9dcbcca9a0433e66E', symObjAddr: 0x41240, symBinAddr: 0x10005DFAC, symSize: 0x58 }
  - { offset: 0x759E2, size: 0x8, addend: 0x0, symName: '__ZN94_$LT$std..sys..pal..unix..process..process_common..CommandArgs$u20$as$u20$core..fmt..Debug$GT$3fmt17hf974abe6aa36a27fE', symObjAddr: 0x41310, symBinAddr: 0x10005E07C, symSize: 0x78 }
  - { offset: 0x75AB3, size: 0x8, addend: 0x0, symName: '__ZN77_$LT$std..sys..pal..unix..fs..FilePermissions$u20$as$u20$core..fmt..Debug$GT$3fmt17hdc84816e69b51ac4E', symObjAddr: 0x3B188, symBinAddr: 0x100057EF4, symSize: 0x6C }
  - { offset: 0x75C77, size: 0x8, addend: 0x0, symName: __ZN3std3sys3pal4unix2fs4File6open_c17h4906d4977c2d834eE, symObjAddr: 0x3B6B8, symBinAddr: 0x100058424, symSize: 0x190 }
  - { offset: 0x75D59, size: 0x8, addend: 0x0, symName: __ZN3std3sys3pal4unix2fs4File4read17hd734c5264025711aE, symObjAddr: 0x3B848, symBinAddr: 0x1000585B4, symSize: 0x4C }
  - { offset: 0x75E59, size: 0x8, addend: 0x0, symName: __ZN3std3sys3pal4unix2fs4File13read_vectored17h231322374b6c8684E, symObjAddr: 0x3B894, symBinAddr: 0x100058600, symSize: 0x4C }
  - { offset: 0x75F59, size: 0x8, addend: 0x0, symName: __ZN3std3sys3pal4unix2fs4File8read_buf17ha72d8e5091ab82d5E, symObjAddr: 0x3B8E0, symBinAddr: 0x10005864C, symSize: 0x78 }
  - { offset: 0x7630D, size: 0x8, addend: 0x0, symName: __ZN3std3sys3pal4unix2fs8DirEntry8metadata17hf39d6a9434b0914cE, symObjAddr: 0x3B424, symBinAddr: 0x100058190, symSize: 0x174 }
  - { offset: 0x767E1, size: 0x8, addend: 0x0, symName: '__ZN3std3sys3pal4unix2fs4stat28_$u7b$$u7b$closure$u7d$$u7d$17h6046b57f13291572E', symObjAddr: 0x3CE8C, symBinAddr: 0x100059BF8, symSize: 0xAC }
  - { offset: 0x768F3, size: 0x8, addend: 0x0, symName: '__ZN3std3sys3pal4unix2fs10DirBuilder5mkdir28_$u7b$$u7b$closure$u7d$$u7d$17h18654cc9a3fd203aE', symObjAddr: 0x3B958, symBinAddr: 0x1000586C4, symSize: 0x44 }
  - { offset: 0x76997, size: 0x8, addend: 0x0, symName: '__ZN3std3sys3pal4unix2fs5lstat28_$u7b$$u7b$closure$u7d$$u7d$17hf223c514bdf15331E', symObjAddr: 0x3D05C, symBinAddr: 0x100059DC8, symSize: 0xAC }
  - { offset: 0x76AAA, size: 0x8, addend: 0x0, symName: '__ZN70_$LT$std..sys..pal..unix..fs..FileType$u20$as$u20$core..fmt..Debug$GT$3fmt17hf551b4a6c616b98aE', symObjAddr: 0x3B11C, symBinAddr: 0x100057E88, symSize: 0x6C }
  - { offset: 0x76ACB, size: 0x8, addend: 0x0, symName: '__ZN69_$LT$std..sys..pal..unix..fs..ReadDir$u20$as$u20$core..fmt..Debug$GT$3fmt17h6c118a3bfca9bf03E', symObjAddr: 0x3B1F4, symBinAddr: 0x100057F60, symSize: 0x2C }
  - { offset: 0x76C48, size: 0x8, addend: 0x0, symName: '__ZN91_$LT$std..sys..pal..unix..fs..ReadDir$u20$as$u20$core..iter..traits..iterator..Iterator$GT$4next17hbb3a8042e6bd6a90E', symObjAddr: 0x3B220, symBinAddr: 0x100057F8C, symSize: 0x138 }
  - { offset: 0x76EBF, size: 0x8, addend: 0x0, symName: '__ZN70_$LT$std..sys..pal..unix..fs..Dir$u20$as$u20$core..ops..drop..Drop$GT$4drop17h15c09c148d755a50E', symObjAddr: 0x3B358, symBinAddr: 0x1000580C4, symSize: 0xCC }
  - { offset: 0x76F91, size: 0x8, addend: 0x0, symName: '__ZN73_$LT$std..sys..pal..unix..fs..OpenOptions$u20$as$u20$core..fmt..Debug$GT$3fmt17h74eeb4afebf26761E', symObjAddr: 0x3B598, symBinAddr: 0x100058304, symSize: 0x120 }
  - { offset: 0x76FB2, size: 0x8, addend: 0x0, symName: '__ZN72_$LT$std..sys..pal..unix..fs..DirBuilder$u20$as$u20$core..fmt..Debug$GT$3fmt17h42deb5a0b0ccd010E', symObjAddr: 0x3B99C, symBinAddr: 0x100058708, symSize: 0x6C }
  - { offset: 0x76FD3, size: 0x8, addend: 0x0, symName: '__ZN77_$LT$std..sys..pal..unix..fs..File$u20$as$u20$std..os..fd..raw..FromRawFd$GT$11from_raw_fd17h29594741897b59b4E', symObjAddr: 0x3BA08, symBinAddr: 0x100058774, symSize: 0x48 }
  - { offset: 0x77063, size: 0x8, addend: 0x0, symName: '__ZN66_$LT$std..sys..pal..unix..fs..File$u20$as$u20$core..fmt..Debug$GT$3fmt17h4bb5e0eac92aac09E', symObjAddr: 0x3BA50, symBinAddr: 0x1000587BC, symSize: 0x20C }
  - { offset: 0x77453, size: 0x8, addend: 0x0, symName: '__ZN66_$LT$std..sys..pal..unix..fs..Mode$u20$as$u20$core..fmt..Debug$GT$3fmt17hb216bbe83fe34a3cE', symObjAddr: 0x3BC5C, symBinAddr: 0x1000589C8, symSize: 0x328 }
  - { offset: 0x774BC, size: 0x8, addend: 0x0, symName: __ZN3std3sys3pal4unix2fs7readdir17h08496cfc7f3238f9E, symObjAddr: 0x3BF84, symBinAddr: 0x100058CF0, symSize: 0x19C }
  - { offset: 0x77763, size: 0x8, addend: 0x0, symName: '__ZN3std3sys3pal4unix2fs6unlink28_$u7b$$u7b$closure$u7d$$u7d$17h5ca63e474f323b09E', symObjAddr: 0x3C1E0, symBinAddr: 0x100058F4C, symSize: 0x38 }
  - { offset: 0x777E5, size: 0x8, addend: 0x0, symName: __ZN3std3sys3pal4unix2fs6unlink17he2409dc52867cd22E, symObjAddr: 0x3C120, symBinAddr: 0x100058E8C, symSize: 0xC0 }
  - { offset: 0x7790F, size: 0x8, addend: 0x0, symName: '__ZN3std3sys3pal4unix2fs6rename28_$u7b$$u7b$closure$u7d$$u7d$28_$u7b$$u7b$closure$u7d$$u7d$17he51eb182340d9ce5E', symObjAddr: 0x3C3F8, symBinAddr: 0x100059164, symSize: 0x38 }
  - { offset: 0x77991, size: 0x8, addend: 0x0, symName: '__ZN3std3sys3pal4unix2fs6rename28_$u7b$$u7b$closure$u7d$$u7d$17h47dad63c675e0442E', symObjAddr: 0x3C33C, symBinAddr: 0x1000590A8, symSize: 0xBC }
  - { offset: 0x77AA6, size: 0x8, addend: 0x0, symName: __ZN3std3sys3pal4unix2fs6rename17h46f0bcb45febcaf9E, symObjAddr: 0x3C218, symBinAddr: 0x100058F84, symSize: 0x124 }
  - { offset: 0x77C33, size: 0x8, addend: 0x0, symName: '__ZN3std3sys3pal4unix2fs8set_perm28_$u7b$$u7b$closure$u7d$$u7d$17h0abee1dbf1344164E', symObjAddr: 0x3C538, symBinAddr: 0x1000592A4, symSize: 0x90 }
  - { offset: 0x77CE6, size: 0x8, addend: 0x0, symName: __ZN3std3sys3pal4unix2fs8set_perm17hedad3245c628c791E, symObjAddr: 0x3C430, symBinAddr: 0x10005919C, symSize: 0x108 }
  - { offset: 0x77E35, size: 0x8, addend: 0x0, symName: '__ZN3std3sys3pal4unix2fs5rmdir28_$u7b$$u7b$closure$u7d$$u7d$17h1779d5a444d39f5aE', symObjAddr: 0x3C688, symBinAddr: 0x1000593F4, symSize: 0x38 }
  - { offset: 0x77EB7, size: 0x8, addend: 0x0, symName: __ZN3std3sys3pal4unix2fs5rmdir17h43cfa8129a7aafbdE, symObjAddr: 0x3C5C8, symBinAddr: 0x100059334, symSize: 0xC0 }
  - { offset: 0x77FC2, size: 0x8, addend: 0x0, symName: __ZN3std3sys3pal4unix2fs8readlink17h6cd395340f409670E, symObjAddr: 0x3C6C0, symBinAddr: 0x10005942C, symSize: 0xA4 }
  - { offset: 0x78051, size: 0x8, addend: 0x0, symName: '__ZN3std3sys3pal4unix2fs8readlink28_$u7b$$u7b$closure$u7d$$u7d$17h425b8eccac1fc684E', symObjAddr: 0x3C764, symBinAddr: 0x1000594D0, symSize: 0x1AC }
  - { offset: 0x783A2, size: 0x8, addend: 0x0, symName: '__ZN3std3sys3pal4unix2fs7symlink28_$u7b$$u7b$closure$u7d$$u7d$28_$u7b$$u7b$closure$u7d$$u7d$17h2b916e5c2cf3e0faE', symObjAddr: 0x3CAF0, symBinAddr: 0x10005985C, symSize: 0x38 }
  - { offset: 0x78424, size: 0x8, addend: 0x0, symName: '__ZN3std3sys3pal4unix2fs7symlink28_$u7b$$u7b$closure$u7d$$u7d$17hf86563a5897f38a1E', symObjAddr: 0x3CA34, symBinAddr: 0x1000597A0, symSize: 0xBC }
  - { offset: 0x78539, size: 0x8, addend: 0x0, symName: __ZN3std3sys3pal4unix2fs7symlink17hf6502b3054d4649fE, symObjAddr: 0x3C910, symBinAddr: 0x10005967C, symSize: 0x124 }
  - { offset: 0x786C5, size: 0x8, addend: 0x0, symName: '__ZN3std3sys3pal4unix2fs4link28_$u7b$$u7b$closure$u7d$$u7d$28_$u7b$$u7b$closure$u7d$$u7d$17ha83a9511308d875cE', symObjAddr: 0x3CD20, symBinAddr: 0x100059A8C, symSize: 0x48 }
  - { offset: 0x78747, size: 0x8, addend: 0x0, symName: '__ZN3std3sys3pal4unix2fs4link28_$u7b$$u7b$closure$u7d$$u7d$17he06e3b2bb82eb861E', symObjAddr: 0x3CC58, symBinAddr: 0x1000599C4, symSize: 0xC8 }
  - { offset: 0x7885C, size: 0x8, addend: 0x0, symName: __ZN3std3sys3pal4unix2fs4link17hfc3ddfdc37c19d90E, symObjAddr: 0x3CB28, symBinAddr: 0x100059894, symSize: 0x130 }
  - { offset: 0x789C2, size: 0x8, addend: 0x0, symName: __ZN3std3sys3pal4unix2fs4stat17hf53f8e596217f2dcE, symObjAddr: 0x3CD68, symBinAddr: 0x100059AD4, symSize: 0x124 }
  - { offset: 0x78B05, size: 0x8, addend: 0x0, symName: __ZN3std3sys3pal4unix2fs5lstat17hc6b882b96aa9c3b1E, symObjAddr: 0x3CF38, symBinAddr: 0x100059CA4, symSize: 0x124 }
  - { offset: 0x78C48, size: 0x8, addend: 0x0, symName: __ZN3std3sys3pal4unix2fs12canonicalize17h6e647de1b08a70e3E, symObjAddr: 0x3D108, symBinAddr: 0x100059E74, symSize: 0x14C }
  - { offset: 0x78EB0, size: 0x8, addend: 0x0, symName: '__ZN83_$LT$std..sys..pal..unix..fs..copy..FreeOnDrop$u20$as$u20$core..ops..drop..Drop$GT$4drop17h26b4a0c5d7674846E', symObjAddr: 0x3D718, symBinAddr: 0x10005A484, symSize: 0x14 }
  - { offset: 0x78EC5, size: 0x8, addend: 0x0, symName: '__ZN3std3sys3pal4unix2fs4copy28_$u7b$$u7b$closure$u7d$$u7d$17hcf562083069ad2b7E', symObjAddr: 0x3D72C, symBinAddr: 0x10005A498, symSize: 0x64 }
  - { offset: 0x78FAB, size: 0x8, addend: 0x0, symName: __ZN3std3sys3pal4unix2fs4copy17h7adf4df74add3136E, symObjAddr: 0x3D254, symBinAddr: 0x100059FC0, symSize: 0x4C4 }
  - { offset: 0x79A15, size: 0x8, addend: 0x0, symName: '__ZN3std3sys3pal4unix2fs5chown28_$u7b$$u7b$closure$u7d$$u7d$17h8f072787dc2c2587E', symObjAddr: 0x3D858, symBinAddr: 0x10005A5C4, symSize: 0x48 }
  - { offset: 0x79A97, size: 0x8, addend: 0x0, symName: __ZN3std3sys3pal4unix2fs5chown17h2dbb54cbb4048f9dE, symObjAddr: 0x3D790, symBinAddr: 0x10005A4FC, symSize: 0xC8 }
  - { offset: 0x79BB2, size: 0x8, addend: 0x0, symName: __ZN3std3sys3pal4unix2fs6fchown17ha3116d334d057870E, symObjAddr: 0x3D8A0, symBinAddr: 0x10005A60C, symSize: 0x34 }
  - { offset: 0x79C4D, size: 0x8, addend: 0x0, symName: '__ZN3std3sys3pal4unix2fs6lchown28_$u7b$$u7b$closure$u7d$$u7d$17h39f19c062427f7beE', symObjAddr: 0x3D99C, symBinAddr: 0x10005A708, symSize: 0x48 }
  - { offset: 0x79CCF, size: 0x8, addend: 0x0, symName: __ZN3std3sys3pal4unix2fs6lchown17h6bf6ebc64c0268bfE, symObjAddr: 0x3D8D4, symBinAddr: 0x10005A640, symSize: 0xC8 }
  - { offset: 0x79DFD, size: 0x8, addend: 0x0, symName: '__ZN3std3sys3pal4unix2fs6chroot28_$u7b$$u7b$closure$u7d$$u7d$17hd76708818418dc76E', symObjAddr: 0x3DAA4, symBinAddr: 0x10005A810, symSize: 0x38 }
  - { offset: 0x79E7F, size: 0x8, addend: 0x0, symName: __ZN3std3sys3pal4unix2fs6chroot17ha32ab26ef51cb05dE, symObjAddr: 0x3D9E4, symBinAddr: 0x10005A750, symSize: 0xC0 }
  - { offset: 0x79FCD, size: 0x8, addend: 0x0, symName: __ZN3std3sys3pal4unix2fs15remove_dir_impl24remove_dir_all_recursive17h3f94f59715c3dc7eE, symObjAddr: 0x3DADC, symBinAddr: 0x10005A848, symSize: 0x37C }
  - { offset: 0x7A753, size: 0x8, addend: 0x0, symName: '__ZN3std3sys3pal4unix2fs15remove_dir_impl21remove_dir_all_modern28_$u7b$$u7b$closure$u7d$$u7d$17hcbcfeec4afff4ecfE', symObjAddr: 0x3DE58, symBinAddr: 0x10005ABC4, symSize: 0x18 }
  - { offset: 0x7A784, size: 0x8, addend: 0x0, symName: __ZN3std3sys3pal4unix2fs15remove_dir_impl14remove_dir_all17hcf3c56579da7bc90E, symObjAddr: 0x3DE70, symBinAddr: 0x10005ABDC, symSize: 0x228 }
  - { offset: 0x7AA9C, size: 0x8, addend: 0x0, symName: '__ZN70_$LT$std..sys..pal..unix..fd..FileDesc$u20$as$u20$core..fmt..Debug$GT$3fmt17h87afec8f48d82967E', symObjAddr: 0x420A4, symBinAddr: 0x10005EE10, symSize: 0x40 }
  - { offset: 0x7AB4C, size: 0x8, addend: 0x0, symName: __ZN3std3sys3pal4unix2fd8FileDesc4read17h712cb9932f8cd227E, symObjAddr: 0x3A884, symBinAddr: 0x1000575F0, symSize: 0x4C }
  - { offset: 0x7AC36, size: 0x8, addend: 0x0, symName: __ZN3std3sys3pal4unix2fd8FileDesc13read_vectored17h4a3538f31db05f7fE, symObjAddr: 0x3A8D0, symBinAddr: 0x10005763C, symSize: 0x4C }
  - { offset: 0x7AD20, size: 0x8, addend: 0x0, symName: __ZN3std3sys3pal4unix2fd8FileDesc11read_to_end17hc8d4660448766ca6E, symObjAddr: 0x3A91C, symBinAddr: 0x100057688, symSize: 0x22C }
  - { offset: 0x7B0D5, size: 0x8, addend: 0x0, symName: __ZN3std3sys3pal4unix2fd8FileDesc7read_at17h024ec28b7b42c70cE, symObjAddr: 0x3AB48, symBinAddr: 0x1000578B4, symSize: 0x4C }
  - { offset: 0x7B1BF, size: 0x8, addend: 0x0, symName: __ZN3std3sys3pal4unix2fd8FileDesc8read_buf17h00399f23ec8ac094E, symObjAddr: 0x3AB94, symBinAddr: 0x100057900, symSize: 0x78 }
  - { offset: 0x7B383, size: 0x8, addend: 0x0, symName: __ZN3std3sys3pal4unix2fd8FileDesc16read_vectored_at17h662470a4e2d8d13eE, symObjAddr: 0x3AC0C, symBinAddr: 0x100057978, symSize: 0x10C }
  - { offset: 0x7B524, size: 0x8, addend: 0x0, symName: __ZN3std3sys3pal4unix2fd8FileDesc5write17hf416bc58177c3e14E, symObjAddr: 0x3AD18, symBinAddr: 0x100057A84, symSize: 0x4C }
  - { offset: 0x7B611, size: 0x8, addend: 0x0, symName: __ZN3std3sys3pal4unix2fd8FileDesc14write_vectored17h6e5d4b78b49d1f99E, symObjAddr: 0x3AD64, symBinAddr: 0x100057AD0, symSize: 0x4C }
  - { offset: 0x7B6FE, size: 0x8, addend: 0x0, symName: __ZN3std3sys3pal4unix2fd8FileDesc8write_at17h47bdeba8796bae2fE, symObjAddr: 0x3ADB0, symBinAddr: 0x100057B1C, symSize: 0x4C }
  - { offset: 0x7B7EB, size: 0x8, addend: 0x0, symName: __ZN3std3sys3pal4unix2fd8FileDesc17write_vectored_at17hedc7ed10b1001d65E, symObjAddr: 0x3ADFC, symBinAddr: 0x100057B68, symSize: 0x10C }
  - { offset: 0x7B98D, size: 0x8, addend: 0x0, symName: __ZN3std3sys3pal4unix2fd8FileDesc11set_cloexec17hc2fa3f9783b42679E, symObjAddr: 0x3AF08, symBinAddr: 0x100057C74, symSize: 0x40 }
  - { offset: 0x7BA39, size: 0x8, addend: 0x0, symName: __ZN3std3sys3pal4unix2fd8FileDesc15set_nonblocking17h49833274cc6710b9E, symObjAddr: 0x3AF48, symBinAddr: 0x100057CB4, symSize: 0x88 }
  - { offset: 0x7BC78, size: 0x8, addend: 0x0, symName: '__ZN71_$LT$$RF$std..sys..pal..unix..fd..FileDesc$u20$as$u20$std..io..Read$GT$4read17h95f4b082d21310e3E', symObjAddr: 0x3AFD0, symBinAddr: 0x100057D3C, symSize: 0x50 }
  - { offset: 0x7BD78, size: 0x8, addend: 0x0, symName: '__ZN71_$LT$$RF$std..sys..pal..unix..fd..FileDesc$u20$as$u20$std..io..Read$GT$8read_buf17he711c8aa31e7fdd1E', symObjAddr: 0x3B020, symBinAddr: 0x100057D8C, symSize: 0x7C }
  - { offset: 0x7BF52, size: 0x8, addend: 0x0, symName: '__ZN71_$LT$$RF$std..sys..pal..unix..fd..FileDesc$u20$as$u20$std..io..Read$GT$13read_vectored17he7a6e92218933707E', symObjAddr: 0x3B09C, symBinAddr: 0x100057E08, symSize: 0x50 }
  - { offset: 0x7C08D, size: 0x8, addend: 0x0, symName: '__ZN78_$LT$std..sys..pal..unix..fd..FileDesc$u20$as$u20$std..os..fd..owned..AsFd$GT$5as_fd17h2f8d1b95f73477f5E', symObjAddr: 0x3B0EC, symBinAddr: 0x100057E58, symSize: 0x30 }
  - { offset: 0x7C0B1, size: 0x8, addend: 0x0, symName: '__ZN78_$LT$std..sys..pal..unix..fd..FileDesc$u20$as$u20$std..os..fd..owned..AsFd$GT$5as_fd17h2f8d1b95f73477f5E', symObjAddr: 0x3B0EC, symBinAddr: 0x100057E58, symSize: 0x30 }
  - { offset: 0x7C1C4, size: 0x8, addend: 0x0, symName: '__ZN87_$LT$std..sys..pal..unix..os..Env$u20$as$u20$core..iter..traits..iterator..Iterator$GT$4next17h958d5c892b45cfc9E', symObjAddr: 0x3E9D8, symBinAddr: 0x10005B744, symSize: 0x48 }
  - { offset: 0x7C239, size: 0x8, addend: 0x0, symName: '__ZN87_$LT$std..sys..pal..unix..os..Env$u20$as$u20$core..iter..traits..iterator..Iterator$GT$9size_hint17hb94ca1582b3c8ef9E', symObjAddr: 0x3EA20, symBinAddr: 0x10005B78C, symSize: 0x38 }
  - { offset: 0x7C2C3, size: 0x8, addend: 0x0, symName: '__ZN94_$LT$std..sys..pal..unix..os..SplitPaths$u20$as$u20$core..iter..traits..iterator..Iterator$GT$4next17h933ddf84cafea6daE', symObjAddr: 0x3E784, symBinAddr: 0x10005B4F0, symSize: 0xA8 }
  - { offset: 0x7C40D, size: 0x8, addend: 0x0, symName: '__ZN78_$LT$std..sys..pal..unix..os..JoinPathsError$u20$as$u20$core..fmt..Display$GT$3fmt17h0fb85f921fbdea4eE', symObjAddr: 0x3E82C, symBinAddr: 0x10005B598, symSize: 0x5C }
  - { offset: 0x7C4E9, size: 0x8, addend: 0x0, symName: __ZN3std3sys3pal4unix2os5errno17hcbca0e2ca44fdb19E, symObjAddr: 0x3E5DC, symBinAddr: 0x10005B348, symSize: 0x18 }
  - { offset: 0x7C50F, size: 0x8, addend: 0x0, symName: '__ZN3std3sys3pal4unix2os5chdir28_$u7b$$u7b$closure$u7d$$u7d$17h8d7e43ebfd2f7f4aE', symObjAddr: 0x3E6CC, symBinAddr: 0x10005B438, symSize: 0x28 }
  - { offset: 0x7C524, size: 0x8, addend: 0x0, symName: __ZN3std3sys3pal4unix2os5chdir17h05cb402fc74fd44aE, symObjAddr: 0x3E5F4, symBinAddr: 0x10005B360, symSize: 0xD8 }
  - { offset: 0x7C61F, size: 0x8, addend: 0x0, symName: __ZN3std3sys3pal4unix2os11split_paths13bytes_to_path17h73356ec66e0c83c6E, symObjAddr: 0x3E6F4, symBinAddr: 0x10005B460, symSize: 0x90 }
  - { offset: 0x7C776, size: 0x8, addend: 0x0, symName: '__ZN73_$LT$std..sys..pal..unix..os..EnvStrDebug$u20$as$u20$core..fmt..Debug$GT$3fmt17h20d8d075bc6f907aE', symObjAddr: 0x3E888, symBinAddr: 0x10005B5F4, symSize: 0xD4 }
  - { offset: 0x7C9AC, size: 0x8, addend: 0x0, symName: '__ZN65_$LT$std..sys..pal..unix..os..Env$u20$as$u20$core..fmt..Debug$GT$3fmt17h98a72cd5162ff113E', symObjAddr: 0x3E95C, symBinAddr: 0x10005B6C8, symSize: 0x7C }
  - { offset: 0x7CA2C, size: 0x8, addend: 0x0, symName: __ZN3std3sys3pal4unix2os13env_read_lock17h4a3144dff18f9d7eE, symObjAddr: 0x3EA58, symBinAddr: 0x10005B7C4, symSize: 0x2D4 }
  - { offset: 0x7D0E7, size: 0x8, addend: 0x0, symName: '__ZN3std3sys3pal4unix2os6getenv28_$u7b$$u7b$closure$u7d$$u7d$17hc13fc6e1bc7c106cE', symObjAddr: 0x3ED2C, symBinAddr: 0x10005BA98, symSize: 0x124 }
  - { offset: 0x7D2E7, size: 0x8, addend: 0x0, symName: '__ZN3std3sys3pal4unix2os6setenv28_$u7b$$u7b$closure$u7d$$u7d$17h7c096fee9257ba2fE', symObjAddr: 0x3EF54, symBinAddr: 0x10005BCC0, symSize: 0x9C }
  - { offset: 0x7D362, size: 0x8, addend: 0x0, symName: '__ZN3std3sys3pal4unix2os6setenv28_$u7b$$u7b$closure$u7d$$u7d$28_$u7b$$u7b$closure$u7d$$u7d$17h3914a0621ba4fd4eE', symObjAddr: 0x3EFF0, symBinAddr: 0x10005BD5C, symSize: 0x144 }
  - { offset: 0x7D6FE, size: 0x8, addend: 0x0, symName: __ZN3std3sys3pal4unix2os6setenv17h5258aa1e8099a832E, symObjAddr: 0x3EE50, symBinAddr: 0x10005BBBC, symSize: 0x104 }
  - { offset: 0x7D7D9, size: 0x8, addend: 0x0, symName: __ZN3std3sys3pal4unix2os8unsetenv17h37b8fd35a9cedddbE, symObjAddr: 0x3F134, symBinAddr: 0x10005BEA0, symSize: 0xA0 }
  - { offset: 0x7D85B, size: 0x8, addend: 0x0, symName: '__ZN3std3sys3pal4unix2os8unsetenv28_$u7b$$u7b$closure$u7d$$u7d$17hf7d40fd4d8c3f949E', symObjAddr: 0x3F1D4, symBinAddr: 0x10005BF40, symSize: 0x138 }
  - { offset: 0x7DBF6, size: 0x8, addend: 0x0, symName: __ZN3std3sys3pal4unix2os4exit17hce1bc576581d2472E, symObjAddr: 0x3F30C, symBinAddr: 0x10005C078, symSize: 0xC }
  - { offset: 0x7DC8F, size: 0x8, addend: 0x0, symName: __ZN3std3sys3pal4unix14stack_overflow3imp14signal_handler17h953e771e074b814aE, symObjAddr: 0x41488, symBinAddr: 0x10005E1F4, symSize: 0x160 }
  - { offset: 0x7DED6, size: 0x8, addend: 0x0, symName: __ZN3std3sys3pal4unix14stack_overflow3imp12make_handler17h20b4ff0043255182E, symObjAddr: 0x415E8, symBinAddr: 0x10005E354, symSize: 0x1E0 }
  - { offset: 0x7E1BB, size: 0x8, addend: 0x0, symName: '__ZN86_$LT$std..sys..pal..unix..stack_overflow..Handler$u20$as$u20$core..ops..drop..Drop$GT$4drop17he12a030e4515bd6dE', symObjAddr: 0x41430, symBinAddr: 0x10005E19C, symSize: 0x58 }
  - { offset: 0x7E29B, size: 0x8, addend: 0x0, symName: __ZN3std3sys3pal4unix6thread6Thread3new17hf34728b401d400e8E, symObjAddr: 0x41A30, symBinAddr: 0x10005E79C, symSize: 0x234 }
  - { offset: 0x7E5BA, size: 0x8, addend: 0x0, symName: __ZN3std3sys3pal4unix6thread6Thread8set_name17hfa32bb9c1fba04a8E, symObjAddr: 0x41D34, symBinAddr: 0x10005EAA0, symSize: 0x70 }
  - { offset: 0x7E6C1, size: 0x8, addend: 0x0, symName: __ZN3std3sys3pal4unix6thread6Thread4join17hdd7a541c5f321007E, symObjAddr: 0x41DA4, symBinAddr: 0x10005EB10, symSize: 0x90 }
  - { offset: 0x7E72D, size: 0x8, addend: 0x0, symName: __ZN3std3sys3pal4unix6thread6Thread3new12thread_start17h1bd1b9c95010bf71E, symObjAddr: 0x41C64, symBinAddr: 0x10005E9D0, symSize: 0xD0 }
  - { offset: 0x7E96B, size: 0x8, addend: 0x0, symName: '__ZN77_$LT$std..sys..pal..unix..thread..Thread$u20$as$u20$core..ops..drop..Drop$GT$4drop17hd7ca46e9dfb25790E', symObjAddr: 0x41E34, symBinAddr: 0x10005EBA0, symSize: 0x14 }
  - { offset: 0x7E9F7, size: 0x8, addend: 0x0, symName: __ZN3std3sys3pal4unix4time8Timespec3now17h5913f5e4a803d252E, symObjAddr: 0x41E48, symBinAddr: 0x10005EBB4, symSize: 0x11C }
  - { offset: 0x7EAA3, size: 0x8, addend: 0x0, symName: __ZN3std3sys3pal4unix4time8Timespec12sub_timespec17h6b0cd257e58780d0E, symObjAddr: 0x41F64, symBinAddr: 0x10005ECD0, symSize: 0x104 }
  - { offset: 0x7EC58, size: 0x8, addend: 0x0, symName: '__ZN90_$LT$std..sys..pal..unix..args..Args$u20$as$u20$core..iter..traits..iterator..Iterator$GT$4next17h0ab8b968e970aa2cE', symObjAddr: 0x3A790, symBinAddr: 0x1000574FC, symSize: 0x48 }
  - { offset: 0x7ECCC, size: 0x8, addend: 0x0, symName: '__ZN90_$LT$std..sys..pal..unix..args..Args$u20$as$u20$core..iter..traits..iterator..Iterator$GT$9size_hint17hddd8d28d95b3790aE', symObjAddr: 0x3A7D8, symBinAddr: 0x100057544, symSize: 0x38 }
  - { offset: 0x7ED33, size: 0x8, addend: 0x0, symName: '__ZN101_$LT$std..sys..pal..unix..args..Args$u20$as$u20$core..iter..traits..exact_size..ExactSizeIterator$GT$3len17h27a13d30af201463E', symObjAddr: 0x3A810, symBinAddr: 0x10005757C, symSize: 0x2C }
  - { offset: 0x7EDAF, size: 0x8, addend: 0x0, symName: '__ZN105_$LT$std..sys..pal..unix..args..Args$u20$as$u20$core..iter..traits..double_ended..DoubleEndedIterator$GT$9next_back17h5e94fff94f5a8c21E', symObjAddr: 0x3A83C, symBinAddr: 0x1000575A8, symSize: 0x48 }
  - { offset: 0x7EE2C, size: 0x8, addend: 0x0, symName: '__ZN68_$LT$std..sys..pal..unix..args..Args$u20$as$u20$core..fmt..Debug$GT$3fmt17hf19495eaa2860869E', symObjAddr: 0x3A718, symBinAddr: 0x100057484, symSize: 0x78 }
  - { offset: 0x7EF46, size: 0x8, addend: 0x0, symName: '__ZN67_$LT$std..sys..pal..unix..stdio..Stdin$u20$as$u20$std..io..Read$GT$4read17h5c8d04fb020546f5E', symObjAddr: 0x417C8, symBinAddr: 0x10005E534, symSize: 0x4C }
  - { offset: 0x7F01B, size: 0x8, addend: 0x0, symName: '__ZN67_$LT$std..sys..pal..unix..stdio..Stdin$u20$as$u20$std..io..Read$GT$8read_buf17he4f3fe521c3ed6deE', symObjAddr: 0x41814, symBinAddr: 0x10005E580, symSize: 0x78 }
  - { offset: 0x7F1CA, size: 0x8, addend: 0x0, symName: '__ZN67_$LT$std..sys..pal..unix..stdio..Stdin$u20$as$u20$std..io..Read$GT$13read_vectored17h387fb93a6a6e60aeE', symObjAddr: 0x4188C, symBinAddr: 0x10005E5F8, symSize: 0x4C }
  - { offset: 0x7F2CC, size: 0x8, addend: 0x0, symName: '__ZN69_$LT$std..sys..pal..unix..stdio..Stdout$u20$as$u20$std..io..Write$GT$5write17hb4d73c937dd11b0bE', symObjAddr: 0x418D8, symBinAddr: 0x10005E644, symSize: 0x4C }
  - { offset: 0x7F3A3, size: 0x8, addend: 0x0, symName: '__ZN69_$LT$std..sys..pal..unix..stdio..Stdout$u20$as$u20$std..io..Write$GT$14write_vectored17h89244e652e42b934E', symObjAddr: 0x41924, symBinAddr: 0x10005E690, symSize: 0x4C }
  - { offset: 0x7F49A, size: 0x8, addend: 0x0, symName: '__ZN69_$LT$std..sys..pal..unix..stdio..Stderr$u20$as$u20$std..io..Write$GT$5write17haca13809bb85421bE', symObjAddr: 0x41970, symBinAddr: 0x10005E6DC, symSize: 0x4C }
  - { offset: 0x7F571, size: 0x8, addend: 0x0, symName: '__ZN69_$LT$std..sys..pal..unix..stdio..Stderr$u20$as$u20$std..io..Write$GT$14write_vectored17h1b417aab620ae526E', symObjAddr: 0x419BC, symBinAddr: 0x10005E728, symSize: 0x4C }
  - { offset: 0x7F648, size: 0x8, addend: 0x0, symName: '__ZN69_$LT$std..sys..pal..unix..stdio..Stderr$u20$as$u20$std..io..Write$GT$17is_write_vectored17hd9cd4c09e3d30eddE', symObjAddr: 0x41A08, symBinAddr: 0x10005E774, symSize: 0x14 }
  - { offset: 0x7F662, size: 0x8, addend: 0x0, symName: '__ZN69_$LT$std..sys..pal..unix..stdio..Stderr$u20$as$u20$std..io..Write$GT$5flush17h4428a7f9709c7b87E', symObjAddr: 0x41A1C, symBinAddr: 0x10005E788, symSize: 0x14 }
  - { offset: 0x7F840, size: 0x8, addend: 0x0, symName: __ZN3std3sys3pal4unix3net6Socket7new_raw17he7ba4987431f678eE, symObjAddr: 0x3E098, symBinAddr: 0x10005AE04, symSize: 0xF8 }
  - { offset: 0x7FA71, size: 0x8, addend: 0x0, symName: __ZN3std3sys3pal4unix3net6Socket8new_pair17hc6635f79a0b5602bE, symObjAddr: 0x3E190, symBinAddr: 0x10005AEFC, symSize: 0x150 }
  - { offset: 0x7FCE3, size: 0x8, addend: 0x0, symName: __ZN3std3sys3pal4unix3net6Socket6accept17h200f307a2e0bb690E, symObjAddr: 0x3E2E0, symBinAddr: 0x10005B04C, symSize: 0x108 }
  - { offset: 0x7FE78, size: 0x8, addend: 0x0, symName: __ZN3std3sys3pal4unix3net6Socket20recv_from_with_flags17h962a614c1dcf4fd1E, symObjAddr: 0x3E3E8, symBinAddr: 0x10005B154, symSize: 0x154 }
  - { offset: 0x7FFFD, size: 0x8, addend: 0x0, symName: __ZN3std3sys3pal4unix3net6Socket10take_error17h606c692e747196aaE, symObjAddr: 0x3E53C, symBinAddr: 0x10005B2A8, symSize: 0x70 }
  - { offset: 0x80153, size: 0x8, addend: 0x0, symName: '__ZN77_$LT$std..sys..pal..unix..net..Socket$u20$as$u20$std..os..fd..owned..AsFd$GT$5as_fd17h2c44c2cbfd381d20E', symObjAddr: 0x3E5AC, symBinAddr: 0x10005B318, symSize: 0x30 }
  - { offset: 0x8018B, size: 0x8, addend: 0x0, symName: '__ZN77_$LT$std..sys..pal..unix..net..Socket$u20$as$u20$std..os..fd..owned..AsFd$GT$5as_fd17h2c44c2cbfd381d20E', symObjAddr: 0x3E5AC, symBinAddr: 0x10005B318, symSize: 0x30 }
  - { offset: 0x80212, size: 0x8, addend: 0x0, symName: '__ZN3std3sys3pal4unix4weak18DlsymWeak$LT$F$GT$10initialize17h846c969cc1232fcaE', symObjAddr: 0x3A670, symBinAddr: 0x1000A5DE4, symSize: 0x54 }
  - { offset: 0x8026B, size: 0x8, addend: 0x0, symName: '__ZN3std3sys3pal4unix4weak18DlsymWeak$LT$F$GT$10initialize17hef2b34d884c420f2E', symObjAddr: 0x3A6C4, symBinAddr: 0x1000A5E38, symSize: 0x54 }
  - { offset: 0x80311, size: 0x8, addend: 0x0, symName: __ZN3std3sys3pal4unix4pipe8AnonPipe5write17h953dbb5f05ed242bE, symObjAddr: 0x3F460, symBinAddr: 0x10005C1CC, symSize: 0x48 }
  - { offset: 0x803EF, size: 0x8, addend: 0x0, symName: __ZN3std3sys3pal4unix4pipe9anon_pipe17h845321c2874e9edcE, symObjAddr: 0x3F318, symBinAddr: 0x10005C084, symSize: 0x148 }
  - { offset: 0x80693, size: 0x8, addend: 0x0, symName: __ZN3std3sys3pal4unix4pipe5read217h93d992051a1ead2eE, symObjAddr: 0x3F4A8, symBinAddr: 0x10005C214, symSize: 0x2A8 }
  - { offset: 0x80CC8, size: 0x8, addend: 0x0, symName: __ZN3std3sys3pal4unix4rand19hashmap_random_keys17hf204fdd1087ed71eE, symObjAddr: 0x41388, symBinAddr: 0x10005E0F4, symSize: 0xA8 }
  - { offset: 0x80DD7, size: 0x8, addend: 0x0, symName: __ZN3std3sys3pal4unix17decode_error_kind17hce9a3e20cbcd323cE, symObjAddr: 0x42068, symBinAddr: 0x10005EDD4, symSize: 0x30 }
  - { offset: 0x80DF1, size: 0x8, addend: 0x0, symName: __ZN3std3sys3pal4unix14abort_internal17hfc79d39ad7035235E, symObjAddr: 0x42098, symBinAddr: 0x10005EE04, symSize: 0xC }
  - { offset: 0x80F2D, size: 0x8, addend: 0x0, symName: __ZN3std3sys3pal6common14small_c_string24run_with_cstr_allocating17h051dc0959c5e7bbfE, symObjAddr: 0x3586C, symBinAddr: 0x1000A5588, symSize: 0xC4 }
  - { offset: 0x810E0, size: 0x8, addend: 0x0, symName: __ZN3std3sys3pal6common14small_c_string24run_with_cstr_allocating17h1aaa791c8dc70f8eE, symObjAddr: 0x35930, symBinAddr: 0x1000A564C, symSize: 0xC0 }
  - { offset: 0x81293, size: 0x8, addend: 0x0, symName: __ZN3std3sys3pal6common14small_c_string24run_with_cstr_allocating17h33f2082c3c8c11d5E, symObjAddr: 0x359F0, symBinAddr: 0x1000A570C, symSize: 0xCC }
  - { offset: 0x81446, size: 0x8, addend: 0x0, symName: __ZN3std3sys3pal6common14small_c_string24run_with_cstr_allocating17h38e8211769801462E, symObjAddr: 0x35ABC, symBinAddr: 0x1000A57D8, symSize: 0xA0 }
  - { offset: 0x815A7, size: 0x8, addend: 0x0, symName: __ZN3std3sys3pal6common14small_c_string24run_with_cstr_allocating17h4ebdaf7da0ab98f4E, symObjAddr: 0x35B5C, symBinAddr: 0x1000A5878, symSize: 0xE4 }
  - { offset: 0x8175A, size: 0x8, addend: 0x0, symName: __ZN3std3sys3pal6common14small_c_string24run_with_cstr_allocating17h5e2770e02dcd5516E, symObjAddr: 0x35C40, symBinAddr: 0x1000A595C, symSize: 0xBC }
  - { offset: 0x81928, size: 0x8, addend: 0x0, symName: __ZN3std3sys3pal6common14small_c_string24run_with_cstr_allocating17h5ec4346946170457E, symObjAddr: 0x35CFC, symBinAddr: 0x1000A5A18, symSize: 0x9C }
  - { offset: 0x81A89, size: 0x8, addend: 0x0, symName: __ZN3std3sys3pal6common14small_c_string24run_with_cstr_allocating17h610c0b409aea3733E, symObjAddr: 0x35D98, symBinAddr: 0x1000A5AB4, symSize: 0xD0 }
  - { offset: 0x81C50, size: 0x8, addend: 0x0, symName: __ZN3std3sys3pal6common14small_c_string24run_with_cstr_allocating17h6a040da64e8539cdE, symObjAddr: 0x35E68, symBinAddr: 0x1000A5B84, symSize: 0xD0 }
  - { offset: 0x82038, size: 0x8, addend: 0x0, symName: __ZN3std3sys3pal6common5alloc16realloc_fallback17hf475d51777e5c5cbE, symObjAddr: 0x357B0, symBinAddr: 0x100052E20, symSize: 0xBC }
  - { offset: 0x82282, size: 0x8, addend: 0x0, symName: __ZN3std3sys6os_str5bytes3Buf11into_string17he9a9325d197faa48E, symObjAddr: 0x43698, symBinAddr: 0x100060404, symSize: 0xA0 }
  - { offset: 0x8233A, size: 0x8, addend: 0x0, symName: __ZN3std3sys6os_str5bytes3Buf10push_slice17hb0984f2e41fef190E, symObjAddr: 0x43738, symBinAddr: 0x1000604A4, symSize: 0x74 }
  - { offset: 0x824C4, size: 0x8, addend: 0x0, symName: __ZN3std3sys6os_str5bytes5Slice15to_string_lossy17he1822fd1a8da337cE, symObjAddr: 0x438E0, symBinAddr: 0x10006064C, symSize: 0x10 }
  - { offset: 0x824D8, size: 0x8, addend: 0x0, symName: __ZN3std3sys6os_str5bytes5Slice8to_owned17h578e32c4e9725ae1E, symObjAddr: 0x438F0, symBinAddr: 0x10006065C, symSize: 0x90 }
  - { offset: 0x825D1, size: 0x8, addend: 0x0, symName: __ZN3std3sys6os_str5bytes5Slice10clone_into17h19df717fd5dab293E, symObjAddr: 0x43980, symBinAddr: 0x1000606EC, symSize: 0x74 }
  - { offset: 0x826F8, size: 0x8, addend: 0x0, symName: __ZN3std3sys6os_str5bytes5Slice9empty_box17h9037d699c95907d2E, symObjAddr: 0x439F4, symBinAddr: 0x100060760, symSize: 0x18 }
  - { offset: 0x8272C, size: 0x8, addend: 0x0, symName: '__ZN69_$LT$std..sys..os_str..bytes..Slice$u20$as$u20$core..fmt..Display$GT$3fmt17hc7f2fa1ac7b169e6E', symObjAddr: 0x435DC, symBinAddr: 0x100060348, symSize: 0xA0 }
  - { offset: 0x82775, size: 0x8, addend: 0x0, symName: '__ZN67_$LT$std..sys..os_str..bytes..Buf$u20$as$u20$core..fmt..Display$GT$3fmt17h768d66b6383f683bE', symObjAddr: 0x4367C, symBinAddr: 0x1000603E8, symSize: 0x1C }
  - { offset: 0x827F0, size: 0x8, addend: 0x0, symName: __ZN3std3sys6os_str5bytes5Slice21check_public_boundary9slow_path17he32ef1f410e79ff9E, symObjAddr: 0x437AC, symBinAddr: 0x100060518, symSize: 0x134 }
  - { offset: 0x829AD, size: 0x8, addend: 0x0, symName: '__ZN3std3sys11personality3gcc14find_eh_action28_$u7b$$u7b$closure$u7d$$u7d$17h3536cf949d5e3863E', symObjAddr: 0x43244, symBinAddr: 0x10005FFB0, symSize: 0x18 }
  - { offset: 0x829C1, size: 0x8, addend: 0x0, symName: '__ZN3std3sys11personality3gcc14find_eh_action28_$u7b$$u7b$closure$u7d$$u7d$17hec9eef57def4c397E', symObjAddr: 0x4325C, symBinAddr: 0x10005FFC8, symSize: 0x18 }
  - { offset: 0x829F1, size: 0x8, addend: 0x0, symName: _rust_eh_personality, symObjAddr: 0x43274, symBinAddr: 0x10005FFE0, symSize: 0x368 }
  - { offset: 0x82D14, size: 0x8, addend: 0x0, symName: __ZN3std3sys11personality5dwarf2eh19read_encoded_offset17hc4aa7c1cd697058aE, symObjAddr: 0x35F38, symBinAddr: 0x100052EDC, symSize: 0x150 }
  - { offset: 0x82E5E, size: 0x8, addend: 0x0, symName: '__ZN3std3sys9backtrace10_print_fmt28_$u7b$$u7b$closure$u7d$$u7d$17hed582315c7ccf9c0E', symObjAddr: 0x362B4, symBinAddr: 0x100053258, symSize: 0x30 }
  - { offset: 0x82E87, size: 0x8, addend: 0x0, symName: '__ZN3std3sys9backtrace10_print_fmt28_$u7b$$u7b$closure$u7d$$u7d$17h3ce1955c8e527676E', symObjAddr: 0x362E4, symBinAddr: 0x100053288, symSize: 0x130 }
  - { offset: 0x82F9B, size: 0x8, addend: 0x0, symName: '__ZN3std3sys9backtrace10_print_fmt28_$u7b$$u7b$closure$u7d$$u7d$28_$u7b$$u7b$closure$u7d$$u7d$17h4f96153213722b7aE', symObjAddr: 0x36414, symBinAddr: 0x1000533B8, symSize: 0x264 }
  - { offset: 0x831D6, size: 0x8, addend: 0x0, symName: __ZN3std3sys9backtrace4lock17h4d78b8534d4453efE, symObjAddr: 0x36088, symBinAddr: 0x10005302C, symSize: 0x70 }
  - { offset: 0x83322, size: 0x8, addend: 0x0, symName: '__ZN98_$LT$std..sys..backtrace..BacktraceLock..print..DisplayBacktrace$u20$as$u20$core..fmt..Display$GT$3fmt17h243268f17d714c7fE', symObjAddr: 0x360F8, symBinAddr: 0x10005309C, symSize: 0x1BC }
  - { offset: 0x836B8, size: 0x8, addend: 0x0, symName: __ZN3std3sys9backtrace26__rust_end_short_backtrace17hc3491307aceda2c2E, symObjAddr: 0x36678, symBinAddr: 0x10005361C, symSize: 0xC }
  - { offset: 0x836D2, size: 0x8, addend: 0x0, symName: __ZN3std3sys9backtrace15output_filename17hbdea5ba9800cf36cE, symObjAddr: 0x36684, symBinAddr: 0x100053628, symSize: 0x104 }
  - { offset: 0x83926, size: 0x8, addend: 0x0, symName: '__ZN102_$LT$std..sys..sync..mutex..pthread..AllocatedMutex$u20$as$u20$std..sys_common..lazy_box..LazyInit$GT$4init17h8f3071639a33e15fE', symObjAddr: 0x43FE0, symBinAddr: 0x100060D4C, symSize: 0x1C8 }
  - { offset: 0x83A92, size: 0x8, addend: 0x0, symName: '__ZN102_$LT$std..sys..sync..mutex..pthread..AllocatedMutex$u20$as$u20$std..sys_common..lazy_box..LazyInit$GT$7destroy17h6906387c4e58d225E', symObjAddr: 0x441A8, symBinAddr: 0x100060F14, symSize: 0x4C }
  - { offset: 0x83B3E, size: 0x8, addend: 0x0, symName: '__ZN102_$LT$std..sys..sync..mutex..pthread..AllocatedMutex$u20$as$u20$std..sys_common..lazy_box..LazyInit$GT$11cancel_init17hb28a3c337910d785E', symObjAddr: 0x441F4, symBinAddr: 0x100060F60, symSize: 0x2C }
  - { offset: 0x83BE7, size: 0x8, addend: 0x0, symName: '__ZN90_$LT$std..sys..sync..mutex..pthread..PthreadMutexAttr$u20$as$u20$core..ops..drop..Drop$GT$4drop17h344e04202b220307E', symObjAddr: 0x44290, symBinAddr: 0x100060F8C, symSize: 0x14 }
  - { offset: 0x83C06, size: 0x8, addend: 0x0, symName: __ZN3std3sys4sync5mutex7pthread5Mutex4lock4fail17h8d3c28c11aa07c0aE, symObjAddr: 0x44220, symBinAddr: 0x1000A5E8C, symSize: 0x70 }
  - { offset: 0x83C70, size: 0x8, addend: 0x0, symName: '__ZN83_$LT$std..sys..sync..rwlock..queue..PanicGuard$u20$as$u20$core..ops..drop..Drop$GT$4drop17h7a23339868e3bcfcE', symObjAddr: 0x44728, symBinAddr: 0x1000610B8, symSize: 0x44 }
  - { offset: 0x83D63, size: 0x8, addend: 0x0, symName: __ZN3std3sys4sync6rwlock5queue6RwLock14lock_contended17h55708911d07cc519E, symObjAddr: 0x4476C, symBinAddr: 0x1000A6268, symSize: 0x258 }
  - { offset: 0x84268, size: 0x8, addend: 0x0, symName: __ZN3std3sys4sync6rwlock5queue6RwLock21read_unlock_contended17hb0785b32745f46dcE, symObjAddr: 0x449C4, symBinAddr: 0x1000A64C0, symSize: 0x70 }
  - { offset: 0x8446E, size: 0x8, addend: 0x0, symName: __ZN3std3sys4sync6rwlock5queue6RwLock16unlock_contended17he4f1ed19597d0a90E, symObjAddr: 0x44A34, symBinAddr: 0x1000A6530, symSize: 0x38 }
  - { offset: 0x84503, size: 0x8, addend: 0x0, symName: __ZN3std3sys4sync6rwlock5queue6RwLock12unlock_queue17h4eaed66879ee6a65E, symObjAddr: 0x44A6C, symBinAddr: 0x1000610FC, symSize: 0x17C }
  - { offset: 0x84C75, size: 0x8, addend: 0x0, symName: __ZN3std3sys4sync6rwlock5queue10write_lock17he50f6eb66d0be3d7E, symObjAddr: 0x446E8, symBinAddr: 0x100061078, symSize: 0x18 }
  - { offset: 0x84CCA, size: 0x8, addend: 0x0, symName: __ZN3std3sys4sync6rwlock5queue9read_lock17h6177c5d3fbb7a2f1E, symObjAddr: 0x44700, symBinAddr: 0x100061090, symSize: 0x28 }
  - { offset: 0x84D23, size: 0x8, addend: 0x0, symName: '__ZN88_$LT$std..sys..sync..thread_parking..darwin..Parker$u20$as$u20$core..ops..drop..Drop$GT$4drop17ha5c634986a5c05c3E', symObjAddr: 0x44C18, symBinAddr: 0x1000612A8, symSize: 0x14 }
  - { offset: 0x84D71, size: 0x8, addend: 0x0, symName: __ZN3std3sys4sync14thread_parking6darwin6Parker6unpark17h3efdbd4a90f816f6E, symObjAddr: 0x44BE8, symBinAddr: 0x100061278, symSize: 0x30 }
  - { offset: 0x84E32, size: 0x8, addend: 0x0, symName: __ZN3std3sys4sync4once5queue4Once4call17h6f15bf7db7f71762E, symObjAddr: 0x442A4, symBinAddr: 0x1000A5EFC, symSize: 0x36C }
  - { offset: 0x8568F, size: 0x8, addend: 0x0, symName: '__ZN82_$LT$std..sys..sync..once..queue..WaiterQueue$u20$as$u20$core..ops..drop..Drop$GT$4drop17h4ea05efab00e0dfbE', symObjAddr: 0x44610, symBinAddr: 0x100060FA0, symSize: 0xD8 }
  - { offset: 0x858D7, size: 0x8, addend: 0x0, symName: __ZN3std3sys4sync7condvar7pthread7Condvar12wait_timeout17h0f77a7f6a1a56501E, symObjAddr: 0x43E04, symBinAddr: 0x100060B70, symSize: 0x1DC }
  - { offset: 0x85C99, size: 0x8, addend: 0x0, symName: '__ZN106_$LT$std..sys..sync..condvar..pthread..AllocatedCondvar$u20$as$u20$std..sys_common..lazy_box..LazyInit$GT$4init17h5fcf8586297892ecE', symObjAddr: 0x43D78, symBinAddr: 0x100060AE4, symSize: 0x8C }
  - { offset: 0x85DBA, size: 0x8, addend: 0x0, symName: __ZN3std3sys12thread_local6native5eager7destroy17h9463e58274db8c50E, symObjAddr: 0x44C2C, symBinAddr: 0x1000612BC, symSize: 0x3C }
  - { offset: 0x85F5F, size: 0x8, addend: 0x0, symName: '__ZN3std3sys12thread_local6native4lazy20Storage$LT$T$C$D$GT$10initialize17hba74c0cab607e21fE', symObjAddr: 0x44C68, symBinAddr: 0x1000A6568, symSize: 0xC0 }
  - { offset: 0x86155, size: 0x8, addend: 0x0, symName: __ZN3std3sys12thread_local6native4lazy7destroy17h7e8d6b7472687388E, symObjAddr: 0x44D28, symBinAddr: 0x1000612F8, symSize: 0x54 }
  - { offset: 0x862DD, size: 0x8, addend: 0x0, symName: __ZN3std3sys12thread_local5guard5apple6enable9run_dtors17hc42481aab3ac792dE, symObjAddr: 0x44EB8, symBinAddr: 0x100061488, symSize: 0xE0 }
  - { offset: 0x865AD, size: 0x8, addend: 0x0, symName: __ZN3std3sys12thread_local11destructors4list8register17h6a45d02b006be4c3E, symObjAddr: 0x44D7C, symBinAddr: 0x10006134C, symSize: 0x13C }
  - { offset: 0x868EA, size: 0x8, addend: 0x0, symName: __ZN3std3sys4path4unix8absolute17hc0417ceab2991334E, symObjAddr: 0x43A0C, symBinAddr: 0x100060778, symSize: 0x36C }
  - { offset: 0x87352, size: 0x8, addend: 0x0, symName: __ZN3std4path4Path11is_absolute17h7dd31adcc7ab18c5E, symObjAddr: 0x31C80, symBinAddr: 0x10004F5BC, symSize: 0x2C }
  - { offset: 0x873BD, size: 0x8, addend: 0x0, symName: __ZN3std4path4Path6parent17hdf327a928519a9eaE, symObjAddr: 0x31CAC, symBinAddr: 0x10004F5E8, symSize: 0x8C }
  - { offset: 0x873D4, size: 0x8, addend: 0x0, symName: __ZN3std4path4Path6parent17hdf327a928519a9eaE, symObjAddr: 0x31CAC, symBinAddr: 0x10004F5E8, symSize: 0x8C }
  - { offset: 0x873E9, size: 0x8, addend: 0x0, symName: __ZN3std4path4Path6parent17hdf327a928519a9eaE, symObjAddr: 0x31CAC, symBinAddr: 0x10004F5E8, symSize: 0x8C }
  - { offset: 0x8743E, size: 0x8, addend: 0x0, symName: __ZN3std4path4Path9file_name17h322aa67d7de06d08E, symObjAddr: 0x31D38, symBinAddr: 0x10004F674, symSize: 0x64 }
  - { offset: 0x87455, size: 0x8, addend: 0x0, symName: __ZN3std4path4Path9file_name17h322aa67d7de06d08E, symObjAddr: 0x31D38, symBinAddr: 0x10004F674, symSize: 0x64 }
  - { offset: 0x8746A, size: 0x8, addend: 0x0, symName: __ZN3std4path4Path9file_name17h322aa67d7de06d08E, symObjAddr: 0x31D38, symBinAddr: 0x10004F674, symSize: 0x64 }
  - { offset: 0x874A9, size: 0x8, addend: 0x0, symName: __ZN3std4path4Path13_strip_prefix17h58153cb02ba9ed3dE, symObjAddr: 0x31D9C, symBinAddr: 0x10004F6D8, symSize: 0x21C }
  - { offset: 0x875CE, size: 0x8, addend: 0x0, symName: __ZN3std4path4Path12_starts_with17h5d01d7380d308167E, symObjAddr: 0x31FB8, symBinAddr: 0x10004F8F4, symSize: 0x198 }
  - { offset: 0x876DD, size: 0x8, addend: 0x0, symName: __ZN3std4path4Path10_ends_with17h1795e6fa25064244E, symObjAddr: 0x32150, symBinAddr: 0x10004FA8C, symSize: 0x198 }
  - { offset: 0x8784E, size: 0x8, addend: 0x0, symName: __ZN3std4path4Path9file_stem17he292fd0ff6d7536fE, symObjAddr: 0x322E8, symBinAddr: 0x10004FC24, symSize: 0xF4 }
  - { offset: 0x87865, size: 0x8, addend: 0x0, symName: __ZN3std4path4Path9file_stem17he292fd0ff6d7536fE, symObjAddr: 0x322E8, symBinAddr: 0x10004FC24, symSize: 0xF4 }
  - { offset: 0x8787A, size: 0x8, addend: 0x0, symName: __ZN3std4path4Path9file_stem17he292fd0ff6d7536fE, symObjAddr: 0x322E8, symBinAddr: 0x10004FC24, symSize: 0xF4 }
  - { offset: 0x8788F, size: 0x8, addend: 0x0, symName: __ZN3std4path4Path9file_stem17he292fd0ff6d7536fE, symObjAddr: 0x322E8, symBinAddr: 0x10004FC24, symSize: 0xF4 }
  - { offset: 0x87B22, size: 0x8, addend: 0x0, symName: __ZN3std4path4Path11file_prefix17h183fa342ec97d96fE, symObjAddr: 0x323DC, symBinAddr: 0x10004FD18, symSize: 0x12C }
  - { offset: 0x87D04, size: 0x8, addend: 0x0, symName: __ZN3std4path4Path9extension17hcbb827c8403a77b1E, symObjAddr: 0x32508, symBinAddr: 0x10004FE44, symSize: 0xC0 }
  - { offset: 0x87D1B, size: 0x8, addend: 0x0, symName: __ZN3std4path4Path9extension17hcbb827c8403a77b1E, symObjAddr: 0x32508, symBinAddr: 0x10004FE44, symSize: 0xC0 }
  - { offset: 0x87D30, size: 0x8, addend: 0x0, symName: __ZN3std4path4Path9extension17hcbb827c8403a77b1E, symObjAddr: 0x32508, symBinAddr: 0x10004FE44, symSize: 0xC0 }
  - { offset: 0x87D45, size: 0x8, addend: 0x0, symName: __ZN3std4path4Path9extension17hcbb827c8403a77b1E, symObjAddr: 0x32508, symBinAddr: 0x10004FE44, symSize: 0xC0 }
  - { offset: 0x87F95, size: 0x8, addend: 0x0, symName: __ZN3std4path4Path5_join17hd80b5888ee28381bE, symObjAddr: 0x325C8, symBinAddr: 0x10004FF04, symSize: 0x18C }
  - { offset: 0x88399, size: 0x8, addend: 0x0, symName: __ZN3std4path4Path15_with_file_name17hb335622c9d264557E, symObjAddr: 0x32754, symBinAddr: 0x100050090, symSize: 0xE8 }
  - { offset: 0x8859F, size: 0x8, addend: 0x0, symName: __ZN3std4path4Path15_with_extension17h5919b474cfdc7fe5E, symObjAddr: 0x3283C, symBinAddr: 0x100050178, symSize: 0x1F8 }
  - { offset: 0x88A4E, size: 0x8, addend: 0x0, symName: __ZN3std4path4Path10components17hb944935169585c08E, symObjAddr: 0x32A34, symBinAddr: 0x100050370, symSize: 0x40 }
  - { offset: 0x88A8E, size: 0x8, addend: 0x0, symName: __ZN3std4path4Path7is_file17h576a7145843f3c8aE, symObjAddr: 0x32A74, symBinAddr: 0x1000503B0, symSize: 0x64 }
  - { offset: 0x88B66, size: 0x8, addend: 0x0, symName: __ZN3std4path4Path6is_dir17hba93f67c072463e9E, symObjAddr: 0x32AD8, symBinAddr: 0x100050414, symSize: 0x64 }
  - { offset: 0x88C37, size: 0x8, addend: 0x0, symName: __ZN3std4path4Path10is_symlink17hcd0972fc296debefE, symObjAddr: 0x32B3C, symBinAddr: 0x100050478, symSize: 0x150 }
  - { offset: 0x89029, size: 0x8, addend: 0x0, symName: '__ZN58_$LT$std..path..Components$u20$as$u20$core..fmt..Debug$GT$3fmt17h4c569164f2f642beE', symObjAddr: 0x30004, symBinAddr: 0x10004D940, symSize: 0x64 }
  - { offset: 0x8904E, size: 0x8, addend: 0x0, symName: '__ZN112_$LT$$LT$std..path..Components$u20$as$u20$core..fmt..Debug$GT$..fmt..DebugHelper$u20$as$u20$core..fmt..Debug$GT$3fmt17h0243058d3054ee7cE', symObjAddr: 0x30068, symBinAddr: 0x10004D9A4, symSize: 0xD4 }
  - { offset: 0x89122, size: 0x8, addend: 0x0, symName: __ZN3std4path10Components15len_before_body17h9e80ff0224159e29E, symObjAddr: 0x3013C, symBinAddr: 0x10004DA78, symSize: 0x190 }
  - { offset: 0x89139, size: 0x8, addend: 0x0, symName: __ZN3std4path10Components15len_before_body17h9e80ff0224159e29E, symObjAddr: 0x3013C, symBinAddr: 0x10004DA78, symSize: 0x190 }
  - { offset: 0x8914E, size: 0x8, addend: 0x0, symName: __ZN3std4path10Components15len_before_body17h9e80ff0224159e29E, symObjAddr: 0x3013C, symBinAddr: 0x10004DA78, symSize: 0x190 }
  - { offset: 0x89338, size: 0x8, addend: 0x0, symName: __ZN3std4path10Components7as_path17h9a05932d3eb63a04E, symObjAddr: 0x302CC, symBinAddr: 0x10004DC08, symSize: 0x538 }
  - { offset: 0x8982E, size: 0x8, addend: 0x0, symName: __ZN3std4path10Components25parse_next_component_back17hb999e90c499e8e3fE, symObjAddr: 0x30804, symBinAddr: 0x10004E140, symSize: 0x120 }
  - { offset: 0x89A39, size: 0x8, addend: 0x0, symName: '__ZN52_$LT$std..path..Iter$u20$as$u20$core..fmt..Debug$GT$3fmt17h03db5d3def222682E', symObjAddr: 0x30924, symBinAddr: 0x10004E260, symSize: 0x64 }
  - { offset: 0x89A74, size: 0x8, addend: 0x0, symName: '__ZN106_$LT$$LT$std..path..Iter$u20$as$u20$core..fmt..Debug$GT$..fmt..DebugHelper$u20$as$u20$core..fmt..Debug$GT$3fmt17h7dae516120bd6413E', symObjAddr: 0x30988, symBinAddr: 0x10004E2C4, symSize: 0x13C }
  - { offset: 0x89B6B, size: 0x8, addend: 0x0, symName: '__ZN80_$LT$std..path..Components$u20$as$u20$core..iter..traits..iterator..Iterator$GT$4next17h3598a9356f5ebe87E', symObjAddr: 0x30AC4, symBinAddr: 0x10004E400, symSize: 0x364 }
  - { offset: 0x89EB8, size: 0x8, addend: 0x0, symName: '__ZN95_$LT$std..path..Components$u20$as$u20$core..iter..traits..double_ended..DoubleEndedIterator$GT$9next_back17h4f4b0d29aed44a04E', symObjAddr: 0x30E28, symBinAddr: 0x10004E764, symSize: 0x31C }
  - { offset: 0x8A040, size: 0x8, addend: 0x0, symName: __ZN3std4path18compare_components17h6b10183ab30b3e9eE, symObjAddr: 0x31144, symBinAddr: 0x10004EA80, symSize: 0x308 }
  - { offset: 0x8A41F, size: 0x8, addend: 0x0, symName: __ZN3std4path7PathBuf5_push17h44e589bd8520464bE, symObjAddr: 0x3144C, symBinAddr: 0x10004ED88, symSize: 0xDC }
  - { offset: 0x8A68E, size: 0x8, addend: 0x0, symName: __ZN3std4path7PathBuf3pop17h7f425b58810fbaccE, symObjAddr: 0x31528, symBinAddr: 0x10004EE64, symSize: 0xB0 }
  - { offset: 0x8A851, size: 0x8, addend: 0x0, symName: __ZN3std4path7PathBuf14_set_file_name17hb1a5e3c6b50db33dE, symObjAddr: 0x315D8, symBinAddr: 0x10004EF14, symSize: 0x1C0 }
  - { offset: 0x8ACB7, size: 0x8, addend: 0x0, symName: __ZN3std4path7PathBuf14_set_extension17he2472cd5b0c88ceeE, symObjAddr: 0x31798, symBinAddr: 0x10004F0D4, symSize: 0x29C }
  - { offset: 0x8B3DB, size: 0x8, addend: 0x0, symName: __ZN3std4path7PathBuf14_add_extension17h31afa68832e0a70aE, symObjAddr: 0x31A34, symBinAddr: 0x10004F370, symSize: 0x1A4 }
  - { offset: 0x8B91D, size: 0x8, addend: 0x0, symName: '__ZN3std4path117_$LT$impl$u20$core..convert..From$LT$$RF$std..path..Path$GT$$u20$for$u20$alloc..boxed..Box$LT$std..path..Path$GT$$GT$4from17hc68a208a9c40795fE', symObjAddr: 0x31BD8, symBinAddr: 0x10004F514, symSize: 0x80 }
  - { offset: 0x8BA2C, size: 0x8, addend: 0x0, symName: '__ZN52_$LT$std..path..Path$u20$as$u20$core..fmt..Debug$GT$3fmt17h2047e5ec4ebef3ceE', symObjAddr: 0x32C8C, symBinAddr: 0x1000505C8, symSize: 0x28 }
  - { offset: 0x8BA87, size: 0x8, addend: 0x0, symName: '__ZN55_$LT$std..path..PathBuf$u20$as$u20$core..fmt..Debug$GT$3fmt17hb40ebb3afd02ddc6E', symObjAddr: 0x31C58, symBinAddr: 0x10004F594, symSize: 0x28 }
  - { offset: 0x8BBED, size: 0x8, addend: 0x0, symName: '__ZN55_$LT$std..path..Display$u20$as$u20$core..fmt..Debug$GT$3fmt17hd0f668f9008c03b5E', symObjAddr: 0x32CB4, symBinAddr: 0x1000505F0, symSize: 0x28 }
  - { offset: 0x8BC7B, size: 0x8, addend: 0x0, symName: '__ZN57_$LT$std..path..Display$u20$as$u20$core..fmt..Display$GT$3fmt17h127153fb3f8012dcE', symObjAddr: 0x32CDC, symBinAddr: 0x100050618, symSize: 0x1C }
  - { offset: 0x8BCB9, size: 0x8, addend: 0x0, symName: '__ZN66_$LT$std..path..StripPrefixError$u20$as$u20$core..fmt..Display$GT$3fmt17h7cebb705130bdd2eE', symObjAddr: 0x32CF8, symBinAddr: 0x100050634, symSize: 0x20 }
  - { offset: 0x8BD01, size: 0x8, addend: 0x0, symName: '__ZN61_$LT$std..path..Component$u20$as$u20$core..cmp..PartialEq$GT$2eq17h818edda2cbb8cb1eE', symObjAddr: 0x3A410, symBinAddr: 0x100057224, symSize: 0x14C }
  - { offset: 0x8BE7A, size: 0x8, addend: 0x0, symName: '__ZN57_$LT$std..path..Component$u20$as$u20$core..fmt..Debug$GT$3fmt17hafcb203c122ebef1E', symObjAddr: 0x3A55C, symBinAddr: 0x100057370, symSize: 0xD4 }
  - { offset: 0x8BEEB, size: 0x8, addend: 0x0, symName: '__ZN62_$LT$std..process..ChildStdout$u20$as$u20$core..fmt..Debug$GT$3fmt17h56076105b8eebe75E', symObjAddr: 0x32E7C, symBinAddr: 0x1000507B8, symSize: 0x38 }
  - { offset: 0x8BF13, size: 0x8, addend: 0x0, symName: '__ZN62_$LT$std..process..ChildStderr$u20$as$u20$core..fmt..Debug$GT$3fmt17h7d7b0d1be46dba40E', symObjAddr: 0x32F88, symBinAddr: 0x1000508C4, symSize: 0x38 }
  - { offset: 0x8BF3B, size: 0x8, addend: 0x0, symName: '__ZN61_$LT$std..process..ChildStdin$u20$as$u20$core..fmt..Debug$GT$3fmt17hbfad305748a36658E', symObjAddr: 0x32E44, symBinAddr: 0x100050780, symSize: 0x38 }
  - { offset: 0x8BF55, size: 0x8, addend: 0x0, symName: '__ZN193_$LT$std..process..Child$u20$as$u20$std..sys_common..FromInner$LT$$LP$std..sys..pal..unix..process..process_inner..Process$C$std..sys..pal..unix..process..process_common..StdioPipes$RP$$GT$$GT$10from_inner17h2cf1d463021b86a9E', symObjAddr: 0x32D18, symBinAddr: 0x100050654, symSize: 0x30 }
  - { offset: 0x8BF76, size: 0x8, addend: 0x0, symName: '__ZN126_$LT$std..process..Child$u20$as$u20$std..sys_common..IntoInner$LT$std..sys..pal..unix..process..process_inner..Process$GT$$GT$10into_inner17hc58ba3c8bf908f50E', symObjAddr: 0x32D48, symBinAddr: 0x100050684, symSize: 0x60 }
  - { offset: 0x8C137, size: 0x8, addend: 0x0, symName: '__ZN56_$LT$std..process..Child$u20$as$u20$core..fmt..Debug$GT$3fmt17h350a4ceb8a5d3b68E', symObjAddr: 0x32DA8, symBinAddr: 0x1000506E4, symSize: 0x9C }
  - { offset: 0x8C158, size: 0x8, addend: 0x0, symName: '__ZN59_$LT$std..process..ChildStderr$u20$as$u20$std..io..Read$GT$4read17hffd9137628cc8832E', symObjAddr: 0x32EB4, symBinAddr: 0x1000507F0, symSize: 0x4C }
  - { offset: 0x8C24A, size: 0x8, addend: 0x0, symName: '__ZN59_$LT$std..process..ChildStderr$u20$as$u20$std..io..Read$GT$8read_buf17h23b61777f9cdc318E', symObjAddr: 0x32F00, symBinAddr: 0x10005083C, symSize: 0x78 }
  - { offset: 0x8C416, size: 0x8, addend: 0x0, symName: '__ZN59_$LT$std..process..ChildStderr$u20$as$u20$std..io..Read$GT$11read_to_end17h60eb866d2849a022E', symObjAddr: 0x32F78, symBinAddr: 0x1000508B4, symSize: 0x10 }
  - { offset: 0x8C454, size: 0x8, addend: 0x0, symName: __ZN3std7process7Command9env_clear17hc1f849d5d701c1bbE, symObjAddr: 0x32FC0, symBinAddr: 0x1000508FC, symSize: 0x50 }
  - { offset: 0x8C50C, size: 0x8, addend: 0x0, symName: __ZN3std7process7Command5spawn17h7d1a3f7eb869e025E, symObjAddr: 0x33010, symBinAddr: 0x10005094C, symSize: 0x78 }
  - { offset: 0x8C53D, size: 0x8, addend: 0x0, symName: __ZN3std7process7Command6output17hffe447243df2c713E, symObjAddr: 0x33088, symBinAddr: 0x1000509C4, symSize: 0x338 }
  - { offset: 0x8CB01, size: 0x8, addend: 0x0, symName: __ZN3std7process7Command6status17hee41c6a345d0e396E, symObjAddr: 0x333C0, symBinAddr: 0x100050CFC, symSize: 0xB8 }
  - { offset: 0x8CCE6, size: 0x8, addend: 0x0, symName: __ZN3std7process7Command11get_program17h45fdfb30e93588beE, symObjAddr: 0x33478, symBinAddr: 0x100050DB4, symSize: 0x1C }
  - { offset: 0x8CD2D, size: 0x8, addend: 0x0, symName: __ZN3std7process7Command8get_args17h6c391566367d4b6eE, symObjAddr: 0x33494, symBinAddr: 0x100050DD0, symSize: 0x24 }
  - { offset: 0x8CDC9, size: 0x8, addend: 0x0, symName: __ZN3std7process7Command15get_current_dir17hdb26ade433d2aea9E, symObjAddr: 0x334B8, symBinAddr: 0x100050DF4, symSize: 0x1C }
  - { offset: 0x8CE30, size: 0x8, addend: 0x0, symName: '__ZN58_$LT$std..process..Command$u20$as$u20$core..fmt..Debug$GT$3fmt17h0833d02365cabd5cE', symObjAddr: 0x334D4, symBinAddr: 0x100050E10, symSize: 0x10 }
  - { offset: 0x8CE51, size: 0x8, addend: 0x0, symName: '__ZN84_$LT$std..process..CommandArgs$u20$as$u20$core..iter..traits..iterator..Iterator$GT$4next17h6d9d1575324d2c4cE', symObjAddr: 0x334E4, symBinAddr: 0x100050E20, symSize: 0x34 }
  - { offset: 0x8CE6F, size: 0x8, addend: 0x0, symName: '__ZN84_$LT$std..process..CommandArgs$u20$as$u20$core..iter..traits..iterator..Iterator$GT$4next17h6d9d1575324d2c4cE', symObjAddr: 0x334E4, symBinAddr: 0x100050E20, symSize: 0x34 }
  - { offset: 0x8CE84, size: 0x8, addend: 0x0, symName: '__ZN84_$LT$std..process..CommandArgs$u20$as$u20$core..iter..traits..iterator..Iterator$GT$4next17h6d9d1575324d2c4cE', symObjAddr: 0x334E4, symBinAddr: 0x100050E20, symSize: 0x34 }
  - { offset: 0x8CF19, size: 0x8, addend: 0x0, symName: '__ZN84_$LT$std..process..CommandArgs$u20$as$u20$core..iter..traits..iterator..Iterator$GT$9size_hint17h4f811d3481b517edE', symObjAddr: 0x33518, symBinAddr: 0x100050E54, symSize: 0x28 }
  - { offset: 0x8CF91, size: 0x8, addend: 0x0, symName: '__ZN95_$LT$std..process..CommandArgs$u20$as$u20$core..iter..traits..exact_size..ExactSizeIterator$GT$3len17h2a28a203e6d65cdeE', symObjAddr: 0x33540, symBinAddr: 0x100050E7C, symSize: 0x1C }
  - { offset: 0x8D009, size: 0x8, addend: 0x0, symName: '__ZN57_$LT$std..process..Output$u20$as$u20$core..fmt..Debug$GT$3fmt17ha29d4fbc4675e7a8E', symObjAddr: 0x3355C, symBinAddr: 0x100050E98, symSize: 0x10C }
  - { offset: 0x8D0AD, size: 0x8, addend: 0x0, symName: '__ZN56_$LT$std..process..Stdio$u20$as$u20$core..fmt..Debug$GT$3fmt17h563777cdb3923002E', symObjAddr: 0x33668, symBinAddr: 0x100050FA4, symSize: 0x38 }
  - { offset: 0x8D0CE, size: 0x8, addend: 0x0, symName: __ZN3std7process10ExitStatus7exit_ok17hece5431f3b101ec2E, symObjAddr: 0x336A0, symBinAddr: 0x100050FDC, symSize: 0x14 }
  - { offset: 0x8D105, size: 0x8, addend: 0x0, symName: '__ZN63_$LT$std..process..ExitStatus$u20$as$u20$core..fmt..Display$GT$3fmt17h4a06e848f5b77f8dE', symObjAddr: 0x336B4, symBinAddr: 0x100050FF0, symSize: 0x10 }
  - { offset: 0x8D134, size: 0x8, addend: 0x0, symName: __ZN3std7process15ExitStatusError4code17h72266c78c057b938E, symObjAddr: 0x336C4, symBinAddr: 0x100051000, symSize: 0x5C }
  - { offset: 0x8D22D, size: 0x8, addend: 0x0, symName: __ZN3std7process15ExitStatusError12code_nonzero17hc9ddd3303a8318deE, symObjAddr: 0x33720, symBinAddr: 0x10005105C, symSize: 0x54 }
  - { offset: 0x8D325, size: 0x8, addend: 0x0, symName: '__ZN68_$LT$std..process..ExitStatusError$u20$as$u20$core..fmt..Display$GT$3fmt17hc59fefb2dc6a02d4E', symObjAddr: 0x33774, symBinAddr: 0x1000510B0, symSize: 0x58 }
  - { offset: 0x8D394, size: 0x8, addend: 0x0, symName: __ZN3std7process8ExitCode12exit_process17h2a227207f55e0837E, symObjAddr: 0x337CC, symBinAddr: 0x100051108, symSize: 0x10 }
  - { offset: 0x8D3E1, size: 0x8, addend: 0x0, symName: __ZN3std7process5Child4kill17he2c74b5c0592edbfE, symObjAddr: 0x337DC, symBinAddr: 0x100051118, symSize: 0x4C }
  - { offset: 0x8D48C, size: 0x8, addend: 0x0, symName: __ZN3std7process5Child4wait17hc3cbcd86cb1dea23E, symObjAddr: 0x33828, symBinAddr: 0x100051164, symSize: 0xF0 }
  - { offset: 0x8D658, size: 0x8, addend: 0x0, symName: __ZN3std7process5Child8try_wait17h8b087d4da6fe1a1cE, symObjAddr: 0x33918, symBinAddr: 0x100051254, symSize: 0xB0 }
  - { offset: 0x8D718, size: 0x8, addend: 0x0, symName: __ZN3std7process5Child16wait_with_output17h377991ecdee72d3bE, symObjAddr: 0x339C8, symBinAddr: 0x100051304, symSize: 0x294 }
  - { offset: 0x8DC71, size: 0x8, addend: 0x0, symName: __ZN3std7process4exit17ha32940e661e3fd5dE, symObjAddr: 0x33C5C, symBinAddr: 0x100051598, symSize: 0x1C }
  - { offset: 0x8DC8C, size: 0x8, addend: 0x0, symName: __ZN3std7process5abort17ha5654e050dd7d7b8E, symObjAddr: 0x33C78, symBinAddr: 0x1000A52BC, symSize: 0xC }
  - { offset: 0x8DCA7, size: 0x8, addend: 0x0, symName: __ZN3std7process2id17h76464c660834ed81E, symObjAddr: 0x33C84, symBinAddr: 0x1000515B4, symSize: 0x10 }
  - { offset: 0x8DCDD, size: 0x8, addend: 0x0, symName: '__ZN61_$LT$std..process..ExitStatus$u20$as$u20$core..fmt..Debug$GT$3fmt17h16b81b1056514effE', symObjAddr: 0x3A630, symBinAddr: 0x100057444, symSize: 0x40 }
  - { offset: 0x8DD1B, size: 0x8, addend: 0x0, symName: '__ZN67_$LT$std..os..fd..owned..BorrowedFd$u20$as$u20$core..fmt..Debug$GT$3fmt17h87ada30e2fae1b64E', symObjAddr: 0x2FC44, symBinAddr: 0x10004D580, symSize: 0x64 }
  - { offset: 0x8DD42, size: 0x8, addend: 0x0, symName: '__ZN64_$LT$std..os..fd..owned..OwnedFd$u20$as$u20$core..fmt..Debug$GT$3fmt17ha3bdccae6c8993bbE', symObjAddr: 0x2FCA8, symBinAddr: 0x10004D5E4, symSize: 0x64 }
  - { offset: 0x8DD89, size: 0x8, addend: 0x0, symName: __ZN3std2os2fd5owned10BorrowedFd18try_clone_to_owned17hf369b33d76c936fdE, symObjAddr: 0x2FBDC, symBinAddr: 0x10004D518, symSize: 0x68 }
  - { offset: 0x8DE6B, size: 0x8, addend: 0x0, symName: __ZN3std2os2fd5owned7OwnedFd9try_clone17h4e6e94854b66289cE, symObjAddr: 0x2FB54, symBinAddr: 0x10004D490, symSize: 0x88 }
  - { offset: 0x8E0CB, size: 0x8, addend: 0x0, symName: '__ZN60_$LT$std..fs..File$u20$as$u20$std..os..unix..fs..FileExt$GT$7read_at17h5def3647ed811a2cE', symObjAddr: 0x2DB34, symBinAddr: 0x10004B470, symSize: 0x4C }
  - { offset: 0x8E1BE, size: 0x8, addend: 0x0, symName: '__ZN60_$LT$std..fs..File$u20$as$u20$std..os..unix..fs..FileExt$GT$16read_vectored_at17h0f4ab9dc88355a2dE', symObjAddr: 0x2DB80, symBinAddr: 0x10004B4BC, symSize: 0x10C }
  - { offset: 0x8E392, size: 0x8, addend: 0x0, symName: '__ZN60_$LT$std..fs..File$u20$as$u20$std..os..unix..fs..FileExt$GT$8write_at17hf280cb6c1fcf6c53E', symObjAddr: 0x2DC8C, symBinAddr: 0x10004B5C8, symSize: 0x4C }
  - { offset: 0x8E487, size: 0x8, addend: 0x0, symName: '__ZN60_$LT$std..fs..File$u20$as$u20$std..os..unix..fs..FileExt$GT$17write_vectored_at17h39107b5d6ff367b6E', symObjAddr: 0x2DCD8, symBinAddr: 0x10004B614, symSize: 0x10C }
  - { offset: 0x8E662, size: 0x8, addend: 0x0, symName: '__ZN69_$LT$std..fs..DirEntry$u20$as$u20$std..os..unix..fs..DirEntryExt2$GT$13file_name_ref17h8fa6008ba21d8265E', symObjAddr: 0x2DDE4, symBinAddr: 0x10004B720, symSize: 0x18 }
  - { offset: 0x8E6C9, size: 0x8, addend: 0x0, symName: __ZN3std2os4unix3net4addr11sockaddr_un17h78e1ea58fe383ccdE, symObjAddr: 0x2DDFC, symBinAddr: 0x10004B738, symSize: 0x124 }
  - { offset: 0x8E7C8, size: 0x8, addend: 0x0, symName: __ZN3std2os4unix3net4addr10SocketAddr10is_unnamed17h2644da8c56b53a5eE, symObjAddr: 0x2DF20, symBinAddr: 0x10004B85C, symSize: 0x44 }
  - { offset: 0x8E818, size: 0x8, addend: 0x0, symName: __ZN3std2os4unix3net4addr10SocketAddr11as_pathname17h5ef7429b6f36d18fE, symObjAddr: 0x2DF64, symBinAddr: 0x10004B8A0, symSize: 0x48 }
  - { offset: 0x8E8C9, size: 0x8, addend: 0x0, symName: '__ZN73_$LT$std..os..unix..net..addr..SocketAddr$u20$as$u20$core..fmt..Debug$GT$3fmt17he32d5f76e5c7083bE', symObjAddr: 0x2DFAC, symBinAddr: 0x10004B8E8, symSize: 0xAC }
  - { offset: 0x8E98F, size: 0x8, addend: 0x0, symName: __ZN3std2os4unix3net8datagram12UnixDatagram9bind_addr17h5cd8464bff5f0ee7E, symObjAddr: 0x2E2F8, symBinAddr: 0x10004BC34, symSize: 0xB0 }
  - { offset: 0x8EABB, size: 0x8, addend: 0x0, symName: __ZN3std2os4unix3net8datagram12UnixDatagram7unbound17h2915ba3e56035cb4E, symObjAddr: 0x2E3A8, symBinAddr: 0x10004BCE4, symSize: 0x58 }
  - { offset: 0x8EAF1, size: 0x8, addend: 0x0, symName: __ZN3std2os4unix3net8datagram12UnixDatagram4pair17h2977f6e111ac98f3E, symObjAddr: 0x2E400, symBinAddr: 0x10004BD3C, symSize: 0x54 }
  - { offset: 0x8EB2D, size: 0x8, addend: 0x0, symName: __ZN3std2os4unix3net8datagram12UnixDatagram12connect_addr17h4c64162343a393f9E, symObjAddr: 0x2E454, symBinAddr: 0x10004BD90, symSize: 0x3C }
  - { offset: 0x8EC01, size: 0x8, addend: 0x0, symName: __ZN3std2os4unix3net8datagram12UnixDatagram9recv_from17hf3a8d24a27f3d36fE, symObjAddr: 0x2E490, symBinAddr: 0x10004BDCC, symSize: 0x118 }
  - { offset: 0x8ED72, size: 0x8, addend: 0x0, symName: __ZN3std2os4unix3net8datagram12UnixDatagram4recv17h14f3a75868c54268E, symObjAddr: 0x2E5A8, symBinAddr: 0x10004BEE4, symSize: 0x44 }
  - { offset: 0x8EE26, size: 0x8, addend: 0x0, symName: __ZN3std2os4unix3net8datagram12UnixDatagram12send_to_addr17hcd26b6b5ee9a2193E, symObjAddr: 0x2E5EC, symBinAddr: 0x10004BF28, symSize: 0x4C }
  - { offset: 0x8EEEF, size: 0x8, addend: 0x0, symName: __ZN3std2os4unix3net8datagram12UnixDatagram4send17h4f9cf12da4b10c9dE, symObjAddr: 0x2E638, symBinAddr: 0x10004BF74, symSize: 0x4C }
  - { offset: 0x8EFE4, size: 0x8, addend: 0x0, symName: __ZN3std2os4unix3net8datagram12UnixDatagram9peek_from17h69e7ec9e8fbeb64fE, symObjAddr: 0x2E684, symBinAddr: 0x10004BFC0, symSize: 0x118 }
  - { offset: 0x8F19D, size: 0x8, addend: 0x0, symName: '__ZN79_$LT$std..os..unix..net..datagram..UnixDatagram$u20$as$u20$core..fmt..Debug$GT$3fmt17heb1c3ed899c2c0d5E', symObjAddr: 0x2E058, symBinAddr: 0x10004B994, symSize: 0x2A0 }
  - { offset: 0x8F413, size: 0x8, addend: 0x0, symName: __ZN3std2os4unix3net8listener12UnixListener9bind_addr17h26d15fc755f11b5dE, symObjAddr: 0x2E924, symBinAddr: 0x10004C260, symSize: 0xC4 }
  - { offset: 0x8F54C, size: 0x8, addend: 0x0, symName: __ZN3std2os4unix3net8listener12UnixListener6accept17h9601cea0775fdedaE, symObjAddr: 0x2E9E8, symBinAddr: 0x10004C324, symSize: 0xFC }
  - { offset: 0x8F67B, size: 0x8, addend: 0x0, symName: '__ZN79_$LT$std..os..unix..net..listener..UnixListener$u20$as$u20$core..fmt..Debug$GT$3fmt17h17cad6d4fe915433E', symObjAddr: 0x2E79C, symBinAddr: 0x10004C0D8, symSize: 0x188 }
  - { offset: 0x8F7A4, size: 0x8, addend: 0x0, symName: '__ZN97_$LT$std..os..unix..net..listener..Incoming$u20$as$u20$core..iter..traits..iterator..Iterator$GT$4next17h15d6596591430202E', symObjAddr: 0x2EAE4, symBinAddr: 0x10004C420, symSize: 0xA4 }
  - { offset: 0x8F8C9, size: 0x8, addend: 0x0, symName: __ZN3std2os4unix3net6stream10UnixStream12connect_addr17hf084f6b27d181dccE, symObjAddr: 0x2EE28, symBinAddr: 0x10004C764, symSize: 0xB0 }
  - { offset: 0x8F9D2, size: 0x8, addend: 0x0, symName: __ZN3std2os4unix3net6stream10UnixStream4pair17h08b043ce519100b7E, symObjAddr: 0x2EED8, symBinAddr: 0x10004C814, symSize: 0x54 }
  - { offset: 0x8FA0E, size: 0x8, addend: 0x0, symName: __ZN3std2os4unix3net6stream10UnixStream10local_addr17h0a464fd554275c9aE, symObjAddr: 0x2EF2C, symBinAddr: 0x10004C868, symSize: 0xE0 }
  - { offset: 0x8FB12, size: 0x8, addend: 0x0, symName: __ZN3std2os4unix3net6stream10UnixStream9peer_addr17hd796d10e8a0db0e6E, symObjAddr: 0x2F00C, symBinAddr: 0x10004C948, symSize: 0xE0 }
  - { offset: 0x8FC16, size: 0x8, addend: 0x0, symName: __ZN3std2os4unix3net6stream10UnixStream9peer_cred17he2ebf02974ec9370E, symObjAddr: 0x2F0EC, symBinAddr: 0x10004CA28, symSize: 0xD0 }
  - { offset: 0x8FCF0, size: 0x8, addend: 0x0, symName: __ZN3std2os4unix3net6stream10UnixStream16set_read_timeout17h52951a1070ac3e11E, symObjAddr: 0x2F1BC, symBinAddr: 0x10004CAF8, symSize: 0xB4 }
  - { offset: 0x8FDB0, size: 0x8, addend: 0x0, symName: __ZN3std2os4unix3net6stream10UnixStream17set_write_timeout17hcff3819715ad2411E, symObjAddr: 0x2F270, symBinAddr: 0x10004CBAC, symSize: 0xB4 }
  - { offset: 0x8FE70, size: 0x8, addend: 0x0, symName: __ZN3std2os4unix3net6stream10UnixStream12read_timeout17h69e380f11c56b874E, symObjAddr: 0x2F324, symBinAddr: 0x10004CC60, symSize: 0xFC }
  - { offset: 0x8FF96, size: 0x8, addend: 0x0, symName: __ZN3std2os4unix3net6stream10UnixStream13write_timeout17hd33212a7ffc212faE, symObjAddr: 0x2F420, symBinAddr: 0x10004CD5C, symSize: 0xFC }
  - { offset: 0x900BC, size: 0x8, addend: 0x0, symName: __ZN3std2os4unix3net6stream10UnixStream15set_nonblocking17h5f802c52d2800b2aE, symObjAddr: 0x2F51C, symBinAddr: 0x10004CE58, symSize: 0x54 }
  - { offset: 0x9015A, size: 0x8, addend: 0x0, symName: __ZN3std2os4unix3net6stream10UnixStream10take_error17hcb494512a37e620fE, symObjAddr: 0x2F570, symBinAddr: 0x10004CEAC, symSize: 0x74 }
  - { offset: 0x90268, size: 0x8, addend: 0x0, symName: __ZN3std2os4unix3net6stream10UnixStream8shutdown17h86e98b1037e4f464E, symObjAddr: 0x2F5E4, symBinAddr: 0x10004CF20, symSize: 0x3C }
  - { offset: 0x90306, size: 0x8, addend: 0x0, symName: __ZN3std2os4unix3net6stream10UnixStream4peek17hba1fccb6052f5694E, symObjAddr: 0x2F620, symBinAddr: 0x10004CF5C, symSize: 0x44 }
  - { offset: 0x903EC, size: 0x8, addend: 0x0, symName: '__ZN75_$LT$std..os..unix..net..stream..UnixStream$u20$as$u20$core..fmt..Debug$GT$3fmt17h6d14933342680283E', symObjAddr: 0x2EB88, symBinAddr: 0x10004C4C4, symSize: 0x2A0 }
  - { offset: 0x90647, size: 0x8, addend: 0x0, symName: '__ZN76_$LT$$RF$std..os..unix..net..stream..UnixStream$u20$as$u20$std..io..Read$GT$8read_buf17h51a891df5e8924eeE', symObjAddr: 0x2F764, symBinAddr: 0x10004D0A0, symSize: 0x74 }
  - { offset: 0x907D7, size: 0x8, addend: 0x0, symName: '__ZN72_$LT$std..os..unix..net..stream..UnixStream$u20$as$u20$std..io..Read$GT$4read17hf42006c51097fa17E', symObjAddr: 0x2F664, symBinAddr: 0x10004CFA0, symSize: 0x44 }
  - { offset: 0x908A1, size: 0x8, addend: 0x0, symName: '__ZN72_$LT$std..os..unix..net..stream..UnixStream$u20$as$u20$std..io..Read$GT$8read_buf17hed62b1ef52a99a23E', symObjAddr: 0x2F6A8, symBinAddr: 0x10004CFE4, symSize: 0x70 }
  - { offset: 0x90A48, size: 0x8, addend: 0x0, symName: '__ZN72_$LT$std..os..unix..net..stream..UnixStream$u20$as$u20$std..io..Read$GT$13read_vectored17h227f95b0dfdd86ceE', symObjAddr: 0x2F718, symBinAddr: 0x10004D054, symSize: 0x4C }
  - { offset: 0x90B77, size: 0x8, addend: 0x0, symName: '__ZN76_$LT$std..process..Command$u20$as$u20$std..os..unix..process..CommandExt$GT$6groups17h338d4877e11236f8E', symObjAddr: 0x2F7D8, symBinAddr: 0x10004D114, symSize: 0xC8 }
  - { offset: 0x90CF8, size: 0x8, addend: 0x0, symName: '__ZN76_$LT$std..process..Command$u20$as$u20$std..os..unix..process..CommandExt$GT$4exec17h140358897d4de263E', symObjAddr: 0x2F8A0, symBinAddr: 0x10004D1DC, symSize: 0x26C }
  - { offset: 0x912F9, size: 0x8, addend: 0x0, symName: '__ZN87_$LT$std..process..ExitStatusError$u20$as$u20$std..os..unix..process..ExitStatusExt$GT$8from_raw17h62297d6dd459e22dE', symObjAddr: 0x2FB0C, symBinAddr: 0x10004D448, symSize: 0x38 }
  - { offset: 0x91324, size: 0x8, addend: 0x0, symName: __ZN3std2os4unix7process9parent_id17h981db53f9e3e640bE, symObjAddr: 0x2FB44, symBinAddr: 0x10004D480, symSize: 0x10 }
  - { offset: 0x91563, size: 0x8, addend: 0x0, symName: __ZN3std3ffi6os_str8OsString4push17hbf4db6c1c049a489E, symObjAddr: 0x21764, symBinAddr: 0x10003F22C, symSize: 0x74 }
  - { offset: 0x91674, size: 0x8, addend: 0x0, symName: __ZN3std3ffi6os_str8OsString17into_boxed_os_str17h44bbdd6a975c21d6E, symObjAddr: 0x217D8, symBinAddr: 0x10003F2A0, symSize: 0x98 }
  - { offset: 0x918A2, size: 0x8, addend: 0x0, symName: __ZN3std3ffi6os_str5OsStr14into_os_string17h905883b86de4366bE, symObjAddr: 0x218E8, symBinAddr: 0x10003F3B0, symSize: 0x18 }
  - { offset: 0x918BD, size: 0x8, addend: 0x0, symName: __ZN3std3ffi6os_str5OsStr18to_ascii_lowercase17hb07e79952e4d688bE, symObjAddr: 0x21900, symBinAddr: 0x10003F3C8, symSize: 0x198 }
  - { offset: 0x91A3A, size: 0x8, addend: 0x0, symName: __ZN3std3ffi6os_str5OsStr18to_ascii_uppercase17h2ffb94f9610a9e7fE, symObjAddr: 0x21A98, symBinAddr: 0x10003F560, symSize: 0x198 }
  - { offset: 0x91C49, size: 0x8, addend: 0x0, symName: '__ZN63_$LT$std..ffi..os_str..OsString$u20$as$u20$core..fmt..Write$GT$9write_str17h749659e530f56521E', symObjAddr: 0x21870, symBinAddr: 0x10003F338, symSize: 0x78 }
  - { offset: 0x91D97, size: 0x8, addend: 0x0, symName: '__ZN3std3ffi6os_str95_$LT$impl$u20$core..convert..TryFrom$LT$$RF$std..ffi..os_str..OsStr$GT$$u20$for$u20$$RF$str$GT$8try_from17hb5fc51c2472140bdE', symObjAddr: 0x21C30, symBinAddr: 0x10003F6F8, symSize: 0x10 }
  - { offset: 0x91DCE, size: 0x8, addend: 0x0, symName: '__ZN62_$LT$std..ffi..os_str..Display$u20$as$u20$core..fmt..Debug$GT$3fmt17h7d12bc1368f939cdE', symObjAddr: 0x21C40, symBinAddr: 0x10003F708, symSize: 0x28 }
  - { offset: 0x91E4D, size: 0x8, addend: 0x0, symName: '__ZN64_$LT$std..ffi..os_str..Display$u20$as$u20$core..fmt..Display$GT$3fmt17h04d7074a55f6676bE', symObjAddr: 0x21C68, symBinAddr: 0x10003F730, symSize: 0x1C }
  - { offset: 0x91FF8, size: 0x8, addend: 0x0, symName: '__ZN80_$LT$std..io..Write..write_fmt..Adapter$LT$T$GT$$u20$as$u20$core..fmt..Write$GT$9write_str17h64ea2fbc1f5f0853E', symObjAddr: 0x2B8C4, symBinAddr: 0x100049200, symSize: 0xFC }
  - { offset: 0x92168, size: 0x8, addend: 0x0, symName: '__ZN80_$LT$std..io..Write..write_fmt..Adapter$LT$T$GT$$u20$as$u20$core..fmt..Write$GT$9write_str17h75c36ef11ac3f122E', symObjAddr: 0x2B9C0, symBinAddr: 0x1000492FC, symSize: 0x50 }
  - { offset: 0x92192, size: 0x8, addend: 0x0, symName: '__ZN80_$LT$std..io..Write..write_fmt..Adapter$LT$T$GT$$u20$as$u20$core..fmt..Write$GT$9write_str17h808087a2a66ffdcaE', symObjAddr: 0x2BA10, symBinAddr: 0x10004934C, symSize: 0x78 }
  - { offset: 0x922A4, size: 0x8, addend: 0x0, symName: '__ZN80_$LT$std..io..Write..write_fmt..Adapter$LT$T$GT$$u20$as$u20$core..fmt..Write$GT$9write_str17h8892fe6f8ace93a6E', symObjAddr: 0x2BA88, symBinAddr: 0x1000493C4, symSize: 0xFC }
  - { offset: 0x92414, size: 0x8, addend: 0x0, symName: '__ZN80_$LT$std..io..Write..write_fmt..Adapter$LT$T$GT$$u20$as$u20$core..fmt..Write$GT$9write_str17hb846acd6cb9beefeE', symObjAddr: 0x2BB84, symBinAddr: 0x1000494C0, symSize: 0x94 }
  - { offset: 0x926F1, size: 0x8, addend: 0x0, symName: __ZN3std2io5Write9write_all17h55d8f701e2d1f888E, symObjAddr: 0x2B19C, symBinAddr: 0x100048AD8, symSize: 0xDC }
  - { offset: 0x92837, size: 0x8, addend: 0x0, symName: __ZN3std2io5Write18write_all_vectored17h3b084026095e57fdE, symObjAddr: 0x2B278, symBinAddr: 0x100048BB4, symSize: 0x2C8 }
  - { offset: 0x92D1E, size: 0x8, addend: 0x0, symName: __ZN3std2io5Write18write_all_vectored17h769420b72da5d932E, symObjAddr: 0x2B540, symBinAddr: 0x100048E7C, symSize: 0x22C }
  - { offset: 0x9309F, size: 0x8, addend: 0x0, symName: __ZN3std2io5Write9write_fmt17hb29a27983b9257a6E, symObjAddr: 0x2B76C, symBinAddr: 0x1000490A8, symSize: 0xAC }
  - { offset: 0x93124, size: 0x8, addend: 0x0, symName: __ZN3std2io5Write9write_fmt17hfb2314975de9ecf1E, symObjAddr: 0x2B818, symBinAddr: 0x100049154, symSize: 0xAC }
  - { offset: 0x931EC, size: 0x8, addend: 0x0, symName: '__ZN61_$LT$std..io..stdio..StderrLock$u20$as$u20$std..io..Write$GT$5write17hf34151a8139cfe73E', symObjAddr: 0x29B88, symBinAddr: 0x1000474C4, symSize: 0xBC }
  - { offset: 0x9352E, size: 0x8, addend: 0x0, symName: '__ZN61_$LT$std..io..stdio..StderrLock$u20$as$u20$std..io..Write$GT$14write_vectored17h95b25be921a0a554E', symObjAddr: 0x29C44, symBinAddr: 0x100047580, symSize: 0x15C }
  - { offset: 0x93910, size: 0x8, addend: 0x0, symName: '__ZN61_$LT$std..io..stdio..StderrLock$u20$as$u20$std..io..Write$GT$5flush17h776c6f1df8309421E', symObjAddr: 0x29DA0, symBinAddr: 0x1000476DC, symSize: 0x2C }
  - { offset: 0x93927, size: 0x8, addend: 0x0, symName: '__ZN61_$LT$std..io..stdio..StderrLock$u20$as$u20$std..io..Write$GT$5flush17h776c6f1df8309421E', symObjAddr: 0x29DA0, symBinAddr: 0x1000476DC, symSize: 0x2C }
  - { offset: 0x93A22, size: 0x8, addend: 0x0, symName: '__ZN61_$LT$std..io..stdio..StderrLock$u20$as$u20$std..io..Write$GT$9write_all17hbfcf18a66b3f99c4E', symObjAddr: 0x29DCC, symBinAddr: 0x100047708, symSize: 0x58 }
  - { offset: 0x93C4E, size: 0x8, addend: 0x0, symName: '__ZN61_$LT$std..io..stdio..StderrLock$u20$as$u20$std..io..Write$GT$18write_all_vectored17h4db7a1f7f74d78a9E', symObjAddr: 0x29E24, symBinAddr: 0x100047760, symSize: 0x90 }
  - { offset: 0x93F76, size: 0x8, addend: 0x0, symName: '__ZN58_$LT$std..io..stdio..StdinRaw$u20$as$u20$std..io..Read$GT$4read17h9fcdc10ba5bbd1d4E', symObjAddr: 0x25F60, symBinAddr: 0x10004389C, symSize: 0x70 }
  - { offset: 0x94089, size: 0x8, addend: 0x0, symName: '__ZN58_$LT$std..io..stdio..StdinRaw$u20$as$u20$std..io..Read$GT$8read_buf17he31417566c2b6036E', symObjAddr: 0x25FD0, symBinAddr: 0x10004390C, symSize: 0x98 }
  - { offset: 0x94276, size: 0x8, addend: 0x0, symName: '__ZN58_$LT$std..io..stdio..StdinRaw$u20$as$u20$std..io..Read$GT$13read_vectored17h620da9696843f69eE', symObjAddr: 0x26068, symBinAddr: 0x1000439A4, symSize: 0x70 }
  - { offset: 0x94389, size: 0x8, addend: 0x0, symName: '__ZN58_$LT$std..io..stdio..StdinRaw$u20$as$u20$std..io..Read$GT$11read_to_end17h4c369428d37fd816E', symObjAddr: 0x260D8, symBinAddr: 0x100043A14, symSize: 0x70 }
  - { offset: 0x9442F, size: 0x8, addend: 0x0, symName: '__ZN58_$LT$std..io..stdio..StdinRaw$u20$as$u20$std..io..Read$GT$14read_to_string17h6e6400e5eda9e9bfE', symObjAddr: 0x26148, symBinAddr: 0x100043A84, symSize: 0x104 }
  - { offset: 0x946CB, size: 0x8, addend: 0x0, symName: '__ZN60_$LT$std..io..stdio..StdoutRaw$u20$as$u20$std..io..Write$GT$5write17he3386ff418d415caE', symObjAddr: 0x2624C, symBinAddr: 0x100043B88, symSize: 0x80 }
  - { offset: 0x947E0, size: 0x8, addend: 0x0, symName: '__ZN60_$LT$std..io..stdio..StdoutRaw$u20$as$u20$std..io..Write$GT$14write_vectored17hc37f6afa360d9f54E', symObjAddr: 0x262CC, symBinAddr: 0x100043C08, symSize: 0x120 }
  - { offset: 0x9498E, size: 0x8, addend: 0x0, symName: '__ZN60_$LT$std..io..stdio..StdoutRaw$u20$as$u20$std..io..Write$GT$9write_all17hd4efa8adaeafa924E', symObjAddr: 0x263EC, symBinAddr: 0x100043D28, symSize: 0x100 }
  - { offset: 0x94B64, size: 0x8, addend: 0x0, symName: '__ZN60_$LT$std..io..stdio..StdoutRaw$u20$as$u20$std..io..Write$GT$18write_all_vectored17h872295f008113471E', symObjAddr: 0x264EC, symBinAddr: 0x100043E28, symSize: 0x240 }
  - { offset: 0x94F6E, size: 0x8, addend: 0x0, symName: '__ZN60_$LT$std..io..stdio..StdoutRaw$u20$as$u20$std..io..Write$GT$9write_fmt17hbaad2d785c13c2ffE', symObjAddr: 0x2672C, symBinAddr: 0x100044068, symSize: 0xD0 }
  - { offset: 0x95096, size: 0x8, addend: 0x0, symName: '__ZN60_$LT$std..io..stdio..StderrRaw$u20$as$u20$std..io..Write$GT$5write17hfb1190a65762ccb3E', symObjAddr: 0x267FC, symBinAddr: 0x100044138, symSize: 0x80 }
  - { offset: 0x951BE, size: 0x8, addend: 0x0, symName: '__ZN60_$LT$std..io..stdio..StderrRaw$u20$as$u20$std..io..Write$GT$14write_vectored17hc2e41532c8c3f35cE', symObjAddr: 0x2687C, symBinAddr: 0x1000441B8, symSize: 0x120 }
  - { offset: 0x9536C, size: 0x8, addend: 0x0, symName: '__ZN60_$LT$std..io..stdio..StderrRaw$u20$as$u20$std..io..Write$GT$5flush17h56f061af9bb40b76E', symObjAddr: 0x2699C, symBinAddr: 0x1000442D8, symSize: 0x14 }
  - { offset: 0x95386, size: 0x8, addend: 0x0, symName: '__ZN60_$LT$std..io..stdio..StderrRaw$u20$as$u20$std..io..Write$GT$9write_all17h19261c865c22f733E', symObjAddr: 0x269B0, symBinAddr: 0x1000442EC, symSize: 0x100 }
  - { offset: 0x9555C, size: 0x8, addend: 0x0, symName: '__ZN60_$LT$std..io..stdio..StderrRaw$u20$as$u20$std..io..Write$GT$18write_all_vectored17h7a928b6a5521f4c7E', symObjAddr: 0x26AB0, symBinAddr: 0x1000443EC, symSize: 0x4C }
  - { offset: 0x955EE, size: 0x8, addend: 0x0, symName: '__ZN60_$LT$std..io..stdio..StderrRaw$u20$as$u20$std..io..Write$GT$9write_fmt17hf4750e39059eaf4fE', symObjAddr: 0x26AFC, symBinAddr: 0x100044438, symSize: 0xD0 }
  - { offset: 0x95738, size: 0x8, addend: 0x0, symName: __ZN3std2io5stdio5stdin17h7145c84d8c7739f4E, symObjAddr: 0x26BCC, symBinAddr: 0x100044508, symSize: 0x3C }
  - { offset: 0x95770, size: 0x8, addend: 0x0, symName: __ZN3std2io5stdio5stdin17h7145c84d8c7739f4E, symObjAddr: 0x26BCC, symBinAddr: 0x100044508, symSize: 0x3C }
  - { offset: 0x95785, size: 0x8, addend: 0x0, symName: __ZN3std2io5stdio5stdin17h7145c84d8c7739f4E, symObjAddr: 0x26BCC, symBinAddr: 0x100044508, symSize: 0x3C }
  - { offset: 0x95799, size: 0x8, addend: 0x0, symName: __ZN3std2io5stdio5stdin17h7145c84d8c7739f4E, symObjAddr: 0x26BCC, symBinAddr: 0x100044508, symSize: 0x3C }
  - { offset: 0x957AE, size: 0x8, addend: 0x0, symName: __ZN3std2io5stdio5stdin17h7145c84d8c7739f4E, symObjAddr: 0x26BCC, symBinAddr: 0x100044508, symSize: 0x3C }
  - { offset: 0x957C3, size: 0x8, addend: 0x0, symName: __ZN3std2io5stdio5stdin17h7145c84d8c7739f4E, symObjAddr: 0x26BCC, symBinAddr: 0x100044508, symSize: 0x3C }
  - { offset: 0x957D7, size: 0x8, addend: 0x0, symName: __ZN3std2io5stdio5stdin17h7145c84d8c7739f4E, symObjAddr: 0x26BCC, symBinAddr: 0x100044508, symSize: 0x3C }
  - { offset: 0x957F6, size: 0x8, addend: 0x0, symName: __ZN3std2io5stdio5Stdin4lock17h9ef3031979859a80E, symObjAddr: 0x26C08, symBinAddr: 0x100044544, symSize: 0x68 }
  - { offset: 0x95935, size: 0x8, addend: 0x0, symName: __ZN3std2io5stdio5Stdin9read_line17h5f0eb4e002802e71E, symObjAddr: 0x26C70, symBinAddr: 0x1000445AC, symSize: 0x170 }
  - { offset: 0x95D66, size: 0x8, addend: 0x0, symName: __ZN3std2io5stdio5Stdin5lines17h33a8c92c24d79021E, symObjAddr: 0x26DE0, symBinAddr: 0x10004471C, symSize: 0x68 }
  - { offset: 0x95EC0, size: 0x8, addend: 0x0, symName: '__ZN62_$LT$std..io..stdio..StdinLock$u20$as$u20$std..io..BufRead$GT$8fill_buf17hf52b7c577e9ec1deE', symObjAddr: 0x282AC, symBinAddr: 0x100045BE8, symSize: 0xBC }
  - { offset: 0x960F9, size: 0x8, addend: 0x0, symName: '__ZN62_$LT$std..io..stdio..StdinLock$u20$as$u20$std..io..BufRead$GT$7consume17h2cacbeaf46323169E', symObjAddr: 0x28368, symBinAddr: 0x100045CA4, symSize: 0x28 }
  - { offset: 0x96196, size: 0x8, addend: 0x0, symName: '__ZN62_$LT$std..io..stdio..StdinLock$u20$as$u20$std..io..BufRead$GT$10read_until17hfff5c8b0bced4183E', symObjAddr: 0x28390, symBinAddr: 0x100045CCC, symSize: 0x18 }
  - { offset: 0x961F2, size: 0x8, addend: 0x0, symName: '__ZN62_$LT$std..io..stdio..StdinLock$u20$as$u20$std..io..BufRead$GT$9read_line17hdb1f5b35268e7d85E', symObjAddr: 0x283A8, symBinAddr: 0x100045CE4, symSize: 0xC0 }
  - { offset: 0x963DC, size: 0x8, addend: 0x0, symName: '__ZN58_$LT$std..io..stdio..Stdin$u20$as$u20$core..fmt..Debug$GT$3fmt17h5bfd039f155bf829E', symObjAddr: 0x26E48, symBinAddr: 0x100044784, symSize: 0x38 }
  - { offset: 0x96427, size: 0x8, addend: 0x0, symName: '__ZN59_$LT$std..io..stdio..StdinLock$u20$as$u20$std..io..Read$GT$4read17h2584a58fe8f105bdE', symObjAddr: 0x27BE4, symBinAddr: 0x100045520, symSize: 0x18 }
  - { offset: 0x96467, size: 0x8, addend: 0x0, symName: '__ZN59_$LT$std..io..stdio..StdinLock$u20$as$u20$std..io..Read$GT$8read_buf17h4fad575d9799f33eE', symObjAddr: 0x27BFC, symBinAddr: 0x100045538, symSize: 0x18 }
  - { offset: 0x964A7, size: 0x8, addend: 0x0, symName: '__ZN59_$LT$std..io..stdio..StdinLock$u20$as$u20$std..io..Read$GT$13read_vectored17h3dd48197ca2b9cddE', symObjAddr: 0x27C14, symBinAddr: 0x100045550, symSize: 0x270 }
  - { offset: 0x96A02, size: 0x8, addend: 0x0, symName: '__ZN59_$LT$std..io..stdio..StdinLock$u20$as$u20$std..io..Read$GT$11read_to_end17h351d1b72a7a757c2E', symObjAddr: 0x27E84, symBinAddr: 0x1000457C0, symSize: 0x18 }
  - { offset: 0x96A42, size: 0x8, addend: 0x0, symName: '__ZN59_$LT$std..io..stdio..StdinLock$u20$as$u20$std..io..Read$GT$14read_to_string17h417c875d5d3d9671E', symObjAddr: 0x27E9C, symBinAddr: 0x1000457D8, symSize: 0x1A8 }
  - { offset: 0x96EFB, size: 0x8, addend: 0x0, symName: '__ZN59_$LT$std..io..stdio..StdinLock$u20$as$u20$std..io..Read$GT$10read_exact17h412fd636fd6adc14E', symObjAddr: 0x28044, symBinAddr: 0x100045980, symSize: 0x128 }
  - { offset: 0x97125, size: 0x8, addend: 0x0, symName: '__ZN59_$LT$std..io..stdio..StdinLock$u20$as$u20$std..io..Read$GT$14read_buf_exact17hdefa9a6db9587e17E', symObjAddr: 0x2816C, symBinAddr: 0x100045AA8, symSize: 0x140 }
  - { offset: 0x97432, size: 0x8, addend: 0x0, symName: '__ZN55_$LT$std..io..stdio..Stdin$u20$as$u20$std..io..Read$GT$4read17h55708d666c9f69c5E', symObjAddr: 0x26E80, symBinAddr: 0x1000447BC, symSize: 0xF4 }
  - { offset: 0x976CE, size: 0x8, addend: 0x0, symName: '__ZN55_$LT$std..io..stdio..Stdin$u20$as$u20$std..io..Read$GT$8read_buf17hca872ab55309548dE', symObjAddr: 0x26F74, symBinAddr: 0x1000448B0, symSize: 0xDC }
  - { offset: 0x9796A, size: 0x8, addend: 0x0, symName: '__ZN55_$LT$std..io..stdio..Stdin$u20$as$u20$std..io..Read$GT$13read_vectored17hd0cb5acf86b8446aE', symObjAddr: 0x27050, symBinAddr: 0x10004498C, symSize: 0x104 }
  - { offset: 0x97BC5, size: 0x8, addend: 0x0, symName: '__ZN55_$LT$std..io..stdio..Stdin$u20$as$u20$std..io..Read$GT$11read_to_end17h99b84fc8c5f9eda6E', symObjAddr: 0x27154, symBinAddr: 0x100044A90, symSize: 0xEC }
  - { offset: 0x97E61, size: 0x8, addend: 0x0, symName: '__ZN55_$LT$std..io..stdio..Stdin$u20$as$u20$std..io..Read$GT$14read_to_string17hf37058f7515c3f09E', symObjAddr: 0x27240, symBinAddr: 0x100044B7C, symSize: 0xFC }
  - { offset: 0x980BC, size: 0x8, addend: 0x0, symName: '__ZN55_$LT$std..io..stdio..Stdin$u20$as$u20$std..io..Read$GT$10read_exact17h23b14094e7a8dd4eE', symObjAddr: 0x2733C, symBinAddr: 0x100044C78, symSize: 0xFC }
  - { offset: 0x98317, size: 0x8, addend: 0x0, symName: '__ZN55_$LT$std..io..stdio..Stdin$u20$as$u20$std..io..Read$GT$14read_buf_exact17h2ca2fc1beca4f697E', symObjAddr: 0x27438, symBinAddr: 0x100044D74, symSize: 0xEC }
  - { offset: 0x98578, size: 0x8, addend: 0x0, symName: '__ZN59_$LT$$RF$std..io..stdio..Stdin$u20$as$u20$std..io..Read$GT$4read17h4feb926b004522ceE', symObjAddr: 0x27524, symBinAddr: 0x100044E60, symSize: 0xF8 }
  - { offset: 0x98814, size: 0x8, addend: 0x0, symName: '__ZN59_$LT$$RF$std..io..stdio..Stdin$u20$as$u20$std..io..Read$GT$8read_buf17h1e42170d5db6a5bbE', symObjAddr: 0x2761C, symBinAddr: 0x100044F58, symSize: 0xE0 }
  - { offset: 0x98AB0, size: 0x8, addend: 0x0, symName: '__ZN59_$LT$$RF$std..io..stdio..Stdin$u20$as$u20$std..io..Read$GT$13read_vectored17h3de30b5ea61188b4E', symObjAddr: 0x276FC, symBinAddr: 0x100045038, symSize: 0x108 }
  - { offset: 0x98D0B, size: 0x8, addend: 0x0, symName: '__ZN59_$LT$$RF$std..io..stdio..Stdin$u20$as$u20$std..io..Read$GT$11read_to_end17h7fddcdef9d94ceb2E', symObjAddr: 0x27804, symBinAddr: 0x100045140, symSize: 0xF0 }
  - { offset: 0x98FA7, size: 0x8, addend: 0x0, symName: '__ZN59_$LT$$RF$std..io..stdio..Stdin$u20$as$u20$std..io..Read$GT$14read_to_string17hf0cf5547616c579bE', symObjAddr: 0x278F4, symBinAddr: 0x100045230, symSize: 0x100 }
  - { offset: 0x99202, size: 0x8, addend: 0x0, symName: '__ZN59_$LT$$RF$std..io..stdio..Stdin$u20$as$u20$std..io..Read$GT$10read_exact17h655c2f8bf6a9e3c7E', symObjAddr: 0x279F4, symBinAddr: 0x100045330, symSize: 0x100 }
  - { offset: 0x9945D, size: 0x8, addend: 0x0, symName: '__ZN59_$LT$$RF$std..io..stdio..Stdin$u20$as$u20$std..io..Read$GT$14read_buf_exact17h6c68a20e4a6283dcE', symObjAddr: 0x27AF4, symBinAddr: 0x100045430, symSize: 0xF0 }
  - { offset: 0x996BE, size: 0x8, addend: 0x0, symName: '__ZN62_$LT$std..io..stdio..StdinLock$u20$as$u20$core..fmt..Debug$GT$3fmt17hdf497071c47a7328E', symObjAddr: 0x28468, symBinAddr: 0x100045DA4, symSize: 0x38 }
  - { offset: 0x996DA, size: 0x8, addend: 0x0, symName: __ZN3std2io5stdio6stdout17h72508069a7cc320dE, symObjAddr: 0x284A0, symBinAddr: 0x100045DDC, symSize: 0x3C }
  - { offset: 0x9970B, size: 0x8, addend: 0x0, symName: __ZN3std2io5stdio6stdout17h72508069a7cc320dE, symObjAddr: 0x284A0, symBinAddr: 0x100045DDC, symSize: 0x3C }
  - { offset: 0x99720, size: 0x8, addend: 0x0, symName: __ZN3std2io5stdio6stdout17h72508069a7cc320dE, symObjAddr: 0x284A0, symBinAddr: 0x100045DDC, symSize: 0x3C }
  - { offset: 0x99734, size: 0x8, addend: 0x0, symName: __ZN3std2io5stdio6stdout17h72508069a7cc320dE, symObjAddr: 0x284A0, symBinAddr: 0x100045DDC, symSize: 0x3C }
  - { offset: 0x99749, size: 0x8, addend: 0x0, symName: __ZN3std2io5stdio6stdout17h72508069a7cc320dE, symObjAddr: 0x284A0, symBinAddr: 0x100045DDC, symSize: 0x3C }
  - { offset: 0x9975E, size: 0x8, addend: 0x0, symName: __ZN3std2io5stdio6stdout17h72508069a7cc320dE, symObjAddr: 0x284A0, symBinAddr: 0x100045DDC, symSize: 0x3C }
  - { offset: 0x99772, size: 0x8, addend: 0x0, symName: __ZN3std2io5stdio6stdout17h72508069a7cc320dE, symObjAddr: 0x284A0, symBinAddr: 0x100045DDC, symSize: 0x3C }
  - { offset: 0x99791, size: 0x8, addend: 0x0, symName: '__ZN59_$LT$std..io..stdio..Stdout$u20$as$u20$core..fmt..Debug$GT$3fmt17hbeaf0df6fb028f81E', symObjAddr: 0x284DC, symBinAddr: 0x100045E18, symSize: 0x38 }
  - { offset: 0x997DC, size: 0x8, addend: 0x0, symName: '__ZN61_$LT$$RF$std..io..stdio..Stdout$u20$as$u20$std..io..Write$GT$5write17hfc906564036016eeE', symObjAddr: 0x28750, symBinAddr: 0x10004608C, symSize: 0xA4 }
  - { offset: 0x998BA, size: 0x8, addend: 0x0, symName: '__ZN61_$LT$$RF$std..io..stdio..Stdout$u20$as$u20$std..io..Write$GT$14write_vectored17hccbd8beef7983bf4E', symObjAddr: 0x287F4, symBinAddr: 0x100046130, symSize: 0xD8 }
  - { offset: 0x99BD9, size: 0x8, addend: 0x0, symName: '__ZN61_$LT$$RF$std..io..stdio..Stdout$u20$as$u20$std..io..Write$GT$5flush17h58655f6bbc206bf2E', symObjAddr: 0x288CC, symBinAddr: 0x100046208, symSize: 0xB8 }
  - { offset: 0x99F0D, size: 0x8, addend: 0x0, symName: '__ZN61_$LT$$RF$std..io..stdio..Stdout$u20$as$u20$std..io..Write$GT$9write_all17h2d357e348f4f8425E', symObjAddr: 0x28984, symBinAddr: 0x1000462C0, symSize: 0x9C }
  - { offset: 0x99FEB, size: 0x8, addend: 0x0, symName: '__ZN61_$LT$$RF$std..io..stdio..Stdout$u20$as$u20$std..io..Write$GT$18write_all_vectored17h52c5964141a1029bE', symObjAddr: 0x28A20, symBinAddr: 0x10004635C, symSize: 0x9C }
  - { offset: 0x9A0C9, size: 0x8, addend: 0x0, symName: '__ZN61_$LT$$RF$std..io..stdio..Stdout$u20$as$u20$std..io..Write$GT$9write_fmt17hd2218ab034297dbaE', symObjAddr: 0x28ABC, symBinAddr: 0x1000463F8, symSize: 0x108 }
  - { offset: 0x9A232, size: 0x8, addend: 0x0, symName: '__ZN57_$LT$std..io..stdio..Stdout$u20$as$u20$std..io..Write$GT$5write17h526e3cbf4f4ce3cbE', symObjAddr: 0x28514, symBinAddr: 0x100045E50, symSize: 0xA0 }
  - { offset: 0x9A325, size: 0x8, addend: 0x0, symName: '__ZN57_$LT$std..io..stdio..Stdout$u20$as$u20$std..io..Write$GT$14write_vectored17hcd80fc6b9a377560E', symObjAddr: 0x285B4, symBinAddr: 0x100045EF0, symSize: 0x24 }
  - { offset: 0x9A340, size: 0x8, addend: 0x0, symName: '__ZN57_$LT$std..io..stdio..Stdout$u20$as$u20$std..io..Write$GT$5flush17h557d1a7167c7f2eaE', symObjAddr: 0x285D8, symBinAddr: 0x100045F14, symSize: 0x24 }
  - { offset: 0x9A35B, size: 0x8, addend: 0x0, symName: '__ZN57_$LT$std..io..stdio..Stdout$u20$as$u20$std..io..Write$GT$9write_all17h60969d8e0f36d999E', symObjAddr: 0x285FC, symBinAddr: 0x100045F38, symSize: 0x98 }
  - { offset: 0x9A44E, size: 0x8, addend: 0x0, symName: '__ZN57_$LT$std..io..stdio..Stdout$u20$as$u20$std..io..Write$GT$18write_all_vectored17h4de030f81f726559E', symObjAddr: 0x28694, symBinAddr: 0x100045FD0, symSize: 0x98 }
  - { offset: 0x9A541, size: 0x8, addend: 0x0, symName: '__ZN57_$LT$std..io..stdio..Stdout$u20$as$u20$std..io..Write$GT$9write_fmt17h7d3b358802a86c17E', symObjAddr: 0x2872C, symBinAddr: 0x100046068, symSize: 0x24 }
  - { offset: 0x9A585, size: 0x8, addend: 0x0, symName: '__ZN61_$LT$std..io..stdio..StdoutLock$u20$as$u20$std..io..Write$GT$5write17h2bc59b9125fa6c16E', symObjAddr: 0x28BC4, symBinAddr: 0x100046500, symSize: 0x280 }
  - { offset: 0x9AD97, size: 0x8, addend: 0x0, symName: '__ZN61_$LT$std..io..stdio..StdoutLock$u20$as$u20$std..io..Write$GT$14write_vectored17h4f6772d4a989f1c2E', symObjAddr: 0x28E44, symBinAddr: 0x100046780, symSize: 0x5C }
  - { offset: 0x9AFED, size: 0x8, addend: 0x0, symName: '__ZN61_$LT$std..io..stdio..StdoutLock$u20$as$u20$std..io..Write$GT$5flush17hac3f2e1402518e45E', symObjAddr: 0x28EA0, symBinAddr: 0x1000467DC, symSize: 0x5C }
  - { offset: 0x9B258, size: 0x8, addend: 0x0, symName: '__ZN61_$LT$std..io..stdio..StdoutLock$u20$as$u20$std..io..Write$GT$9write_all17h3b8af37557bbe1edE', symObjAddr: 0x28EFC, symBinAddr: 0x100046838, symSize: 0x1AC }
  - { offset: 0x9B7EE, size: 0x8, addend: 0x0, symName: '__ZN61_$LT$std..io..stdio..StdoutLock$u20$as$u20$std..io..Write$GT$18write_all_vectored17h677b3329f07203a7E', symObjAddr: 0x290A8, symBinAddr: 0x1000469E4, symSize: 0x270 }
  - { offset: 0x9BD80, size: 0x8, addend: 0x0, symName: '__ZN63_$LT$std..io..stdio..StdoutLock$u20$as$u20$core..fmt..Debug$GT$3fmt17h8fdf40cb601681aeE', symObjAddr: 0x29318, symBinAddr: 0x100046C54, symSize: 0x38 }
  - { offset: 0x9BDA1, size: 0x8, addend: 0x0, symName: __ZN3std2io5stdio6Stderr4lock17h38eacc65813702caE, symObjAddr: 0x29350, symBinAddr: 0x100046C8C, symSize: 0x180 }
  - { offset: 0x9C1B6, size: 0x8, addend: 0x0, symName: '__ZN59_$LT$std..io..stdio..Stderr$u20$as$u20$core..fmt..Debug$GT$3fmt17hda40b678e0b14089E', symObjAddr: 0x294D0, symBinAddr: 0x100046E0C, symSize: 0x38 }
  - { offset: 0x9C1D7, size: 0x8, addend: 0x0, symName: '__ZN57_$LT$std..io..stdio..Stderr$u20$as$u20$std..io..Write$GT$5write17h75abcd4230c1dcc0E', symObjAddr: 0x29508, symBinAddr: 0x100046E44, symSize: 0x24 }
  - { offset: 0x9C1F2, size: 0x8, addend: 0x0, symName: '__ZN57_$LT$std..io..stdio..Stderr$u20$as$u20$std..io..Write$GT$14write_vectored17h48233a17e7652f2aE', symObjAddr: 0x2952C, symBinAddr: 0x100046E68, symSize: 0xA0 }
  - { offset: 0x9C2E5, size: 0x8, addend: 0x0, symName: '__ZN57_$LT$std..io..stdio..Stderr$u20$as$u20$std..io..Write$GT$5flush17h495a6e3b757b2505E', symObjAddr: 0x295CC, symBinAddr: 0x100046F08, symSize: 0x24 }
  - { offset: 0x9C300, size: 0x8, addend: 0x0, symName: '__ZN57_$LT$std..io..stdio..Stderr$u20$as$u20$std..io..Write$GT$9write_all17hec0cf00ae617a0baE', symObjAddr: 0x295F0, symBinAddr: 0x100046F2C, symSize: 0x24 }
  - { offset: 0x9C31B, size: 0x8, addend: 0x0, symName: '__ZN57_$LT$std..io..stdio..Stderr$u20$as$u20$std..io..Write$GT$18write_all_vectored17h8af6a93c54840640E', symObjAddr: 0x29614, symBinAddr: 0x100046F50, symSize: 0x24 }
  - { offset: 0x9C336, size: 0x8, addend: 0x0, symName: '__ZN57_$LT$std..io..stdio..Stderr$u20$as$u20$std..io..Write$GT$9write_fmt17hd884300a94af0a81E', symObjAddr: 0x29638, symBinAddr: 0x100046F74, symSize: 0x24 }
  - { offset: 0x9C36C, size: 0x8, addend: 0x0, symName: '__ZN61_$LT$$RF$std..io..stdio..Stderr$u20$as$u20$std..io..Write$GT$5write17hd514959043b82095E', symObjAddr: 0x2965C, symBinAddr: 0x100046F98, symSize: 0x128 }
  - { offset: 0x9C777, size: 0x8, addend: 0x0, symName: '__ZN61_$LT$$RF$std..io..stdio..Stderr$u20$as$u20$std..io..Write$GT$14write_vectored17hc4a51c9c82913824E', symObjAddr: 0x29784, symBinAddr: 0x1000470C0, symSize: 0xA4 }
  - { offset: 0x9C855, size: 0x8, addend: 0x0, symName: '__ZN61_$LT$$RF$std..io..stdio..Stderr$u20$as$u20$std..io..Write$GT$5flush17h3ede057763657ad7E', symObjAddr: 0x29828, symBinAddr: 0x100047164, symSize: 0x88 }
  - { offset: 0x9CA30, size: 0x8, addend: 0x0, symName: '__ZN61_$LT$$RF$std..io..stdio..Stderr$u20$as$u20$std..io..Write$GT$9write_all17h71cf3d489c75f876E', symObjAddr: 0x298B0, symBinAddr: 0x1000471EC, symSize: 0xCC }
  - { offset: 0x9CD25, size: 0x8, addend: 0x0, symName: '__ZN61_$LT$$RF$std..io..stdio..Stderr$u20$as$u20$std..io..Write$GT$18write_all_vectored17he3a61478b86583fdE', symObjAddr: 0x2997C, symBinAddr: 0x1000472B8, symSize: 0x104 }
  - { offset: 0x9D0AD, size: 0x8, addend: 0x0, symName: '__ZN61_$LT$$RF$std..io..stdio..Stderr$u20$as$u20$std..io..Write$GT$9write_fmt17h6b29c1241e8e5eb8E', symObjAddr: 0x29A80, symBinAddr: 0x1000473BC, symSize: 0x108 }
  - { offset: 0x9D216, size: 0x8, addend: 0x0, symName: '__ZN63_$LT$std..io..stdio..StderrLock$u20$as$u20$core..fmt..Debug$GT$3fmt17h3a2c61d47bb3ce93E', symObjAddr: 0x29EB4, symBinAddr: 0x1000477F0, symSize: 0x38 }
  - { offset: 0x9D26D, size: 0x8, addend: 0x0, symName: __ZN3std2io5stdio18set_output_capture17h327dd0c9ec1e21ffE, symObjAddr: 0x29EEC, symBinAddr: 0x100047828, symSize: 0x100 }
  - { offset: 0x9D4FD, size: 0x8, addend: 0x0, symName: __ZN3std2io5stdio22try_set_output_capture17h9f26f710bf314880E, symObjAddr: 0x29FEC, symBinAddr: 0x100047928, symSize: 0xF4 }
  - { offset: 0x9D78B, size: 0x8, addend: 0x0, symName: __ZN3std2io5stdio31print_to_buffer_if_capture_used17hc1e954a9c5adefa4E, symObjAddr: 0x2A0E0, symBinAddr: 0x100047A1C, symSize: 0x234 }
  - { offset: 0x9DD58, size: 0x8, addend: 0x0, symName: __ZN3std2io5stdio23attempt_print_to_stderr17hc5e81577b9416c82E, symObjAddr: 0x2A314, symBinAddr: 0x100047C50, symSize: 0x58 }
  - { offset: 0x9DDCF, size: 0x8, addend: 0x0, symName: __ZN3std2io5stdio6_print17h106c5db00311875bE, symObjAddr: 0x2A36C, symBinAddr: 0x100047CA8, symSize: 0xE4 }
  - { offset: 0x9DED4, size: 0x8, addend: 0x0, symName: __ZN3std2io5stdio7_eprint17hbcd00408c6248d60E, symObjAddr: 0x2A450, symBinAddr: 0x100047D8C, symSize: 0xC8 }
  - { offset: 0x9DF47, size: 0x8, addend: 0x0, symName: '__ZN3std2io5impls74_$LT$impl$u20$std..io..Write$u20$for$u20$alloc..vec..Vec$LT$u8$C$A$GT$$GT$5write17hfca75612aeff4ad5E', symObjAddr: 0x25C88, symBinAddr: 0x1000435C4, symSize: 0x7C }
  - { offset: 0x9E052, size: 0x8, addend: 0x0, symName: '__ZN3std2io5impls74_$LT$impl$u20$std..io..Write$u20$for$u20$alloc..vec..Vec$LT$u8$C$A$GT$$GT$14write_vectored17h6c6de4e39d8bfd9eE', symObjAddr: 0x25D04, symBinAddr: 0x100043640, symSize: 0x164 }
  - { offset: 0x9E25F, size: 0x8, addend: 0x0, symName: '__ZN3std2io5impls74_$LT$impl$u20$std..io..Write$u20$for$u20$alloc..vec..Vec$LT$u8$C$A$GT$$GT$17is_write_vectored17h5144a7664e6b7f16E', symObjAddr: 0x25E68, symBinAddr: 0x1000437A4, symSize: 0x14 }
  - { offset: 0x9E27A, size: 0x8, addend: 0x0, symName: '__ZN3std2io5impls74_$LT$impl$u20$std..io..Write$u20$for$u20$alloc..vec..Vec$LT$u8$C$A$GT$$GT$9write_all17h13b89a27a3ab5380E', symObjAddr: 0x25E7C, symBinAddr: 0x1000437B8, symSize: 0x78 }
  - { offset: 0x9E37E, size: 0x8, addend: 0x0, symName: '__ZN3std2io5impls74_$LT$impl$u20$std..io..Write$u20$for$u20$alloc..vec..Vec$LT$u8$C$A$GT$$GT$5flush17h6efd8704a0dd1dacE', symObjAddr: 0x25EF4, symBinAddr: 0x100043830, symSize: 0x14 }
  - { offset: 0x9E3EF, size: 0x8, addend: 0x0, symName: '__ZN3std2io5impls83_$LT$impl$u20$std..io..Write$u20$for$u20$core..io..borrowed_buf..BorrowedCursor$GT$5write17h3c6c50b17406a791E', symObjAddr: 0x25F08, symBinAddr: 0x100043844, symSize: 0x58 }
  - { offset: 0x9E79A, size: 0x8, addend: 0x0, symName: '__ZN82_$LT$std..io..buffered..bufreader..BufReader$LT$R$GT$$u20$as$u20$std..io..Read$GT$4read17hbdb87892447c02eaE', symObjAddr: 0x24154, symBinAddr: 0x100041C1C, symSize: 0x1B8 }
  - { offset: 0x9EB9F, size: 0x8, addend: 0x0, symName: '__ZN82_$LT$std..io..buffered..bufreader..BufReader$LT$R$GT$$u20$as$u20$std..io..Read$GT$8read_buf17ha677524b59e837a8E', symObjAddr: 0x2430C, symBinAddr: 0x100041DD4, symSize: 0x1A4 }
  - { offset: 0x9F223, size: 0x8, addend: 0x0, symName: '__ZN82_$LT$std..io..buffered..bufreader..BufReader$LT$R$GT$$u20$as$u20$std..io..Read$GT$11read_to_end17h6761f9b73e3330daE', symObjAddr: 0x244B0, symBinAddr: 0x100041F78, symSize: 0x194 }
  - { offset: 0x9F6EA, size: 0x8, addend: 0x0, symName: '__ZN3std2io8buffered9bufwriter18BufWriter$LT$W$GT$9flush_buf17hfa7fcdfde92afc8cE', symObjAddr: 0x24644, symBinAddr: 0x10004210C, symSize: 0x16C }
  - { offset: 0x9FA46, size: 0x8, addend: 0x0, symName: '__ZN3std2io8buffered9bufwriter18BufWriter$LT$W$GT$10write_cold17hc762ccfca8fa30a1E', symObjAddr: 0x24844, symBinAddr: 0x1000A5130, symSize: 0xFC }
  - { offset: 0x9FC86, size: 0x8, addend: 0x0, symName: '__ZN3std2io8buffered9bufwriter18BufWriter$LT$W$GT$14write_all_cold17h392cfc0401ba331cE', symObjAddr: 0x24940, symBinAddr: 0x1000A522C, symSize: 0x90 }
  - { offset: 0x9FE2E, size: 0x8, addend: 0x0, symName: '__ZN111_$LT$std..io..buffered..bufwriter..BufWriter$LT$W$GT$..flush_buf..BufGuard$u20$as$u20$core..ops..drop..Drop$GT$4drop17h2f9bd332cb381ed9E', symObjAddr: 0x247E4, symBinAddr: 0x1000422AC, symSize: 0x60 }
  - { offset: 0x9FFA9, size: 0x8, addend: 0x0, symName: '__ZN3std2io8buffered9bufwriter18BufWriter$LT$W$GT$9flush_buf8BufGuard9remaining17h29e5b08a198525e2E', symObjAddr: 0x247B0, symBinAddr: 0x100042278, symSize: 0x34 }
  - { offset: 0xA0091, size: 0x8, addend: 0x0, symName: '__ZN83_$LT$std..io..buffered..bufwriter..WriterPanicked$u20$as$u20$core..fmt..Display$GT$3fmt17h7897458f2e8f8ccdE', symObjAddr: 0x249D0, symBinAddr: 0x10004230C, symSize: 0x54 }
  - { offset: 0xA00DD, size: 0x8, addend: 0x0, symName: '__ZN81_$LT$std..io..buffered..bufwriter..WriterPanicked$u20$as$u20$core..fmt..Debug$GT$3fmt17h85b2d08a84d67902E', symObjAddr: 0x24A24, symBinAddr: 0x100042360, symSize: 0xA4 }
  - { offset: 0xA024C, size: 0x8, addend: 0x0, symName: '__ZN93_$LT$std..io..buffered..linewritershim..LineWriterShim$LT$W$GT$$u20$as$u20$std..io..Write$GT$14write_vectored17h4feb5cb30ab848e2E', symObjAddr: 0x24AC8, symBinAddr: 0x100042404, symSize: 0x464 }
  - { offset: 0xA0C57, size: 0x8, addend: 0x0, symName: __ZN3std2io5error14repr_bitpacked4Repr3new17h4d72e2fe0a31b409E, symObjAddr: 0x24F54, symBinAddr: 0x100042890, symSize: 0x58 }
  - { offset: 0xA0E88, size: 0x8, addend: 0x0, symName: __ZN3std2io5error14repr_bitpacked11decode_repr17he83e0f5289e07b62E, symObjAddr: 0x24FAC, symBinAddr: 0x1000428E8, symSize: 0x1C8 }
  - { offset: 0xA0FE7, size: 0x8, addend: 0x0, symName: __ZN3std2io5error5Error3new17hab6af23f801ca9b5E, symObjAddr: 0x25200, symBinAddr: 0x100042B3C, symSize: 0x12C }
  - { offset: 0xA1317, size: 0x8, addend: 0x0, symName: __ZN3std2io5error5Error3new17hb557461239e26d3eE, symObjAddr: 0x2532C, symBinAddr: 0x100042C68, symSize: 0x80 }
  - { offset: 0xA13F2, size: 0x8, addend: 0x0, symName: __ZN3std2io5error5Error4_new17h918d497e8fb194eeE, symObjAddr: 0x253AC, symBinAddr: 0x100042CE8, symSize: 0x84 }
  - { offset: 0xA16D1, size: 0x8, addend: 0x0, symName: '__ZN58_$LT$std..io..error..Error$u20$as$u20$core..fmt..Debug$GT$3fmt17h9ad977f9bf05b8f5E', symObjAddr: 0x25174, symBinAddr: 0x100042AB0, symSize: 0x10 }
  - { offset: 0xA16F1, size: 0x8, addend: 0x0, symName: '__ZN96_$LT$std..io..error..Error$u20$as$u20$core..convert..From$LT$alloc..ffi..c_str..NulError$GT$$GT$4from17hd7348258a7114b45E', symObjAddr: 0x25184, symBinAddr: 0x100042AC0, symSize: 0x2C }
  - { offset: 0xA170E, size: 0x8, addend: 0x0, symName: '__ZN96_$LT$std..io..error..Error$u20$as$u20$core..convert..From$LT$alloc..ffi..c_str..NulError$GT$$GT$4from17hd7348258a7114b45E', symObjAddr: 0x25184, symBinAddr: 0x100042AC0, symSize: 0x2C }
  - { offset: 0xA1722, size: 0x8, addend: 0x0, symName: '__ZN96_$LT$std..io..error..Error$u20$as$u20$core..convert..From$LT$alloc..ffi..c_str..NulError$GT$$GT$4from17hd7348258a7114b45E', symObjAddr: 0x25184, symBinAddr: 0x100042AC0, symSize: 0x2C }
  - { offset: 0xA1799, size: 0x8, addend: 0x0, symName: '__ZN104_$LT$std..io..error..Error$u20$as$u20$core..convert..From$LT$alloc..collections..TryReserveError$GT$$GT$4from17ha367973e8a3abc7eE', symObjAddr: 0x251B0, symBinAddr: 0x100042AEC, symSize: 0x18 }
  - { offset: 0xA17CD, size: 0x8, addend: 0x0, symName: '__ZN64_$LT$std..io..error..ErrorKind$u20$as$u20$core..fmt..Display$GT$3fmt17h84356d5edadc5813E', symObjAddr: 0x251C8, symBinAddr: 0x100042B04, symSize: 0x38 }
  - { offset: 0xA1817, size: 0x8, addend: 0x0, symName: '__ZN3std2io5error83_$LT$impl$u20$core..fmt..Debug$u20$for$u20$std..io..error..repr_bitpacked..Repr$GT$3fmt17h315b9aad966a5ec1E', symObjAddr: 0x25430, symBinAddr: 0x100042D6C, symSize: 0x3F4 }
  - { offset: 0xA1A5B, size: 0x8, addend: 0x0, symName: '__ZN60_$LT$std..io..error..Error$u20$as$u20$core..fmt..Display$GT$3fmt17hbec3ee910ca84719E', symObjAddr: 0x25824, symBinAddr: 0x100043160, symSize: 0x208 }
  - { offset: 0xA1C9C, size: 0x8, addend: 0x0, symName: '__ZN60_$LT$std..io..error..Error$u20$as$u20$core..error..Error$GT$11description17h6af0c0df46deb0d9E', symObjAddr: 0x25A2C, symBinAddr: 0x100043368, symSize: 0x1DC }
  - { offset: 0xA1D36, size: 0x8, addend: 0x0, symName: '__ZN60_$LT$std..io..error..Error$u20$as$u20$core..error..Error$GT$5cause17he5c6c98f2a2bb7e1E', symObjAddr: 0x25C08, symBinAddr: 0x100043544, symSize: 0x40 }
  - { offset: 0xA1D54, size: 0x8, addend: 0x0, symName: '__ZN60_$LT$std..io..error..Error$u20$as$u20$core..error..Error$GT$5cause17he5c6c98f2a2bb7e1E', symObjAddr: 0x25C08, symBinAddr: 0x100043544, symSize: 0x40 }
  - { offset: 0xA1D7C, size: 0x8, addend: 0x0, symName: '__ZN60_$LT$std..io..error..Error$u20$as$u20$core..error..Error$GT$6source17h6e6848d650f6eef0E', symObjAddr: 0x25C48, symBinAddr: 0x100043584, symSize: 0x40 }
  - { offset: 0xA1D9A, size: 0x8, addend: 0x0, symName: '__ZN60_$LT$std..io..error..Error$u20$as$u20$core..error..Error$GT$6source17h6e6848d650f6eef0E', symObjAddr: 0x25C48, symBinAddr: 0x100043584, symSize: 0x40 }
  - { offset: 0xA1E02, size: 0x8, addend: 0x0, symName: '__ZN62_$LT$std..io..error..ErrorKind$u20$as$u20$core..fmt..Debug$GT$3fmt17h72180907955b6c05E', symObjAddr: 0x3A3D8, symBinAddr: 0x1000571EC, symSize: 0x38 }
  - { offset: 0xA1F42, size: 0x8, addend: 0x0, symName: '__ZN79_$LT$alloc..vec..Vec$LT$u8$GT$$u20$as$u20$std..io..copy..BufferedWriterSpec$GT$11buffer_size17h4cbdadc3cb275876E', symObjAddr: 0x24F2C, symBinAddr: 0x100042868, symSize: 0x28 }
  - { offset: 0xA20AB, size: 0x8, addend: 0x0, symName: '__ZN55_$LT$std..io..util..Repeat$u20$as$u20$std..io..Read$GT$8read_buf17h9e9a968738094b89E', symObjAddr: 0x2A518, symBinAddr: 0x100047E54, symSize: 0x4C }
  - { offset: 0xA21B5, size: 0x8, addend: 0x0, symName: '__ZN55_$LT$std..io..util..Repeat$u20$as$u20$std..io..Read$GT$11read_to_end17h810e840044e0eb4fE', symObjAddr: 0x2A564, symBinAddr: 0x100047EA0, symSize: 0x1C }
  - { offset: 0xA21D5, size: 0x8, addend: 0x0, symName: '__ZN58_$LT$std..io..util..Repeat$u20$as$u20$core..fmt..Debug$GT$3fmt17hc3c164c1b3961eeaE', symObjAddr: 0x2A580, symBinAddr: 0x100047EBC, symSize: 0x38 }
  - { offset: 0xA2220, size: 0x8, addend: 0x0, symName: __ZN3std2io19default_read_to_end16small_probe_read17h33460bb1f7fd56e7E, symObjAddr: 0x2ACD4, symBinAddr: 0x100048610, symSize: 0x114 }
  - { offset: 0xA2412, size: 0x8, addend: 0x0, symName: __ZN3std2io19default_read_to_end16small_probe_read17h4acc006c88f6b26bE, symObjAddr: 0x2ADE8, symBinAddr: 0x100048724, symSize: 0x114 }
  - { offset: 0xA25E7, size: 0x8, addend: 0x0, symName: __ZN3std2io19default_read_to_end16small_probe_read17h72cc6374994341f2E, symObjAddr: 0x2AEFC, symBinAddr: 0x100048838, symSize: 0x118 }
  - { offset: 0xA27E6, size: 0x8, addend: 0x0, symName: __ZN3std2io19default_read_to_end16small_probe_read17hb030d04c84ad8214E, symObjAddr: 0x2B014, symBinAddr: 0x100048950, symSize: 0x118 }
  - { offset: 0xA29D8, size: 0x8, addend: 0x0, symName: __ZN3std2io19default_read_to_end17h1a5ea9335f9c513eE, symObjAddr: 0x2A5B8, symBinAddr: 0x100047EF4, symSize: 0x264 }
  - { offset: 0xA2E07, size: 0x8, addend: 0x0, symName: __ZN3std2io19default_read_to_end17h808491bc2fae77afE, symObjAddr: 0x2A81C, symBinAddr: 0x100048158, symSize: 0x254 }
  - { offset: 0xA320C, size: 0x8, addend: 0x0, symName: __ZN3std2io19default_read_to_end17hab63784e69f2102fE, symObjAddr: 0x2AA70, symBinAddr: 0x1000483AC, symSize: 0x264 }
  - { offset: 0xA3633, size: 0x8, addend: 0x0, symName: '__ZN53_$LT$std..io..IoSlice$u20$as$u20$core..fmt..Debug$GT$3fmt17h143772ac082b9b49E', symObjAddr: 0x2B12C, symBinAddr: 0x100048A68, symSize: 0x70 }
  - { offset: 0xA36F2, size: 0x8, addend: 0x0, symName: __ZN3std2io10read_until17hbc8749ff59ac19b3E, symObjAddr: 0x2BC18, symBinAddr: 0x100049554, symSize: 0x3E8 }
  - { offset: 0xA3D98, size: 0x8, addend: 0x0, symName: '__ZN3std4sync4once4Once15call_once_force28_$u7b$$u7b$closure$u7d$$u7d$17h4b2aa8f11592c97cE', symObjAddr: 0x34768, symBinAddr: 0x100051F0C, symSize: 0x78 }
  - { offset: 0xA3F06, size: 0x8, addend: 0x0, symName: '__ZN3std4sync4once4Once15call_once_force28_$u7b$$u7b$closure$u7d$$u7d$17h70764ad2f02a0563E', symObjAddr: 0x347E0, symBinAddr: 0x100051F84, symSize: 0x74 }
  - { offset: 0xA4059, size: 0x8, addend: 0x0, symName: '__ZN3std4sync4once4Once15call_once_force28_$u7b$$u7b$closure$u7d$$u7d$17hc54e48acfcdfe1eeE', symObjAddr: 0x34854, symBinAddr: 0x100051FF8, symSize: 0x60 }
  - { offset: 0xA4141, size: 0x8, addend: 0x0, symName: '__ZN3std4sync4once4Once9call_once28_$u7b$$u7b$closure$u7d$$u7d$17h5322f681c207ffa6E', symObjAddr: 0x342A8, symBinAddr: 0x100051A4C, symSize: 0x198 }
  - { offset: 0xA44BD, size: 0x8, addend: 0x0, symName: '__ZN3std4sync4once4Once9call_once28_$u7b$$u7b$closure$u7d$$u7d$17hcd19bfad89d16241E', symObjAddr: 0x34440, symBinAddr: 0x100051BE4, symSize: 0x328 }
  - { offset: 0xA4F1B, size: 0x8, addend: 0x0, symName: '__ZN58_$LT$std..sync..once..Once$u20$as$u20$core..fmt..Debug$GT$3fmt17hb51f0defb4f8e107E', symObjAddr: 0x348B4, symBinAddr: 0x100052058, symSize: 0x38 }
  - { offset: 0xA4F50, size: 0x8, addend: 0x0, symName: '__ZN63_$LT$std..sync..once..OnceState$u20$as$u20$core..fmt..Debug$GT$3fmt17hb03b90770c20426aE', symObjAddr: 0x348EC, symBinAddr: 0x100052090, symSize: 0x6C }
  - { offset: 0xA5093, size: 0x8, addend: 0x0, symName: '__ZN3std4sync9once_lock17OnceLock$LT$T$GT$10initialize17h03d2f62ba65036c7E', symObjAddr: 0x34958, symBinAddr: 0x1000A5454, symSize: 0x6C }
  - { offset: 0xA50BE, size: 0x8, addend: 0x0, symName: '__ZN3std4sync9once_lock17OnceLock$LT$T$GT$10initialize17h03d2f62ba65036c7E', symObjAddr: 0x34958, symBinAddr: 0x1000A5454, symSize: 0x6C }
  - { offset: 0xA50D2, size: 0x8, addend: 0x0, symName: '__ZN3std4sync9once_lock17OnceLock$LT$T$GT$10initialize17h03d2f62ba65036c7E', symObjAddr: 0x34958, symBinAddr: 0x1000A5454, symSize: 0x6C }
  - { offset: 0xA50E6, size: 0x8, addend: 0x0, symName: '__ZN3std4sync9once_lock17OnceLock$LT$T$GT$10initialize17h03d2f62ba65036c7E', symObjAddr: 0x34958, symBinAddr: 0x1000A5454, symSize: 0x6C }
  - { offset: 0xA50FC, size: 0x8, addend: 0x0, symName: '__ZN3std4sync9once_lock17OnceLock$LT$T$GT$10initialize17h1111ce250a698915E', symObjAddr: 0x349C4, symBinAddr: 0x1000A54C0, symSize: 0x68 }
  - { offset: 0xA5127, size: 0x8, addend: 0x0, symName: '__ZN3std4sync9once_lock17OnceLock$LT$T$GT$10initialize17h1111ce250a698915E', symObjAddr: 0x349C4, symBinAddr: 0x1000A54C0, symSize: 0x68 }
  - { offset: 0xA513B, size: 0x8, addend: 0x0, symName: '__ZN3std4sync9once_lock17OnceLock$LT$T$GT$10initialize17h1111ce250a698915E', symObjAddr: 0x349C4, symBinAddr: 0x1000A54C0, symSize: 0x68 }
  - { offset: 0xA514F, size: 0x8, addend: 0x0, symName: '__ZN3std4sync9once_lock17OnceLock$LT$T$GT$10initialize17h1111ce250a698915E', symObjAddr: 0x349C4, symBinAddr: 0x1000A54C0, symSize: 0x68 }
  - { offset: 0xA5165, size: 0x8, addend: 0x0, symName: '__ZN3std4sync9once_lock17OnceLock$LT$T$GT$10initialize17hf01033919953204cE', symObjAddr: 0x34A2C, symBinAddr: 0x1000A5528, symSize: 0x60 }
  - { offset: 0xA5190, size: 0x8, addend: 0x0, symName: '__ZN3std4sync9once_lock17OnceLock$LT$T$GT$10initialize17hf01033919953204cE', symObjAddr: 0x34A2C, symBinAddr: 0x1000A5528, symSize: 0x60 }
  - { offset: 0xA51A4, size: 0x8, addend: 0x0, symName: '__ZN3std4sync9once_lock17OnceLock$LT$T$GT$10initialize17hf01033919953204cE', symObjAddr: 0x34A2C, symBinAddr: 0x1000A5528, symSize: 0x60 }
  - { offset: 0xA51B8, size: 0x8, addend: 0x0, symName: '__ZN3std4sync9once_lock17OnceLock$LT$T$GT$10initialize17hf01033919953204cE', symObjAddr: 0x34A2C, symBinAddr: 0x1000A5528, symSize: 0x60 }
  - { offset: 0xA5248, size: 0x8, addend: 0x0, symName: '__ZN76_$LT$std..sync..poison..PoisonError$LT$T$GT$$u20$as$u20$core..fmt..Debug$GT$3fmt17hea0194cffa5af49fE', symObjAddr: 0x34A8C, symBinAddr: 0x1000520FC, symSize: 0x38 }
  - { offset: 0xA544A, size: 0x8, addend: 0x0, symName: '__ZN3std4sync6rwlock15RwLock$LT$T$GT$5write17hc47a586d308b2bcdE', symObjAddr: 0x34AC4, symBinAddr: 0x100052134, symSize: 0x27C }
  - { offset: 0xA5B23, size: 0x8, addend: 0x0, symName: '__ZN3std4sync6rwlock15RwLock$LT$T$GT$5write17heea6bbaacf951a7fE', symObjAddr: 0x34D40, symBinAddr: 0x1000523B0, symSize: 0x27C }
  - { offset: 0xA62E1, size: 0x8, addend: 0x0, symName: '__ZN65_$LT$std..sync..mpsc..RecvError$u20$as$u20$core..fmt..Display$GT$3fmt17h1794a637cbfd490aE', symObjAddr: 0x33C94, symBinAddr: 0x1000515C4, symSize: 0x20 }
  - { offset: 0xA6302, size: 0x8, addend: 0x0, symName: '__ZN68_$LT$std..sync..mpsc..TryRecvError$u20$as$u20$core..fmt..Display$GT$3fmt17h9ecf6a7779982927E', symObjAddr: 0x33CB4, symBinAddr: 0x1000515E4, symSize: 0x34 }
  - { offset: 0xA6323, size: 0x8, addend: 0x0, symName: '__ZN72_$LT$std..sync..mpsc..RecvTimeoutError$u20$as$u20$core..fmt..Display$GT$3fmt17h93c80d4b5780a671E', symObjAddr: 0x33CE8, symBinAddr: 0x100051618, symSize: 0x3C }
  - { offset: 0xA634A, size: 0x8, addend: 0x0, symName: '__ZN64_$LT$std..sync..barrier..Barrier$u20$as$u20$core..fmt..Debug$GT$3fmt17hc1132839826335d5E', symObjAddr: 0x33D24, symBinAddr: 0x100051654, symSize: 0x38 }
  - { offset: 0xA636A, size: 0x8, addend: 0x0, symName: __ZN3std4sync7barrier7Barrier4wait17hb00159fa7123c672E, symObjAddr: 0x33D5C, symBinAddr: 0x10005168C, symSize: 0x284 }
  - { offset: 0xA681A, size: 0x8, addend: 0x0, symName: '__ZN74_$LT$std..sync..barrier..BarrierWaitResult$u20$as$u20$core..fmt..Debug$GT$3fmt17h9e6871522aa6422fE', symObjAddr: 0x33FE0, symBinAddr: 0x100051910, symSize: 0x6C }
  - { offset: 0xA687D, size: 0x8, addend: 0x0, symName: __ZN3std4sync7condvar7Condvar10notify_one17h5383ccb1c4437a76E, symObjAddr: 0x3404C, symBinAddr: 0x10005197C, symSize: 0x28 }
  - { offset: 0xA6900, size: 0x8, addend: 0x0, symName: __ZN3std4sync7condvar7Condvar10notify_all17hae20a5ffa0e99c4bE, symObjAddr: 0x34074, symBinAddr: 0x1000519A4, symSize: 0x28 }
  - { offset: 0xA6982, size: 0x8, addend: 0x0, symName: '__ZN64_$LT$std..sync..condvar..Condvar$u20$as$u20$core..fmt..Debug$GT$3fmt17hee95b34e6e2ade74E', symObjAddr: 0x3409C, symBinAddr: 0x1000519CC, symSize: 0x38 }
  - { offset: 0xA69E0, size: 0x8, addend: 0x0, symName: __ZN3std4sync4mpmc7context7Context3new17h76d84511007a55dcE, symObjAddr: 0x340D4, symBinAddr: 0x1000A52C8, symSize: 0x18C }
  - { offset: 0xA6DB0, size: 0x8, addend: 0x0, symName: '__ZN69_$LT$std..sync..mpmc..zero..ZeroToken$u20$as$u20$core..fmt..Debug$GT$3fmt17h6e72f9e7bfa6113dE', symObjAddr: 0x34260, symBinAddr: 0x100051A04, symSize: 0x48 }
  - { offset: 0xA6E32, size: 0x8, addend: 0x0, symName: '__ZN64_$LT$std..backtrace..Backtrace$u20$as$u20$core..fmt..Display$GT$3fmt17h4be087b98dc1930aE', symObjAddr: 0x1FBD4, symBinAddr: 0x10003D69C, symSize: 0x3DC }
  - { offset: 0xA7457, size: 0x8, addend: 0x0, symName: '__ZN62_$LT$std..backtrace..Backtrace$u20$as$u20$core..fmt..Debug$GT$3fmt17h4a3fdf4aa689950cE', symObjAddr: 0x1F1D0, symBinAddr: 0x10003CC98, symSize: 0x1C0 }
  - { offset: 0xA767F, size: 0x8, addend: 0x0, symName: '__ZN67_$LT$std..backtrace..BacktraceFrame$u20$as$u20$core..fmt..Debug$GT$3fmt17h685a70f794b4674eE', symObjAddr: 0x1F390, symBinAddr: 0x10003CE58, symSize: 0x80 }
  - { offset: 0xA7721, size: 0x8, addend: 0x0, symName: '__ZN68_$LT$std..backtrace..BacktraceSymbol$u20$as$u20$core..fmt..Debug$GT$3fmt17hff919456569bd103E', symObjAddr: 0x1F410, symBinAddr: 0x10003CED8, symSize: 0x238 }
  - { offset: 0xA78E0, size: 0x8, addend: 0x0, symName: '__ZN64_$LT$std..backtrace..BytesOrWide$u20$as$u20$core..fmt..Debug$GT$3fmt17h914fee56f3f8e30eE', symObjAddr: 0x1F648, symBinAddr: 0x10003D110, symSize: 0xB4 }
  - { offset: 0xA79EF, size: 0x8, addend: 0x0, symName: __ZN3std9backtrace9Backtrace7capture17h28e3773ecf97533eE, symObjAddr: 0x1F6FC, symBinAddr: 0x10003D1C4, symSize: 0x18C }
  - { offset: 0xA7C72, size: 0x8, addend: 0x0, symName: __ZN3std9backtrace9Backtrace13force_capture17ha825e582384ebda9E, symObjAddr: 0x1F888, symBinAddr: 0x10003D350, symSize: 0x1C }
  - { offset: 0xA7C8D, size: 0x8, addend: 0x0, symName: __ZN3std9backtrace9Backtrace6create17hd62b59e0db9733afE, symObjAddr: 0x1F8A4, symBinAddr: 0x10003D36C, symSize: 0x164 }
  - { offset: 0xA7FE6, size: 0x8, addend: 0x0, symName: __ZN3std9backtrace9Backtrace6frames17hb1067d3d1e9e5d28E, symObjAddr: 0x1FB44, symBinAddr: 0x10003D60C, symSize: 0x90 }
  - { offset: 0xA809E, size: 0x8, addend: 0x0, symName: '__ZN3std9backtrace9Backtrace6create28_$u7b$$u7b$closure$u7d$$u7d$17h0f450c0971e0a3c0E', symObjAddr: 0x1FA08, symBinAddr: 0x10003D4D0, symSize: 0x13C }
  - { offset: 0xA8242, size: 0x8, addend: 0x0, symName: '__ZN3std9backtrace6helper12lazy_resolve28_$u7b$$u7b$closure$u7d$$u7d$28_$u7b$$u7b$closure$u7d$$u7d$17h8dbdfe2815809679E', symObjAddr: 0x1FFB0, symBinAddr: 0x10003DA78, symSize: 0x1FC }
  - { offset: 0xA8691, size: 0x8, addend: 0x0, symName: __ZN3std9panicking11panic_count8increase17hfd55de9977051876E, symObjAddr: 0x388C0, symBinAddr: 0x10005575C, symSize: 0x80 }
  - { offset: 0xA878C, size: 0x8, addend: 0x0, symName: __ZN3std9panicking11panic_count19finished_panic_hook17h8023e666a6378288E, symObjAddr: 0x38940, symBinAddr: 0x1000557DC, symSize: 0x24 }
  - { offset: 0xA883A, size: 0x8, addend: 0x0, symName: __ZN3std9panicking11panic_count8decrease17heecb33cf0208dbf6E, symObjAddr: 0x38964, symBinAddr: 0x100055800, symSize: 0x50 }
  - { offset: 0xA8928, size: 0x8, addend: 0x0, symName: __ZN3std9panicking11panic_count9get_count17hdd6752e3e20d1c55E, symObjAddr: 0x389B4, symBinAddr: 0x100055850, symSize: 0x24 }
  - { offset: 0xA897C, size: 0x8, addend: 0x0, symName: __ZN3std9panicking11panic_count17is_zero_slow_path17hecbc2890f0830b98E, symObjAddr: 0x389D8, symBinAddr: 0x1000A5D5C, symSize: 0x2C }
  - { offset: 0xA8A79, size: 0x8, addend: 0x0, symName: __ZN3std9panicking3try7cleanup17h4fb6f844bb0cb085E, symObjAddr: 0x38A04, symBinAddr: 0x1000A5D88, symSize: 0x5C }
  - { offset: 0xA8BC4, size: 0x8, addend: 0x0, symName: ___rust_drop_panic, symObjAddr: 0x37D10, symBinAddr: 0x100054BAC, symSize: 0xC0 }
  - { offset: 0xA8C79, size: 0x8, addend: 0x0, symName: ___rust_foreign_exception, symObjAddr: 0x37DD0, symBinAddr: 0x100054C6C, symSize: 0xC0 }
  - { offset: 0xA8D3C, size: 0x8, addend: 0x0, symName: __ZN3std9panicking8set_hook17he986434f678539f2E, symObjAddr: 0x37E90, symBinAddr: 0x100054D2C, symSize: 0x198 }
  - { offset: 0xA90BE, size: 0x8, addend: 0x0, symName: __ZN3std9panicking9take_hook17h277ca4945de1a932E, symObjAddr: 0x38028, symBinAddr: 0x100054EC4, symSize: 0x114 }
  - { offset: 0xA936A, size: 0x8, addend: 0x0, symName: '__ZN3std9panicking12default_hook28_$u7b$$u7b$closure$u7d$$u7d$17h14c7718ccf39d316E', symObjAddr: 0x3865C, symBinAddr: 0x1000554F8, symSize: 0x264 }
  - { offset: 0xA96EF, size: 0x8, addend: 0x0, symName: __ZN3std9panicking12default_hook17hc62e60da3be2f352E, symObjAddr: 0x3813C, symBinAddr: 0x100054FD8, symSize: 0x520 }
  - { offset: 0xAA4E0, size: 0x8, addend: 0x0, symName: _rust_begin_unwind, symObjAddr: 0x38A60, symBinAddr: 0x100055874, symSize: 0x2C }
  - { offset: 0xAA549, size: 0x8, addend: 0x0, symName: '__ZN102_$LT$std..panicking..begin_panic_handler..FormatStringPayload$u20$as$u20$core..panic..PanicPayload$GT$8take_box17h2b1a0e9ee6c2e936E', symObjAddr: 0x38A8C, symBinAddr: 0x1000558A0, symSize: 0x10C }
  - { offset: 0xAA7C4, size: 0x8, addend: 0x0, symName: '__ZN102_$LT$std..panicking..begin_panic_handler..FormatStringPayload$u20$as$u20$core..panic..PanicPayload$GT$3get17hfb22b8fe1e5cc2aeE', symObjAddr: 0x38B98, symBinAddr: 0x1000559AC, symSize: 0xAC }
  - { offset: 0xAA8ED, size: 0x8, addend: 0x0, symName: '__ZN95_$LT$std..panicking..begin_panic_handler..FormatStringPayload$u20$as$u20$core..fmt..Display$GT$3fmt17he27552d7710cca5dE', symObjAddr: 0x38C44, symBinAddr: 0x100055A58, symSize: 0x58 }
  - { offset: 0xAA9A6, size: 0x8, addend: 0x0, symName: '__ZN99_$LT$std..panicking..begin_panic_handler..StaticStrPayload$u20$as$u20$core..panic..PanicPayload$GT$8take_box17hf4543bf975f3b0e1E', symObjAddr: 0x38C9C, symBinAddr: 0x100055AB0, symSize: 0x50 }
  - { offset: 0xAAA32, size: 0x8, addend: 0x0, symName: '__ZN99_$LT$std..panicking..begin_panic_handler..StaticStrPayload$u20$as$u20$core..panic..PanicPayload$GT$3get17hfa3fbe52e00b193eE', symObjAddr: 0x38CEC, symBinAddr: 0x100055B00, symSize: 0x18 }
  - { offset: 0xAAA4D, size: 0x8, addend: 0x0, symName: '__ZN99_$LT$std..panicking..begin_panic_handler..StaticStrPayload$u20$as$u20$core..panic..PanicPayload$GT$6as_str17h7d71f2555e626639E', symObjAddr: 0x38D04, symBinAddr: 0x100055B18, symSize: 0x18 }
  - { offset: 0xAAA6E, size: 0x8, addend: 0x0, symName: '__ZN92_$LT$std..panicking..begin_panic_handler..StaticStrPayload$u20$as$u20$core..fmt..Display$GT$3fmt17ha64081b167c3016bE', symObjAddr: 0x38D1C, symBinAddr: 0x100055B30, symSize: 0x1C }
  - { offset: 0xAAA8A, size: 0x8, addend: 0x0, symName: '__ZN3std9panicking19begin_panic_handler28_$u7b$$u7b$closure$u7d$$u7d$17h1230eb3cc91b241cE', symObjAddr: 0x38D38, symBinAddr: 0x100055B4C, symSize: 0xC0 }
  - { offset: 0xAABCC, size: 0x8, addend: 0x0, symName: __ZN3std9panicking14payload_as_str17h971d13004f5222c0E, symObjAddr: 0x38DF8, symBinAddr: 0x100055C0C, symSize: 0xB0 }
  - { offset: 0xAACA2, size: 0x8, addend: 0x0, symName: __ZN3std9panicking20rust_panic_with_hook17h09e8a656f11e82b2E, symObjAddr: 0x38EA8, symBinAddr: 0x100055CBC, symSize: 0x93C }
  - { offset: 0xAC259, size: 0x8, addend: 0x0, symName: __ZN3std9panicking23rust_panic_without_hook17h7e9d2649e6de73ffE, symObjAddr: 0x397E4, symBinAddr: 0x1000565F8, symSize: 0xD4 }
  - { offset: 0xAC470, size: 0x8, addend: 0x0, symName: '__ZN96_$LT$std..panicking..rust_panic_without_hook..RewrapBox$u20$as$u20$core..panic..PanicPayload$GT$8take_box17h20aead0b18989f42E', symObjAddr: 0x398B8, symBinAddr: 0x1000566CC, symSize: 0x28 }
  - { offset: 0xAC4CC, size: 0x8, addend: 0x0, symName: '__ZN96_$LT$std..panicking..rust_panic_without_hook..RewrapBox$u20$as$u20$core..panic..PanicPayload$GT$3get17h7d6e179f135ee6ffE', symObjAddr: 0x398E0, symBinAddr: 0x1000566F4, symSize: 0x18 }
  - { offset: 0xAC4ED, size: 0x8, addend: 0x0, symName: '__ZN89_$LT$std..panicking..rust_panic_without_hook..RewrapBox$u20$as$u20$core..fmt..Display$GT$3fmt17h9941e2af9f6958f8E', symObjAddr: 0x398F8, symBinAddr: 0x10005670C, symSize: 0x20 }
  - { offset: 0xAC50A, size: 0x8, addend: 0x0, symName: _rust_panic, symObjAddr: 0x39918, symBinAddr: 0x10005672C, symSize: 0x60 }
  - { offset: 0xAC55D, size: 0x8, addend: 0x0, symName: '__ZN65_$LT$std..thread..PanicGuard$u20$as$u20$core..ops..drop..Drop$GT$4drop17h4abc5a4574c96a9dE', symObjAddr: 0x1EA44, symBinAddr: 0x10003C544, symSize: 0x44 }
  - { offset: 0xAC76E, size: 0x8, addend: 0x0, symName: '__ZN68_$LT$std..thread..local..AccessError$u20$as$u20$core..fmt..Debug$GT$3fmt17hfe2cea5e33671517E', symObjAddr: 0x1E490, symBinAddr: 0x10003BF90, symSize: 0x38 }
  - { offset: 0xAC78E, size: 0x8, addend: 0x0, symName: '__ZN70_$LT$std..thread..local..AccessError$u20$as$u20$core..fmt..Display$GT$3fmt17h5d023c3c8be35f30E', symObjAddr: 0x1E4C8, symBinAddr: 0x10003BFC8, symSize: 0x20 }
  - { offset: 0xAC85B, size: 0x8, addend: 0x0, symName: __ZN3std6thread6Thread3new17h29f429a5b4e1b725E, symObjAddr: 0x1EECC, symBinAddr: 0x10003C994, symSize: 0x30 }
  - { offset: 0xAC88C, size: 0x8, addend: 0x0, symName: __ZN3std6thread6Thread11new_unnamed17h9e549ff5aaafd556E, symObjAddr: 0x1EEFC, symBinAddr: 0x10003C9C4, symSize: 0x28 }
  - { offset: 0xAC8A0, size: 0x8, addend: 0x0, symName: __ZN3std6thread6Thread9new_inner17h4f285160a0725b7eE, symObjAddr: 0x1EF24, symBinAddr: 0x10003C9EC, symSize: 0x158 }
  - { offset: 0xACB40, size: 0x8, addend: 0x0, symName: __ZN3std6thread6Thread4name17h2e2a26e15a58da63E, symObjAddr: 0x1F07C, symBinAddr: 0x10003CB44, symSize: 0x44 }
  - { offset: 0xACCCF, size: 0x8, addend: 0x0, symName: __ZN3std6thread6scoped9ScopeData29increment_num_running_threads17h90bc3141654a9d1bE, symObjAddr: 0x1E324, symBinAddr: 0x10003BE64, symSize: 0x20 }
  - { offset: 0xACCEC, size: 0x8, addend: 0x0, symName: __ZN3std6thread6scoped9ScopeData29increment_num_running_threads17h90bc3141654a9d1bE, symObjAddr: 0x1E324, symBinAddr: 0x10003BE64, symSize: 0x20 }
  - { offset: 0xACD00, size: 0x8, addend: 0x0, symName: __ZN3std6thread6scoped9ScopeData29increment_num_running_threads17h90bc3141654a9d1bE, symObjAddr: 0x1E324, symBinAddr: 0x10003BE64, symSize: 0x20 }
  - { offset: 0xACD29, size: 0x8, addend: 0x0, symName: __ZN3std6thread6scoped9ScopeData8overflow17hd5c6ff3275591d5dE, symObjAddr: 0x1E344, symBinAddr: 0x1000A50B8, symSize: 0x40 }
  - { offset: 0xACD58, size: 0x8, addend: 0x0, symName: __ZN3std6thread6scoped9ScopeData29decrement_num_running_threads17hce17933ed2974321E, symObjAddr: 0x1E384, symBinAddr: 0x10003BE84, symSize: 0x54 }
  - { offset: 0xACE93, size: 0x8, addend: 0x0, symName: '__ZN63_$LT$std..thread..scoped..Scope$u20$as$u20$core..fmt..Debug$GT$3fmt17heab2ca0dc83ce006E', symObjAddr: 0x1E3D8, symBinAddr: 0x10003BED8, symSize: 0xB8 }
  - { offset: 0xACF4D, size: 0x8, addend: 0x0, symName: __ZN3std6thread7Builder4name17h133ede7e708eae34E, symObjAddr: 0x1E4E8, symBinAddr: 0x10003BFE8, symSize: 0x84 }
  - { offset: 0xAD00F, size: 0x8, addend: 0x0, symName: __ZN3std6thread11set_current17hb493be3bc1ca0bceE, symObjAddr: 0x1E56C, symBinAddr: 0x10003C06C, symSize: 0x17C }
  - { offset: 0xAD426, size: 0x8, addend: 0x0, symName: __ZN3std6thread7current17h29fec4efc79efe2dE, symObjAddr: 0x1E6E8, symBinAddr: 0x10003C1E8, symSize: 0xCC }
  - { offset: 0xAD5DC, size: 0x8, addend: 0x0, symName: __ZN3std6thread9yield_now17ha17d41d70be89cbbE, symObjAddr: 0x1E7B4, symBinAddr: 0x10003C2B4, symSize: 0x10 }
  - { offset: 0xAD61B, size: 0x8, addend: 0x0, symName: __ZN3std6thread8sleep_ms17hf079c78d2d048d25E, symObjAddr: 0x1E7C4, symBinAddr: 0x10003C2C4, symSize: 0xDC }
  - { offset: 0xAD6B5, size: 0x8, addend: 0x0, symName: __ZN3std6thread5sleep17h60d41b0858706758E, symObjAddr: 0x1E8A0, symBinAddr: 0x10003C3A0, symSize: 0xB8 }
  - { offset: 0xAD72C, size: 0x8, addend: 0x0, symName: __ZN3std6thread11sleep_until17h0fd7ae5fd7b4c686E, symObjAddr: 0x1E958, symBinAddr: 0x10003C458, symSize: 0xEC }
  - { offset: 0xAD832, size: 0x8, addend: 0x0, symName: __ZN3std6thread4park17h0488a71276ef6ee5E, symObjAddr: 0x1EA88, symBinAddr: 0x10003C588, symSize: 0x140 }
  - { offset: 0xADB5D, size: 0x8, addend: 0x0, symName: __ZN3std6thread15park_timeout_ms17h09b8048c32fc7f6aE, symObjAddr: 0x1EBC8, symBinAddr: 0x10003C6C8, symSize: 0x38 }
  - { offset: 0xADB8E, size: 0x8, addend: 0x0, symName: __ZN3std6thread12park_timeout17h3094a03c38ba3b52E, symObjAddr: 0x1EC00, symBinAddr: 0x10003C700, symSize: 0x198 }
  - { offset: 0xADEF2, size: 0x8, addend: 0x0, symName: __ZN3std6thread8ThreadId3new9exhausted17h1903b2f8f673884cE, symObjAddr: 0x1ED98, symBinAddr: 0x1000A50F8, symSize: 0x38 }
  - { offset: 0xADF2E, size: 0x8, addend: 0x0, symName: '__ZN118_$LT$std..thread..thread_name_string..ThreadNameString$u20$as$u20$core..convert..From$LT$alloc..string..String$GT$$GT$4from17h14ebab4ec41083b3E', symObjAddr: 0x1EDD0, symBinAddr: 0x10003C898, symSize: 0xFC }
  - { offset: 0xAE139, size: 0x8, addend: 0x0, symName: '__ZN56_$LT$std..thread..Thread$u20$as$u20$core..fmt..Debug$GT$3fmt17ha530a8d2f51b33dfE', symObjAddr: 0x1F0C0, symBinAddr: 0x10003CB88, symSize: 0xC0 }
  - { offset: 0xAE29D, size: 0x8, addend: 0x0, symName: __ZN3std6thread21available_parallelism17hc31072c992146552E, symObjAddr: 0x1F180, symBinAddr: 0x10003CC48, symSize: 0x50 }
  - { offset: 0xAE376, size: 0x8, addend: 0x0, symName: '__ZN58_$LT$std..thread..ThreadId$u20$as$u20$core..fmt..Debug$GT$3fmt17h8fcb97bcf7465a3cE', symObjAddr: 0x3A358, symBinAddr: 0x10005716C, symSize: 0x40 }
  - { offset: 0xAE3CA, size: 0x8, addend: 0x0, symName: '__ZN3std10sys_common8lazy_box16LazyBox$LT$T$GT$10initialize17h60b5cf6c83e41ca1E', symObjAddr: 0x3699C, symBinAddr: 0x1000A5C54, symSize: 0xBC }
  - { offset: 0xAE552, size: 0x8, addend: 0x0, symName: '__ZN3std10sys_common8lazy_box16LazyBox$LT$T$GT$10initialize17h7a43e99b587edafaE', symObjAddr: 0x36A58, symBinAddr: 0x1000A5D10, symSize: 0x4C }
  - { offset: 0xAE6AC, size: 0x8, addend: 0x0, symName: '__ZN74_$LT$std..sys_common..net..LookupHost$u20$as$u20$core..ops..drop..Drop$GT$4drop17h32bbe896707fe16cE', symObjAddr: 0x450E4, symBinAddr: 0x1000616B4, symSize: 0x14 }
  - { offset: 0xAE6D3, size: 0x8, addend: 0x0, symName: '__ZN104_$LT$std..sys_common..net..LookupHost$u20$as$u20$core..convert..TryFrom$LT$$LP$$RF$str$C$u16$RP$$GT$$GT$8try_from17hfea92619f5ea88b7E', symObjAddr: 0x4523C, symBinAddr: 0x10006180C, symSize: 0xB8 }
  - { offset: 0xAE760, size: 0x8, addend: 0x0, symName: '__ZN104_$LT$std..sys_common..net..LookupHost$u20$as$u20$core..convert..TryFrom$LT$$LP$$RF$str$C$u16$RP$$GT$$GT$8try_from28_$u7b$$u7b$closure$u7d$$u7d$17he0bed8d7e9c7495bE', symObjAddr: 0x452F4, symBinAddr: 0x1000618C4, symSize: 0x218 }
  - { offset: 0xAEE1E, size: 0x8, addend: 0x0, symName: __ZN3std10sys_common3net9TcpStream7connect17h32c0171135b3b3c9E, symObjAddr: 0x4550C, symBinAddr: 0x100061ADC, symSize: 0x130 }
  - { offset: 0xAEE3B, size: 0x8, addend: 0x0, symName: __ZN3std10sys_common3net9TcpStream7connect17h32c0171135b3b3c9E, symObjAddr: 0x4550C, symBinAddr: 0x100061ADC, symSize: 0x130 }
  - { offset: 0xAEF5F, size: 0x8, addend: 0x0, symName: __ZN3std10sys_common3net9TcpStream9peer_addr17h0b4e61ad9d915568E, symObjAddr: 0x4563C, symBinAddr: 0x100061C0C, symSize: 0x148 }
  - { offset: 0xAF109, size: 0x8, addend: 0x0, symName: '__ZN3std10sys_common3net154_$LT$impl$u20$std..sys_common..IntoInner$LT$$LP$std..sys_common..net..SocketAddrCRepr$C$u32$RP$$GT$$u20$for$u20$$RF$core..net..socket_addr..SocketAddr$GT$10into_inner17hfcc03ad232d5d4a3E', symObjAddr: 0x45F3C, symBinAddr: 0x10006250C, symSize: 0x74 }
  - { offset: 0xAF239, size: 0x8, addend: 0x0, symName: __ZN3std10sys_common3net11TcpListener4bind17hf0f06e368ea79850E, symObjAddr: 0x45890, symBinAddr: 0x100061E60, symSize: 0x14C }
  - { offset: 0xAF38B, size: 0x8, addend: 0x0, symName: __ZN3std10sys_common3net11TcpListener11socket_addr17h07752ee2bd9e9c28E, symObjAddr: 0x459DC, symBinAddr: 0x100061FAC, symSize: 0x148 }
  - { offset: 0xAF614, size: 0x8, addend: 0x0, symName: __ZN3std10sys_common3net9UdpSocket4bind17h7f6bd631d262249bE, symObjAddr: 0x45BE0, symBinAddr: 0x1000621B0, symSize: 0x10C }
  - { offset: 0xAF78B, size: 0x8, addend: 0x0, symName: __ZN3std10sys_common3net9UdpSocket7send_to17hd115ff4a5d05dc9cE, symObjAddr: 0x45CEC, symBinAddr: 0x1000622BC, symSize: 0xA0 }
  - { offset: 0xAF7A9, size: 0x8, addend: 0x0, symName: __ZN3std10sys_common3net9UdpSocket7send_to17hd115ff4a5d05dc9cE, symObjAddr: 0x45CEC, symBinAddr: 0x1000622BC, symSize: 0xA0 }
  - { offset: 0xAF87F, size: 0x8, addend: 0x0, symName: __ZN3std10sys_common3net9UdpSocket7connect17hd2b5fb2b473f8c26E, symObjAddr: 0x45D8C, symBinAddr: 0x10006235C, symSize: 0xF4 }
  - { offset: 0xAF89D, size: 0x8, addend: 0x0, symName: __ZN3std10sys_common3net9UdpSocket7connect17hd2b5fb2b473f8c26E, symObjAddr: 0x45D8C, symBinAddr: 0x10006235C, symSize: 0xF4 }
  - { offset: 0xAF9CA, size: 0x8, addend: 0x0, symName: '__ZN91_$LT$std..sys_common..net..LookupHost$u20$as$u20$core..iter..traits..iterator..Iterator$GT$4next17h8029c77edc1ea40fE', symObjAddr: 0x44F98, symBinAddr: 0x100061568, symSize: 0x14C }
  - { offset: 0xAFAAB, size: 0x8, addend: 0x0, symName: '__ZN90_$LT$std..sys_common..net..LookupHost$u20$as$u20$core..convert..TryFrom$LT$$RF$str$GT$$GT$8try_from17hcd6fe88635b52b15E', symObjAddr: 0x450F8, symBinAddr: 0x1000616C8, symSize: 0x144 }
  - { offset: 0xAFCBB, size: 0x8, addend: 0x0, symName: '__ZN68_$LT$std..sys_common..net..TcpStream$u20$as$u20$core..fmt..Debug$GT$3fmt17h4992a3bf5ab2f88aE', symObjAddr: 0x45784, symBinAddr: 0x100061D54, symSize: 0x10C }
  - { offset: 0xAFD85, size: 0x8, addend: 0x0, symName: '__ZN70_$LT$std..sys_common..net..TcpListener$u20$as$u20$core..fmt..Debug$GT$3fmt17hd0aa145ced14fa2fE', symObjAddr: 0x45B24, symBinAddr: 0x1000620F4, symSize: 0xBC }
  - { offset: 0xAFE13, size: 0x8, addend: 0x0, symName: '__ZN68_$LT$std..sys_common..net..UdpSocket$u20$as$u20$core..fmt..Debug$GT$3fmt17h6442df4de97a495dE', symObjAddr: 0x45E80, symBinAddr: 0x100062450, symSize: 0xBC }
  - { offset: 0xAFEC1, size: 0x8, addend: 0x0, symName: __ZN3std10sys_common7process10CommandEnv3set17h88e51d2957e7a8ecE, symObjAddr: 0x36B28, symBinAddr: 0x1000539C4, symSize: 0x1A0 }
  - { offset: 0xB0303, size: 0x8, addend: 0x0, symName: __ZN3std10sys_common7process10CommandEnv6remove17h03583c6ce9a0d136E, symObjAddr: 0x36CC8, symBinAddr: 0x100053B64, symSize: 0x3B4 }
  - { offset: 0xB0E26, size: 0x8, addend: 0x0, symName: '__ZN73_$LT$std..sys_common..process..CommandEnv$u20$as$u20$core..fmt..Debug$GT$3fmt17h0c4eeef48288c9adE', symObjAddr: 0x36AA4, symBinAddr: 0x100053940, symSize: 0x84 }
  - { offset: 0xB0E59, size: 0x8, addend: 0x0, symName: '__ZN96_$LT$std..sys_common..process..CommandEnvs$u20$as$u20$core..iter..traits..iterator..Iterator$GT$4next17h0578bf4fb3f6fd79E', symObjAddr: 0x3707C, symBinAddr: 0x100053F18, symSize: 0x50 }
  - { offset: 0xB0ED7, size: 0x8, addend: 0x0, symName: __ZN3std10sys_common2fs6exists17h8d65849ac54dc31eE, symObjAddr: 0x36788, symBinAddr: 0x10005372C, symSize: 0x214 }
  - { offset: 0xB0F4D, size: 0x8, addend: 0x0, symName: '__ZN91_$LT$std..sys_common..wstr..WStrUnits$u20$as$u20$core..iter..traits..iterator..Iterator$GT$4next17ha5f5de9f885f86f8E', symObjAddr: 0x370CC, symBinAddr: 0x100053F68, symSize: 0x28 }
  - { offset: 0xB0FBD, size: 0x8, addend: 0x0, symName: __ZN3std10sys_common4wtf87Wtf8Buf25push_code_point_unchecked17hc94ea6f16b069807E, symObjAddr: 0x3710C, symBinAddr: 0x100053FA8, symSize: 0x11C }
  - { offset: 0xB10EF, size: 0x8, addend: 0x0, symName: '__ZN74_$LT$std..sys_common..wtf8..Wtf8Buf$u20$as$u20$core..ops..deref..Deref$GT$5deref17h87813dae06a16cedE', symObjAddr: 0x370F4, symBinAddr: 0x100053F90, symSize: 0x18 }
  - { offset: 0xB1187, size: 0x8, addend: 0x0, symName: '__ZN64_$LT$std..sys_common..wtf8..Wtf8$u20$as$u20$core..fmt..Debug$GT$3fmt17he9ce69d05c46d4c9E', symObjAddr: 0x37228, symBinAddr: 0x1000540C4, symSize: 0x21C }
  - { offset: 0xB1434, size: 0x8, addend: 0x0, symName: '__ZN64_$LT$std..sys_common..wtf8..Wtf8$u20$as$u20$core..fmt..Debug$GT$3fmt17write_str_escaped17h18d37d06078b797fE', symObjAddr: 0x37444, symBinAddr: 0x1000542E0, symSize: 0x31C }
  - { offset: 0xB170C, size: 0x8, addend: 0x0, symName: '__ZN66_$LT$std..sys_common..wtf8..Wtf8$u20$as$u20$core..fmt..Display$GT$3fmt17h1b19724b1548549bE', symObjAddr: 0x37760, symBinAddr: 0x1000545FC, symSize: 0x1E4 }
  - { offset: 0xB18DF, size: 0x8, addend: 0x0, symName: __ZN3std10sys_common4wtf816slice_error_fail17hb803529738815a6eE, symObjAddr: 0x37944, symBinAddr: 0x1000547E0, symSize: 0x8C }
  - { offset: 0xB1937, size: 0x8, addend: 0x0, symName: '__ZN89_$LT$std..backtrace_rs..symbolize..gimli..mmap..Mmap$u20$as$u20$core..ops..drop..Drop$GT$4drop17h97d1cb8eb43717f0E', symObjAddr: 0x4ACC0, symBinAddr: 0x100067290, symSize: 0x18 }
  - { offset: 0xB1964, size: 0x8, addend: 0x0, symName: '__ZN91_$LT$std..backtrace_rs..symbolize..gimli..mmap..Mmap$u20$as$u20$core..ops..deref..Deref$GT$5deref17hdad59ef6c1901a49E', symObjAddr: 0x4ACA8, symBinAddr: 0x100067278, symSize: 0x18 }
  - { offset: 0xB1A41, size: 0x8, addend: 0x0, symName: __ZN3std12backtrace_rs9symbolize5gimli7Context3new17h1a9183a23d1397fcE, symObjAddr: 0x460D8, symBinAddr: 0x1000626A8, symSize: 0x22A8 }
  - { offset: 0xB5BF1, size: 0x8, addend: 0x0, symName: __ZN3std12backtrace_rs9symbolize5gimli7Context11find_frames17h19dbffd786250672E, symObjAddr: 0x48380, symBinAddr: 0x100064950, symSize: 0x39C }
  - { offset: 0xB5FC0, size: 0x8, addend: 0x0, symName: __ZN3std12backtrace_rs9symbolize5gimli5macho6Object5parse17hb2b13c6d454b20c5E, symObjAddr: 0x4AEAC, symBinAddr: 0x10006747C, symSize: 0xC68 }
  - { offset: 0xB7A0D, size: 0x8, addend: 0x0, symName: __ZN3std12backtrace_rs9symbolize5gimli5macho6Object7section17h4f01ad9c14fce1d0E, symObjAddr: 0x4BB14, symBinAddr: 0x1000680E4, symSize: 0x18C }
  - { offset: 0xB7D7F, size: 0x8, addend: 0x0, symName: __ZN3std12backtrace_rs9symbolize5gimli5macho11find_header17h00b4b49a284b25deE, symObjAddr: 0x4ACD8, symBinAddr: 0x1000672A8, symSize: 0x1D4 }
  - { offset: 0xB8455, size: 0x8, addend: 0x0, symName: __ZN3std12backtrace_rs9symbolize5gimli4mmap17hbb32603defbbcb44E, symObjAddr: 0x4871C, symBinAddr: 0x100064CEC, symSize: 0x1DC }
  - { offset: 0xB8969, size: 0x8, addend: 0x0, symName: __ZN3std12backtrace_rs9symbolize5gimli7resolve17h336ac5c62324e4a9E, symObjAddr: 0x488F8, symBinAddr: 0x100064EC8, symSize: 0x23B0 }
  - { offset: 0xBD86E, size: 0x8, addend: 0x0, symName: __ZN3std12backtrace_rs9symbolize6Symbol4name17h8c788012e4f5a412E, symObjAddr: 0x39A50, symBinAddr: 0x100056864, symSize: 0xE4 }
  - { offset: 0xBD996, size: 0x8, addend: 0x0, symName: __ZN3std12backtrace_rs9symbolize6Symbol12filename_raw17hbbad95a44b77f885E, symObjAddr: 0x39B34, symBinAddr: 0x100056948, symSize: 0x44 }
  - { offset: 0xBDA0F, size: 0x8, addend: 0x0, symName: '__ZN73_$LT$std..backtrace_rs..symbolize..Symbol$u20$as$u20$core..fmt..Debug$GT$3fmt17h4bacabbdf464bad6E', symObjAddr: 0x39B78, symBinAddr: 0x10005698C, symSize: 0xFC }
  - { offset: 0xBDAA9, size: 0x8, addend: 0x0, symName: '__ZN79_$LT$std..backtrace_rs..symbolize..SymbolName$u20$as$u20$core..fmt..Display$GT$3fmt17h976eb2902a4594d7E', symObjAddr: 0x39C74, symBinAddr: 0x100056A88, symSize: 0x100 }
  - { offset: 0xBDB89, size: 0x8, addend: 0x0, symName: '__ZN77_$LT$std..backtrace_rs..symbolize..SymbolName$u20$as$u20$core..fmt..Debug$GT$3fmt17h96968ab6ce85bd6cE', symObjAddr: 0x39D74, symBinAddr: 0x100056B88, symSize: 0x100 }
  - { offset: 0xBDCDB, size: 0x8, addend: 0x0, symName: '__ZN85_$LT$std..backtrace_rs..backtrace..libunwind..Frame$u20$as$u20$core..clone..Clone$GT$5clone17hfbc67b9cf3a765aaE', symObjAddr: 0x45FF4, symBinAddr: 0x1000625C4, symSize: 0x64 }
  - { offset: 0xBDD46, size: 0x8, addend: 0x0, symName: '__ZN87_$LT$std..backtrace_rs..backtrace..libunwind..Bomb$u20$as$u20$core..ops..drop..Drop$GT$4drop17h99a2b5002380d335E', symObjAddr: 0x46058, symBinAddr: 0x100062628, symSize: 0x44 }
  - { offset: 0xBDD7B, size: 0x8, addend: 0x0, symName: __ZN3std12backtrace_rs9backtrace9libunwind5trace8trace_fn17h6b78fa47e22e539cE, symObjAddr: 0x4609C, symBinAddr: 0x10006266C, symSize: 0x3C }
  - { offset: 0xBDDFE, size: 0x8, addend: 0x0, symName: '__ZN72_$LT$std..backtrace_rs..backtrace..Frame$u20$as$u20$core..fmt..Debug$GT$3fmt17hc67241cd0e950191E', symObjAddr: 0x39978, symBinAddr: 0x10005678C, symSize: 0xD8 }
  - { offset: 0xBDF0A, size: 0x8, addend: 0x0, symName: __ZN3std12backtrace_rs5print17BacktraceFrameFmt21print_raw_with_column17h195eb22207e90d67E, symObjAddr: 0x39E74, symBinAddr: 0x100056C88, symSize: 0x4E4 }
  - { offset: 0xBE144, size: 0x8, addend: 0x0, symName: __ZN3std2rt7cleanup17hd82c858da0ce129fE, symObjAddr: 0x1DC4C, symBinAddr: 0x10003B78C, symSize: 0x64 }
  - { offset: 0xBE167, size: 0x8, addend: 0x0, symName: __ZN3std2rt7cleanup17hd82c858da0ce129fE, symObjAddr: 0x1DC4C, symBinAddr: 0x10003B78C, symSize: 0x64 }
  - { offset: 0xBE17B, size: 0x8, addend: 0x0, symName: __ZN3std2rt7cleanup17hd82c858da0ce129fE, symObjAddr: 0x1DC4C, symBinAddr: 0x10003B78C, symSize: 0x64 }
  - { offset: 0xBE18F, size: 0x8, addend: 0x0, symName: __ZN3std2rt7cleanup17hd82c858da0ce129fE, symObjAddr: 0x1DC4C, symBinAddr: 0x10003B78C, symSize: 0x64 }
  - { offset: 0xBE1DE, size: 0x8, addend: 0x0, symName: '__ZN3std2rt19lang_start_internal28_$u7b$$u7b$closure$u7d$$u7d$17h74d13a7fd9d3427fE', symObjAddr: 0x1E2E0, symBinAddr: 0x10003BE20, symSize: 0x44 }
  - { offset: 0xBE21B, size: 0x8, addend: 0x0, symName: __ZN3std2rt19lang_start_internal17hdd117cb81a316264E, symObjAddr: 0x1DCB0, symBinAddr: 0x10003B7F0, symSize: 0x630 }
  - { offset: 0xBEB7D, size: 0x8, addend: 0x0, symName: '__ZN64_$LT$std..panic..PanicHookInfo$u20$as$u20$core..fmt..Display$GT$3fmt17h2b1338824796feddE', symObjAddr: 0x2FD0C, symBinAddr: 0x10004D648, symSize: 0x118 }
  - { offset: 0xBECD2, size: 0x8, addend: 0x0, symName: __ZN3std5panic13resume_unwind17h7cce0ad18a42a943E, symObjAddr: 0x2FE24, symBinAddr: 0x10004D760, symSize: 0xC }
  - { offset: 0xBECED, size: 0x8, addend: 0x0, symName: __ZN3std5panic12always_abort17h7ecd8ef098326f0bE, symObjAddr: 0x2FE30, symBinAddr: 0x10004D76C, symSize: 0x20 }
  - { offset: 0xBED65, size: 0x8, addend: 0x0, symName: __ZN3std5panic19set_backtrace_style17hddc1421718de5e93E, symObjAddr: 0x2FE50, symBinAddr: 0x10004D78C, symSize: 0x20 }
  - { offset: 0xBEDDC, size: 0x8, addend: 0x0, symName: __ZN3std5panic19get_backtrace_style17hd84cc0ecf5ce561dE, symObjAddr: 0x2FE70, symBinAddr: 0x10004D7AC, symSize: 0x194 }
  - { offset: 0xBF189, size: 0x8, addend: 0x0, symName: __ZN3std4time7Instant3now17ha8a8545cab6fd15dE, symObjAddr: 0x34FBC, symBinAddr: 0x10005262C, symSize: 0x14 }
  - { offset: 0xBF1B3, size: 0x8, addend: 0x0, symName: __ZN3std4time7Instant14duration_since17hd4a67b6f6b2f3404E, symObjAddr: 0x34FD0, symBinAddr: 0x100052640, symSize: 0x48 }
  - { offset: 0xBF21E, size: 0x8, addend: 0x0, symName: __ZN3std4time7Instant22checked_duration_since17h4601bfa5b946c8bbE, symObjAddr: 0x35018, symBinAddr: 0x100052688, symSize: 0x4C }
  - { offset: 0xBF25E, size: 0x8, addend: 0x0, symName: __ZN3std4time7Instant7elapsed17h7cd5a665132df2efE, symObjAddr: 0x35064, symBinAddr: 0x1000526D4, symSize: 0x68 }
  - { offset: 0xBF350, size: 0x8, addend: 0x0, symName: '__ZN60_$LT$std..time..Instant$u20$as$u20$core..ops..arith..Sub$GT$3sub17h5cc7132d9136bbdeE', symObjAddr: 0x352AC, symBinAddr: 0x10005291C, symSize: 0x4C }
  - { offset: 0xBF3D7, size: 0x8, addend: 0x0, symName: '__ZN88_$LT$std..time..Instant$u20$as$u20$core..ops..arith..Add$LT$core..time..Duration$GT$$GT$3add17h067598462de05c9aE', symObjAddr: 0x350CC, symBinAddr: 0x10005273C, symSize: 0x70 }
  - { offset: 0xBF3EE, size: 0x8, addend: 0x0, symName: '__ZN88_$LT$std..time..Instant$u20$as$u20$core..ops..arith..Add$LT$core..time..Duration$GT$$GT$3add17h067598462de05c9aE', symObjAddr: 0x350CC, symBinAddr: 0x10005273C, symSize: 0x70 }
  - { offset: 0xBF403, size: 0x8, addend: 0x0, symName: '__ZN88_$LT$std..time..Instant$u20$as$u20$core..ops..arith..Add$LT$core..time..Duration$GT$$GT$3add17h067598462de05c9aE', symObjAddr: 0x350CC, symBinAddr: 0x10005273C, symSize: 0x70 }
  - { offset: 0xBF418, size: 0x8, addend: 0x0, symName: '__ZN88_$LT$std..time..Instant$u20$as$u20$core..ops..arith..Add$LT$core..time..Duration$GT$$GT$3add17h067598462de05c9aE', symObjAddr: 0x350CC, symBinAddr: 0x10005273C, symSize: 0x70 }
  - { offset: 0xBF42D, size: 0x8, addend: 0x0, symName: '__ZN88_$LT$std..time..Instant$u20$as$u20$core..ops..arith..Add$LT$core..time..Duration$GT$$GT$3add17h067598462de05c9aE', symObjAddr: 0x350CC, symBinAddr: 0x10005273C, symSize: 0x70 }
  - { offset: 0xBF441, size: 0x8, addend: 0x0, symName: '__ZN88_$LT$std..time..Instant$u20$as$u20$core..ops..arith..Add$LT$core..time..Duration$GT$$GT$3add17h067598462de05c9aE', symObjAddr: 0x350CC, symBinAddr: 0x10005273C, symSize: 0x70 }
  - { offset: 0xBF456, size: 0x8, addend: 0x0, symName: '__ZN88_$LT$std..time..Instant$u20$as$u20$core..ops..arith..Add$LT$core..time..Duration$GT$$GT$3add17h067598462de05c9aE', symObjAddr: 0x350CC, symBinAddr: 0x10005273C, symSize: 0x70 }
  - { offset: 0xBF4C1, size: 0x8, addend: 0x0, symName: '__ZN94_$LT$std..time..Instant$u20$as$u20$core..ops..arith..AddAssign$LT$core..time..Duration$GT$$GT$10add_assign17h4db0e58364cac300E', symObjAddr: 0x3513C, symBinAddr: 0x1000527AC, symSize: 0x80 }
  - { offset: 0xBF59A, size: 0x8, addend: 0x0, symName: '__ZN88_$LT$std..time..Instant$u20$as$u20$core..ops..arith..Sub$LT$core..time..Duration$GT$$GT$3sub17h6e06a35105564195E', symObjAddr: 0x351BC, symBinAddr: 0x10005282C, symSize: 0x6C }
  - { offset: 0xBF5D8, size: 0x8, addend: 0x0, symName: '__ZN88_$LT$std..time..Instant$u20$as$u20$core..ops..arith..Sub$LT$core..time..Duration$GT$$GT$3sub17h6e06a35105564195E', symObjAddr: 0x351BC, symBinAddr: 0x10005282C, symSize: 0x6C }
  - { offset: 0xBF5EC, size: 0x8, addend: 0x0, symName: '__ZN88_$LT$std..time..Instant$u20$as$u20$core..ops..arith..Sub$LT$core..time..Duration$GT$$GT$3sub17h6e06a35105564195E', symObjAddr: 0x351BC, symBinAddr: 0x10005282C, symSize: 0x6C }
  - { offset: 0xBF601, size: 0x8, addend: 0x0, symName: '__ZN88_$LT$std..time..Instant$u20$as$u20$core..ops..arith..Sub$LT$core..time..Duration$GT$$GT$3sub17h6e06a35105564195E', symObjAddr: 0x351BC, symBinAddr: 0x10005282C, symSize: 0x6C }
  - { offset: 0xBF665, size: 0x8, addend: 0x0, symName: '__ZN94_$LT$std..time..Instant$u20$as$u20$core..ops..arith..SubAssign$LT$core..time..Duration$GT$$GT$10sub_assign17h4c22cfe4ef730c6cE', symObjAddr: 0x35228, symBinAddr: 0x100052898, symSize: 0x84 }
  - { offset: 0xBF737, size: 0x8, addend: 0x0, symName: '__ZN55_$LT$std..time..Instant$u20$as$u20$core..fmt..Debug$GT$3fmt17h19622486b3292874E', symObjAddr: 0x352F8, symBinAddr: 0x100052968, symSize: 0x80 }
  - { offset: 0xBF76E, size: 0x8, addend: 0x0, symName: __ZN3std4time10SystemTime3now17hb04504290ffcb5a2E, symObjAddr: 0x35378, symBinAddr: 0x1000529E8, symSize: 0x14 }
  - { offset: 0xBF798, size: 0x8, addend: 0x0, symName: __ZN3std4time10SystemTime14duration_since17h89deef436bf0aed6E, symObjAddr: 0x3538C, symBinAddr: 0x1000529FC, symSize: 0x50 }
  - { offset: 0xBF7F3, size: 0x8, addend: 0x0, symName: __ZN3std4time10SystemTime7elapsed17h4b1c8c8f0f20610fE, symObjAddr: 0x353DC, symBinAddr: 0x100052A4C, symSize: 0x68 }
  - { offset: 0xBF87A, size: 0x8, addend: 0x0, symName: __ZN3std4time10SystemTime11checked_add17h5b03b1dbbf9eec1fE, symObjAddr: 0x35444, symBinAddr: 0x100052AB4, symSize: 0x7C }
  - { offset: 0xBF90C, size: 0x8, addend: 0x0, symName: __ZN3std4time10SystemTime11checked_sub17h6821a88dceb835bbE, symObjAddr: 0x354C0, symBinAddr: 0x100052B30, symSize: 0x6C }
  - { offset: 0xBF9C0, size: 0x8, addend: 0x0, symName: '__ZN91_$LT$std..time..SystemTime$u20$as$u20$core..ops..arith..Add$LT$core..time..Duration$GT$$GT$3add17h5b70e57e507160f7E', symObjAddr: 0x3552C, symBinAddr: 0x100052B9C, symSize: 0x70 }
  - { offset: 0xBF9D7, size: 0x8, addend: 0x0, symName: '__ZN91_$LT$std..time..SystemTime$u20$as$u20$core..ops..arith..Add$LT$core..time..Duration$GT$$GT$3add17h5b70e57e507160f7E', symObjAddr: 0x3552C, symBinAddr: 0x100052B9C, symSize: 0x70 }
  - { offset: 0xBF9EC, size: 0x8, addend: 0x0, symName: '__ZN91_$LT$std..time..SystemTime$u20$as$u20$core..ops..arith..Add$LT$core..time..Duration$GT$$GT$3add17h5b70e57e507160f7E', symObjAddr: 0x3552C, symBinAddr: 0x100052B9C, symSize: 0x70 }
  - { offset: 0xBFA01, size: 0x8, addend: 0x0, symName: '__ZN91_$LT$std..time..SystemTime$u20$as$u20$core..ops..arith..Add$LT$core..time..Duration$GT$$GT$3add17h5b70e57e507160f7E', symObjAddr: 0x3552C, symBinAddr: 0x100052B9C, symSize: 0x70 }
  - { offset: 0xBFA15, size: 0x8, addend: 0x0, symName: '__ZN91_$LT$std..time..SystemTime$u20$as$u20$core..ops..arith..Add$LT$core..time..Duration$GT$$GT$3add17h5b70e57e507160f7E', symObjAddr: 0x3552C, symBinAddr: 0x100052B9C, symSize: 0x70 }
  - { offset: 0xBFA29, size: 0x8, addend: 0x0, symName: '__ZN91_$LT$std..time..SystemTime$u20$as$u20$core..ops..arith..Add$LT$core..time..Duration$GT$$GT$3add17h5b70e57e507160f7E', symObjAddr: 0x3552C, symBinAddr: 0x100052B9C, symSize: 0x70 }
  - { offset: 0xBFA3E, size: 0x8, addend: 0x0, symName: '__ZN91_$LT$std..time..SystemTime$u20$as$u20$core..ops..arith..Add$LT$core..time..Duration$GT$$GT$3add17h5b70e57e507160f7E', symObjAddr: 0x3552C, symBinAddr: 0x100052B9C, symSize: 0x70 }
  - { offset: 0xBFAA9, size: 0x8, addend: 0x0, symName: '__ZN97_$LT$std..time..SystemTime$u20$as$u20$core..ops..arith..AddAssign$LT$core..time..Duration$GT$$GT$10add_assign17h725fa38208d06120E', symObjAddr: 0x3559C, symBinAddr: 0x100052C0C, symSize: 0x80 }
  - { offset: 0xBFB81, size: 0x8, addend: 0x0, symName: '__ZN91_$LT$std..time..SystemTime$u20$as$u20$core..ops..arith..Sub$LT$core..time..Duration$GT$$GT$3sub17hd1dc3e039702ee1dE', symObjAddr: 0x3561C, symBinAddr: 0x100052C8C, symSize: 0x6C }
  - { offset: 0xBFBBE, size: 0x8, addend: 0x0, symName: '__ZN91_$LT$std..time..SystemTime$u20$as$u20$core..ops..arith..Sub$LT$core..time..Duration$GT$$GT$3sub17hd1dc3e039702ee1dE', symObjAddr: 0x3561C, symBinAddr: 0x100052C8C, symSize: 0x6C }
  - { offset: 0xBFBD2, size: 0x8, addend: 0x0, symName: '__ZN91_$LT$std..time..SystemTime$u20$as$u20$core..ops..arith..Sub$LT$core..time..Duration$GT$$GT$3sub17hd1dc3e039702ee1dE', symObjAddr: 0x3561C, symBinAddr: 0x100052C8C, symSize: 0x6C }
  - { offset: 0xBFBE7, size: 0x8, addend: 0x0, symName: '__ZN91_$LT$std..time..SystemTime$u20$as$u20$core..ops..arith..Sub$LT$core..time..Duration$GT$$GT$3sub17hd1dc3e039702ee1dE', symObjAddr: 0x3561C, symBinAddr: 0x100052C8C, symSize: 0x6C }
  - { offset: 0xBFC4B, size: 0x8, addend: 0x0, symName: '__ZN97_$LT$std..time..SystemTime$u20$as$u20$core..ops..arith..SubAssign$LT$core..time..Duration$GT$$GT$10sub_assign17hb900ea964fe57757E', symObjAddr: 0x35688, symBinAddr: 0x100052CF8, symSize: 0x84 }
  - { offset: 0xBFD1C, size: 0x8, addend: 0x0, symName: '__ZN58_$LT$std..time..SystemTime$u20$as$u20$core..fmt..Debug$GT$3fmt17h212e0a9f36fbc6d1E', symObjAddr: 0x3570C, symBinAddr: 0x100052D7C, symSize: 0x80 }
  - { offset: 0xBFD53, size: 0x8, addend: 0x0, symName: '__ZN65_$LT$std..time..SystemTimeError$u20$as$u20$core..fmt..Display$GT$3fmt17h0b0fadf6022780b6E', symObjAddr: 0x3578C, symBinAddr: 0x100052DFC, symSize: 0x24 }
  - { offset: 0xBFD98, size: 0x8, addend: 0x0, symName: __ZN3std3env11current_dir17h16d8811f0e6a7e79E, symObjAddr: 0x201AC, symBinAddr: 0x10003DC74, symSize: 0x1C8 }
  - { offset: 0xC00DB, size: 0x8, addend: 0x0, symName: __ZN3std3env4vars17he68d018cdb98fcfcE, symObjAddr: 0x20374, symBinAddr: 0x10003DE3C, symSize: 0x10 }
  - { offset: 0xC00F5, size: 0x8, addend: 0x0, symName: __ZN3std3env7vars_os17h6b329b8aa244478bE, symObjAddr: 0x20384, symBinAddr: 0x10003DE4C, symSize: 0x2D4 }
  - { offset: 0xC06F5, size: 0x8, addend: 0x0, symName: '__ZN75_$LT$std..env..VarsOs$u20$as$u20$core..iter..traits..iterator..Iterator$GT$4next17h9006f2e7818e570bE', symObjAddr: 0x208D0, symBinAddr: 0x10003E398, symSize: 0x48 }
  - { offset: 0xC0777, size: 0x8, addend: 0x0, symName: '__ZN75_$LT$std..env..VarsOs$u20$as$u20$core..iter..traits..iterator..Iterator$GT$9size_hint17h19d31ef87ffee393E', symObjAddr: 0x20918, symBinAddr: 0x10003E3E0, symSize: 0x38 }
  - { offset: 0xC07FA, size: 0x8, addend: 0x0, symName: '__ZN73_$LT$std..env..Vars$u20$as$u20$core..iter..traits..iterator..Iterator$GT$4next17h82ad8d37e95fd4a7E', symObjAddr: 0x20658, symBinAddr: 0x10003E120, symSize: 0x1BC }
  - { offset: 0xC0C6A, size: 0x8, addend: 0x0, symName: '__ZN73_$LT$std..env..Vars$u20$as$u20$core..iter..traits..iterator..Iterator$GT$9size_hint17h3768768b304d87bcE', symObjAddr: 0x20814, symBinAddr: 0x10003E2DC, symSize: 0x38 }
  - { offset: 0xC0CF5, size: 0x8, addend: 0x0, symName: '__ZN51_$LT$std..env..Vars$u20$as$u20$core..fmt..Debug$GT$3fmt17h8863f292fe45c68cE', symObjAddr: 0x2084C, symBinAddr: 0x10003E314, symSize: 0x84 }
  - { offset: 0xC0D95, size: 0x8, addend: 0x0, symName: '__ZN53_$LT$std..env..VarsOs$u20$as$u20$core..fmt..Debug$GT$3fmt17h93b5387b7dd8ded6E', symObjAddr: 0x20950, symBinAddr: 0x10003E418, symSize: 0x64 }
  - { offset: 0xC0DCC, size: 0x8, addend: 0x0, symName: __ZN3std3env4_var17h31c16d3553355708E, symObjAddr: 0x209B4, symBinAddr: 0x10003E47C, symSize: 0x14C }
  - { offset: 0xC0F61, size: 0x8, addend: 0x0, symName: __ZN3std3env7_var_os17h4c7deb805cb1fc8eE, symObjAddr: 0x20B00, symBinAddr: 0x10003E5C8, symSize: 0xEC }
  - { offset: 0xC1022, size: 0x8, addend: 0x0, symName: '__ZN57_$LT$std..env..VarError$u20$as$u20$core..fmt..Display$GT$3fmt17h13146fb0776c8cb8E', symObjAddr: 0x20BEC, symBinAddr: 0x10003E6B4, symSize: 0x78 }
  - { offset: 0xC107C, size: 0x8, addend: 0x0, symName: '__ZN79_$LT$std..env..SplitPaths$u20$as$u20$core..iter..traits..iterator..Iterator$GT$4next17h7719312ae570261aE', symObjAddr: 0x20C64, symBinAddr: 0x10003E72C, symSize: 0xA8 }
  - { offset: 0xC11CE, size: 0x8, addend: 0x0, symName: '__ZN57_$LT$std..env..SplitPaths$u20$as$u20$core..fmt..Debug$GT$3fmt17h5fbe03ec87978f5fE', symObjAddr: 0x20D0C, symBinAddr: 0x10003E7D4, symSize: 0x38 }
  - { offset: 0xC11EF, size: 0x8, addend: 0x0, symName: '__ZN63_$LT$std..env..JoinPathsError$u20$as$u20$core..fmt..Display$GT$3fmt17h66e19f28694802deE', symObjAddr: 0x20D44, symBinAddr: 0x10003E80C, symSize: 0x5C }
  - { offset: 0xC126D, size: 0x8, addend: 0x0, symName: __ZN3std3env8home_dir17hd52d6e31b4b0c6f5E, symObjAddr: 0x20DA0, symBinAddr: 0x10003E868, symSize: 0x1F4 }
  - { offset: 0xC1692, size: 0x8, addend: 0x0, symName: __ZN3std3env8temp_dir17h758e4ec78c17c855E, symObjAddr: 0x20F94, symBinAddr: 0x10003EA5C, symSize: 0x10C }
  - { offset: 0xC18C0, size: 0x8, addend: 0x0, symName: __ZN3std3env11current_exe17h227d498d40a337bfE, symObjAddr: 0x210A0, symBinAddr: 0x10003EB68, symSize: 0xD4 }
  - { offset: 0xC1A95, size: 0x8, addend: 0x0, symName: __ZN3std3env4args17h4cdbfce43acd2ca5E, symObjAddr: 0x21174, symBinAddr: 0x10003EC3C, symSize: 0x10 }
  - { offset: 0xC1AB0, size: 0x8, addend: 0x0, symName: __ZN3std3env7args_os17hae606d9acc385a69E, symObjAddr: 0x21184, symBinAddr: 0x10003EC4C, symSize: 0x1B4 }
  - { offset: 0xC1EB4, size: 0x8, addend: 0x0, symName: '__ZN75_$LT$std..env..ArgsOs$u20$as$u20$core..iter..traits..iterator..Iterator$GT$4next17he0575a9352ffdb47E', symObjAddr: 0x215EC, symBinAddr: 0x10003F0B4, symSize: 0x48 }
  - { offset: 0xC1F36, size: 0x8, addend: 0x0, symName: '__ZN75_$LT$std..env..ArgsOs$u20$as$u20$core..iter..traits..iterator..Iterator$GT$9size_hint17h1b4f1d3f8ad08f18E', symObjAddr: 0x21634, symBinAddr: 0x10003F0FC, symSize: 0x38 }
  - { offset: 0xC1FBA, size: 0x8, addend: 0x0, symName: '__ZN73_$LT$std..env..Args$u20$as$u20$core..iter..traits..iterator..Iterator$GT$4next17h3125c7f651fa4f75E', symObjAddr: 0x21338, symBinAddr: 0x10003EE00, symSize: 0xE8 }
  - { offset: 0xC21C8, size: 0x8, addend: 0x0, symName: '__ZN73_$LT$std..env..Args$u20$as$u20$core..iter..traits..iterator..Iterator$GT$9size_hint17h40d3b1a5143593fdE', symObjAddr: 0x21420, symBinAddr: 0x10003EEE8, symSize: 0x38 }
  - { offset: 0xC2271, size: 0x8, addend: 0x0, symName: '__ZN86_$LT$std..env..ArgsOs$u20$as$u20$core..iter..traits..exact_size..ExactSizeIterator$GT$3len17h553637eff7d1ee73E', symObjAddr: 0x2166C, symBinAddr: 0x10003F134, symSize: 0x2C }
  - { offset: 0xC22F0, size: 0x8, addend: 0x0, symName: '__ZN86_$LT$std..env..ArgsOs$u20$as$u20$core..iter..traits..exact_size..ExactSizeIterator$GT$8is_empty17h7bc172292e60a53cE', symObjAddr: 0x21698, symBinAddr: 0x10003F160, symSize: 0x20 }
  - { offset: 0xC2335, size: 0x8, addend: 0x0, symName: '__ZN84_$LT$std..env..Args$u20$as$u20$core..iter..traits..exact_size..ExactSizeIterator$GT$3len17h04a835de51175eddE', symObjAddr: 0x21458, symBinAddr: 0x10003EF20, symSize: 0x2C }
  - { offset: 0xC23D1, size: 0x8, addend: 0x0, symName: '__ZN84_$LT$std..env..Args$u20$as$u20$core..iter..traits..exact_size..ExactSizeIterator$GT$8is_empty17h0fbfb0006d58ef09E', symObjAddr: 0x21484, symBinAddr: 0x10003EF4C, symSize: 0x20 }
  - { offset: 0xC2441, size: 0x8, addend: 0x0, symName: '__ZN90_$LT$std..env..ArgsOs$u20$as$u20$core..iter..traits..double_ended..DoubleEndedIterator$GT$9next_back17h5ea417a27152f1deE', symObjAddr: 0x216B8, symBinAddr: 0x10003F180, symSize: 0x48 }
  - { offset: 0xC24E0, size: 0x8, addend: 0x0, symName: '__ZN88_$LT$std..env..Args$u20$as$u20$core..iter..traits..double_ended..DoubleEndedIterator$GT$9next_back17h577a51c57a085fdcE', symObjAddr: 0x214A4, symBinAddr: 0x10003EF6C, symSize: 0xE4 }
  - { offset: 0xC26CC, size: 0x8, addend: 0x0, symName: '__ZN51_$LT$std..env..Args$u20$as$u20$core..fmt..Debug$GT$3fmt17h9beb8ea08b6b2748E', symObjAddr: 0x21588, symBinAddr: 0x10003F050, symSize: 0x64 }
  - { offset: 0xC26ED, size: 0x8, addend: 0x0, symName: '__ZN53_$LT$std..env..ArgsOs$u20$as$u20$core..fmt..Debug$GT$3fmt17h1d4fe65ac08ba650E', symObjAddr: 0x21700, symBinAddr: 0x10003F1C8, symSize: 0x64 }
  - { offset: 0xC2784, size: 0x8, addend: 0x0, symName: __ZN3std2fs11OpenOptions5_open17h5b433fddd6d9feb0E, symObjAddr: 0x23144, symBinAddr: 0x100040C0C, symSize: 0xE0 }
  - { offset: 0xC2897, size: 0x8, addend: 0x0, symName: __ZN3std2fs4File8sync_all17h625791011f44a1a1E, symObjAddr: 0x22350, symBinAddr: 0x10003FE18, symSize: 0x8C }
  - { offset: 0xC2974, size: 0x8, addend: 0x0, symName: __ZN3std2fs4File7set_len17h5b160409dae607edE, symObjAddr: 0x223DC, symBinAddr: 0x10003FEA4, symSize: 0x94 }
  - { offset: 0xC299F, size: 0x8, addend: 0x0, symName: __ZN3std2fs4File7set_len17h5b160409dae607edE, symObjAddr: 0x223DC, symBinAddr: 0x10003FEA4, symSize: 0x94 }
  - { offset: 0xC29B4, size: 0x8, addend: 0x0, symName: __ZN3std2fs4File7set_len17h5b160409dae607edE, symObjAddr: 0x223DC, symBinAddr: 0x10003FEA4, symSize: 0x94 }
  - { offset: 0xC2A91, size: 0x8, addend: 0x0, symName: __ZN3std2fs4File8metadata17h93297d0f6dd46b44E, symObjAddr: 0x22470, symBinAddr: 0x10003FF38, symSize: 0xAC }
  - { offset: 0xC2B8C, size: 0x8, addend: 0x0, symName: __ZN3std2fs4File9try_clone17h49ad84d743d3434bE, symObjAddr: 0x2251C, symBinAddr: 0x10003FFE4, symSize: 0x88 }
  - { offset: 0xC2C72, size: 0x8, addend: 0x0, symName: __ZN3std2fs4File15set_permissions17h37eb426fd6b7b4c9E, symObjAddr: 0x225A4, symBinAddr: 0x10004006C, symSize: 0x90 }
  - { offset: 0xC2D3A, size: 0x8, addend: 0x0, symName: __ZN3std2fs4File9set_times17he1e922f60b0702a8E, symObjAddr: 0x22634, symBinAddr: 0x1000400FC, symSize: 0xF0 }
  - { offset: 0xC2EBA, size: 0x8, addend: 0x0, symName: __ZN3std2fs4read5inner17h7618ffe3acd12587E, symObjAddr: 0x21C84, symBinAddr: 0x10003F74C, symSize: 0x238 }
  - { offset: 0xC3371, size: 0x8, addend: 0x0, symName: __ZN3std2fs14read_to_string5inner17hfaf1258744154a0aE, symObjAddr: 0x21EBC, symBinAddr: 0x10003F984, symSize: 0x2B4 }
  - { offset: 0xC3965, size: 0x8, addend: 0x0, symName: '__ZN52_$LT$$RF$std..fs..File$u20$as$u20$std..io..Write$GT$5write17hd4d5d2b3f8b5d6cbE', symObjAddr: 0x229F8, symBinAddr: 0x1000404C0, symSize: 0x50 }
  - { offset: 0xC3A53, size: 0x8, addend: 0x0, symName: '__ZN52_$LT$$RF$std..fs..File$u20$as$u20$std..io..Write$GT$14write_vectored17hfa410ba1fb65e459E', symObjAddr: 0x22A48, symBinAddr: 0x100040510, symSize: 0x50 }
  - { offset: 0xC3B63, size: 0x8, addend: 0x0, symName: '__ZN48_$LT$std..fs..File$u20$as$u20$std..io..Write$GT$5write17h105ce892901ebb42E', symObjAddr: 0x22D1C, symBinAddr: 0x1000407E4, symSize: 0x4C }
  - { offset: 0xC3C67, size: 0x8, addend: 0x0, symName: '__ZN48_$LT$std..fs..File$u20$as$u20$std..io..Write$GT$14write_vectored17h6a1865aa495a9f07E', symObjAddr: 0x22D68, symBinAddr: 0x100040830, symSize: 0x4C }
  - { offset: 0xC3D78, size: 0x8, addend: 0x0, symName: __ZN3std2fs5write5inner17h364c96bc55a8cc87E, symObjAddr: 0x22170, symBinAddr: 0x10003FC38, symSize: 0x1E0 }
  - { offset: 0xC413E, size: 0x8, addend: 0x0, symName: '__ZN50_$LT$std..fs..File$u20$as$u20$core..fmt..Debug$GT$3fmt17h80840664e82ea3d3E', symObjAddr: 0x22724, symBinAddr: 0x1000401EC, symSize: 0x10 }
  - { offset: 0xC416D, size: 0x8, addend: 0x0, symName: '__ZN51_$LT$$RF$std..fs..File$u20$as$u20$std..io..Seek$GT$4seek17h3671b96ceb07aafdE', symObjAddr: 0x22A98, symBinAddr: 0x100040560, symSize: 0x58 }
  - { offset: 0xC4205, size: 0x8, addend: 0x0, symName: __ZN3std2fs24buffer_capacity_required17hc55c9888fc0db9c5E, symObjAddr: 0x22734, symBinAddr: 0x1000401FC, symSize: 0xC8 }
  - { offset: 0xC43DF, size: 0x8, addend: 0x0, symName: '__ZN51_$LT$$RF$std..fs..File$u20$as$u20$std..io..Read$GT$11read_to_end17h3f9c6c3698ef6fd0E', symObjAddr: 0x227FC, symBinAddr: 0x1000402C4, symSize: 0xFC }
  - { offset: 0xC457E, size: 0x8, addend: 0x0, symName: '__ZN51_$LT$$RF$std..fs..File$u20$as$u20$std..io..Read$GT$14read_to_string17h72f38cad1af5bb1eE', symObjAddr: 0x228F8, symBinAddr: 0x1000403C0, symSize: 0x100 }
  - { offset: 0xC47F4, size: 0x8, addend: 0x0, symName: '__ZN47_$LT$std..fs..File$u20$as$u20$std..io..Read$GT$4read17h44442327d078e7caE', symObjAddr: 0x22AF0, symBinAddr: 0x1000405B8, symSize: 0x4C }
  - { offset: 0xC4920, size: 0x8, addend: 0x0, symName: '__ZN47_$LT$std..fs..File$u20$as$u20$std..io..Read$GT$13read_vectored17hdd7b0124a317754cE', symObjAddr: 0x22B3C, symBinAddr: 0x100040604, symSize: 0x4C }
  - { offset: 0xC4A53, size: 0x8, addend: 0x0, symName: '__ZN47_$LT$std..fs..File$u20$as$u20$std..io..Read$GT$8read_buf17h9deb320b58426d42E', symObjAddr: 0x22B88, symBinAddr: 0x100040650, symSize: 0x78 }
  - { offset: 0xC4C59, size: 0x8, addend: 0x0, symName: '__ZN47_$LT$std..fs..File$u20$as$u20$std..io..Read$GT$11read_to_end17ha497e2e94da5112aE', symObjAddr: 0x22C00, symBinAddr: 0x1000406C8, symSize: 0xF8 }
  - { offset: 0xC4E15, size: 0x8, addend: 0x0, symName: '__ZN47_$LT$std..fs..File$u20$as$u20$std..io..Read$GT$14read_to_string17hbd8b2a065507a4fcE', symObjAddr: 0x22CF8, symBinAddr: 0x1000407C0, symSize: 0x24 }
  - { offset: 0xC4E52, size: 0x8, addend: 0x0, symName: '__ZN47_$LT$std..fs..File$u20$as$u20$std..io..Seek$GT$4seek17h084b414f22c79b49E', symObjAddr: 0x22DB4, symBinAddr: 0x10004087C, symSize: 0x54 }
  - { offset: 0xC4F0C, size: 0x8, addend: 0x0, symName: '__ZN3std2fs81_$LT$impl$u20$std..io..Read$u20$for$u20$alloc..sync..Arc$LT$std..fs..File$GT$$GT$4read17hcf660a23280b2159E', symObjAddr: 0x22E08, symBinAddr: 0x1000408D0, symSize: 0x50 }
  - { offset: 0xC5080, size: 0x8, addend: 0x0, symName: '__ZN3std2fs81_$LT$impl$u20$std..io..Read$u20$for$u20$alloc..sync..Arc$LT$std..fs..File$GT$$GT$13read_vectored17hcafa152448ff0611E', symObjAddr: 0x22E58, symBinAddr: 0x100040920, symSize: 0x50 }
  - { offset: 0xC51F4, size: 0x8, addend: 0x0, symName: '__ZN3std2fs81_$LT$impl$u20$std..io..Read$u20$for$u20$alloc..sync..Arc$LT$std..fs..File$GT$$GT$8read_buf17h92b30aaa2c2f14beE', symObjAddr: 0x22EA8, symBinAddr: 0x100040970, symSize: 0x7C }
  - { offset: 0xC5442, size: 0x8, addend: 0x0, symName: '__ZN3std2fs81_$LT$impl$u20$std..io..Read$u20$for$u20$alloc..sync..Arc$LT$std..fs..File$GT$$GT$11read_to_end17h8d8d1239d4edf152E', symObjAddr: 0x22F24, symBinAddr: 0x1000409EC, symSize: 0xFC }
  - { offset: 0xC5637, size: 0x8, addend: 0x0, symName: '__ZN3std2fs81_$LT$impl$u20$std..io..Read$u20$for$u20$alloc..sync..Arc$LT$std..fs..File$GT$$GT$14read_to_string17hccace8bcfbb3af3dE', symObjAddr: 0x23020, symBinAddr: 0x100040AE8, symSize: 0x2C }
  - { offset: 0xC569A, size: 0x8, addend: 0x0, symName: '__ZN3std2fs82_$LT$impl$u20$std..io..Write$u20$for$u20$alloc..sync..Arc$LT$std..fs..File$GT$$GT$5write17h3b64c5b5328a7bacE', symObjAddr: 0x2304C, symBinAddr: 0x100040B14, symSize: 0x50 }
  - { offset: 0xC57E6, size: 0x8, addend: 0x0, symName: '__ZN3std2fs82_$LT$impl$u20$std..io..Write$u20$for$u20$alloc..sync..Arc$LT$std..fs..File$GT$$GT$14write_vectored17hd9c343651569c05aE', symObjAddr: 0x2309C, symBinAddr: 0x100040B64, symSize: 0x50 }
  - { offset: 0xC5938, size: 0x8, addend: 0x0, symName: '__ZN3std2fs81_$LT$impl$u20$std..io..Seek$u20$for$u20$alloc..sync..Arc$LT$std..fs..File$GT$$GT$4seek17h90eb4987471af51dE', symObjAddr: 0x230EC, symBinAddr: 0x100040BB4, symSize: 0x58 }
  - { offset: 0xC5A33, size: 0x8, addend: 0x0, symName: __ZN3std2fs8Metadata8modified17h2e93bb3b5994d2abE, symObjAddr: 0x23224, symBinAddr: 0x100040CEC, symSize: 0x68 }
  - { offset: 0xC5A96, size: 0x8, addend: 0x0, symName: __ZN3std2fs8Metadata8accessed17hcb1ba49a511755d2E, symObjAddr: 0x2328C, symBinAddr: 0x100040D54, symSize: 0x68 }
  - { offset: 0xC5AF9, size: 0x8, addend: 0x0, symName: __ZN3std2fs8Metadata7created17hbdbfac4f4943a49cE, symObjAddr: 0x232F4, symBinAddr: 0x100040DBC, symSize: 0x68 }
  - { offset: 0xC5BE0, size: 0x8, addend: 0x0, symName: '__ZN54_$LT$std..fs..Metadata$u20$as$u20$core..fmt..Debug$GT$3fmt17h58c2db2b05ac476aE', symObjAddr: 0x2335C, symBinAddr: 0x100040E24, symSize: 0x268 }
  - { offset: 0xC5E40, size: 0x8, addend: 0x0, symName: '__ZN54_$LT$std..fs..FileType$u20$as$u20$core..fmt..Debug$GT$3fmt17ha7267e3720ad3696E', symObjAddr: 0x235C4, symBinAddr: 0x10004108C, symSize: 0xC4 }
  - { offset: 0xC5F4F, size: 0x8, addend: 0x0, symName: '__ZN75_$LT$std..fs..ReadDir$u20$as$u20$core..iter..traits..iterator..Iterator$GT$4next17hbf85c839e38d7b49E', symObjAddr: 0x23688, symBinAddr: 0x100041150, symSize: 0x84 }
  - { offset: 0xC5FAA, size: 0x8, addend: 0x0, symName: __ZN3std2fs8DirEntry4path17hfdb2638a43df6d5aE, symObjAddr: 0x2370C, symBinAddr: 0x1000411D4, symSize: 0x24 }
  - { offset: 0xC611A, size: 0x8, addend: 0x0, symName: __ZN3std2fs8DirEntry8metadata17h8055f227d6e629d4E, symObjAddr: 0x23730, symBinAddr: 0x1000411F8, symSize: 0x98 }
  - { offset: 0xC614B, size: 0x8, addend: 0x0, symName: __ZN3std2fs8DirEntry9file_type17hb1ea0a885ef434d6E, symObjAddr: 0x237C8, symBinAddr: 0x100041290, symSize: 0x88 }
  - { offset: 0xC6191, size: 0x8, addend: 0x0, symName: __ZN3std2fs8DirEntry9file_name17h5b674b3657b9c29eE, symObjAddr: 0x23850, symBinAddr: 0x100041318, symSize: 0x7C }
  - { offset: 0xC62F2, size: 0x8, addend: 0x0, symName: '__ZN54_$LT$std..fs..DirEntry$u20$as$u20$core..fmt..Debug$GT$3fmt17hbbe84f7236e39abfE', symObjAddr: 0x238CC, symBinAddr: 0x100041394, symSize: 0xB0 }
  - { offset: 0xC65B2, size: 0x8, addend: 0x0, symName: __ZN3std2fs8metadata17hcc376efe93319f13E, symObjAddr: 0x2397C, symBinAddr: 0x100041444, symSize: 0x178 }
  - { offset: 0xC671D, size: 0x8, addend: 0x0, symName: __ZN3std2fs10DirBuilder7_create17h6cedc620c0203a6bE, symObjAddr: 0x23AF4, symBinAddr: 0x1000415BC, symSize: 0xC8 }
  - { offset: 0xC684E, size: 0x8, addend: 0x0, symName: __ZN3std2fs10DirBuilder14create_dir_all17hea1f12fde42bf370E, symObjAddr: 0x23BBC, symBinAddr: 0x100041684, symSize: 0x560 }
  - { offset: 0xC6DE1, size: 0x8, addend: 0x0, symName: '__ZN57_$LT$std..fs..Permissions$u20$as$u20$core..fmt..Debug$GT$3fmt17h051275112914c865E', symObjAddr: 0x3A398, symBinAddr: 0x1000571AC, symSize: 0x40 }
  - { offset: 0xC6E28, size: 0x8, addend: 0x0, symName: '__ZN67_$LT$std..hash..random..RandomState$u20$as$u20$core..fmt..Debug$GT$3fmt17ha9a283c277a1c01eE', symObjAddr: 0x2411C, symBinAddr: 0x100041BE4, symSize: 0x38 }
  - { offset: 0xC6E54, size: 0x8, addend: 0x0, symName: '__ZN3std3net11socket_addr136_$LT$impl$u20$std..sys_common..FromInner$LT$libc..unix..bsd..apple..sockaddr_in$GT$$u20$for$u20$core..net..socket_addr..SocketAddrV4$GT$10from_inner17h66a7eaa960d2cf32E', symObjAddr: 0x2C000, symBinAddr: 0x10004993C, symSize: 0x24 }
  - { offset: 0xC6EA6, size: 0x8, addend: 0x0, symName: '__ZN3std3net11socket_addr130_$LT$impl$u20$std..sys_common..FromInner$LT$libc..unix..bsd..sockaddr_in6$GT$$u20$for$u20$core..net..socket_addr..SocketAddrV6$GT$10from_inner17h612a166823a086f9E', symObjAddr: 0x2C024, symBinAddr: 0x100049960, symSize: 0x34 }
  - { offset: 0xC6F0C, size: 0x8, addend: 0x0, symName: '__ZN3std3net11socket_addr136_$LT$impl$u20$std..sys_common..IntoInner$LT$libc..unix..bsd..apple..sockaddr_in$GT$$u20$for$u20$core..net..socket_addr..SocketAddrV4$GT$10into_inner17hc19e8699281ff0b2E', symObjAddr: 0x2C058, symBinAddr: 0x100049994, symSize: 0x30 }
  - { offset: 0xC6F4F, size: 0x8, addend: 0x0, symName: '__ZN3std3net11socket_addr130_$LT$impl$u20$std..sys_common..IntoInner$LT$libc..unix..bsd..sockaddr_in6$GT$$u20$for$u20$core..net..socket_addr..SocketAddrV6$GT$10into_inner17h88d77ad2b44fbb5eE', symObjAddr: 0x2C088, symBinAddr: 0x1000499C4, symSize: 0x3C }
  - { offset: 0xC6FD7, size: 0x8, addend: 0x0, symName: __ZN3std3net11socket_addr19resolve_socket_addr17hd8a46c055b744210E, symObjAddr: 0x2C0C4, symBinAddr: 0x100049A00, symSize: 0x26C }
  - { offset: 0xC7407, size: 0x8, addend: 0x0, symName: '__ZN78_$LT$$LP$$RF$str$C$u16$RP$$u20$as$u20$std..net..socket_addr..ToSocketAddrs$GT$15to_socket_addrs17h2a8147b90c7fbd7cE', symObjAddr: 0x2C330, symBinAddr: 0x100049C6C, symSize: 0x1BC }
  - { offset: 0xC7625, size: 0x8, addend: 0x0, symName: '__ZN92_$LT$$LP$alloc..string..String$C$u16$RP$$u20$as$u20$std..net..socket_addr..ToSocketAddrs$GT$15to_socket_addrs17h8f07186dd0e8e43bE', symObjAddr: 0x2C4EC, symBinAddr: 0x100049E28, symSize: 0x30 }
  - { offset: 0xC769E, size: 0x8, addend: 0x0, symName: '__ZN60_$LT$str$u20$as$u20$std..net..socket_addr..ToSocketAddrs$GT$15to_socket_addrs17hfab8fed67875a43eE', symObjAddr: 0x2C51C, symBinAddr: 0x100049E58, symSize: 0xC8 }
  - { offset: 0xC7799, size: 0x8, addend: 0x0, symName: '__ZN78_$LT$alloc..string..String$u20$as$u20$std..net..socket_addr..ToSocketAddrs$GT$15to_socket_addrs17h76590a3313d77f0fE', symObjAddr: 0x2C5E4, symBinAddr: 0x100049F20, symSize: 0x18 }
  - { offset: 0xC7818, size: 0x8, addend: 0x0, symName: __ZN3std3net3tcp9TcpStream15connect_timeout17hd79f5c0dcd0792c8E, symObjAddr: 0x2C5FC, symBinAddr: 0x100049F38, symSize: 0x438 }
  - { offset: 0xC7D8C, size: 0x8, addend: 0x0, symName: __ZN3std3net3tcp9TcpStream9peer_addr17hc2f7b5bdef01709bE, symObjAddr: 0x2CA34, symBinAddr: 0x10004A370, symSize: 0x18 }
  - { offset: 0xC7DA6, size: 0x8, addend: 0x0, symName: __ZN3std3net3tcp9TcpStream12read_timeout17h1f0b5c7d865e5b5cE, symObjAddr: 0x2CA4C, symBinAddr: 0x10004A388, symSize: 0xFC }
  - { offset: 0xC7EDA, size: 0x8, addend: 0x0, symName: __ZN3std3net3tcp9TcpStream13write_timeout17h0ba8bf4afd1e9380E, symObjAddr: 0x2CB48, symBinAddr: 0x10004A484, symSize: 0xFC }
  - { offset: 0xC800E, size: 0x8, addend: 0x0, symName: __ZN3std3net3tcp9TcpStream10set_linger17h3d62bd4159f07054E, symObjAddr: 0x2CC44, symBinAddr: 0x10004A580, symSize: 0x68 }
  - { offset: 0xC80EC, size: 0x8, addend: 0x0, symName: __ZN3std3net3tcp9TcpStream6linger17hdae1b34a098b579aE, symObjAddr: 0x2CCAC, symBinAddr: 0x10004A5E8, symSize: 0x88 }
  - { offset: 0xC81FA, size: 0x8, addend: 0x0, symName: __ZN3std3net3tcp9TcpStream11set_nodelay17hd51dae93aaf278b3E, symObjAddr: 0x2CD34, symBinAddr: 0x10004A670, symSize: 0x54 }
  - { offset: 0xC82C3, size: 0x8, addend: 0x0, symName: __ZN3std3net3tcp9TcpStream7nodelay17h6c81f1cd19f1bef4E, symObjAddr: 0x2CD88, symBinAddr: 0x10004A6C4, symSize: 0x80 }
  - { offset: 0xC83D7, size: 0x8, addend: 0x0, symName: '__ZN58_$LT$std..net..tcp..TcpStream$u20$as$u20$std..io..Read$GT$8read_buf17hbc5eb9542a213b15E', symObjAddr: 0x2CE08, symBinAddr: 0x10004A744, symSize: 0x70 }
  - { offset: 0xC857E, size: 0x8, addend: 0x0, symName: '__ZN58_$LT$std..net..tcp..TcpStream$u20$as$u20$std..io..Read$GT$13read_vectored17h2738f9c7b6c235beE', symObjAddr: 0x2CE78, symBinAddr: 0x10004A7B4, symSize: 0x4C }
  - { offset: 0xC868D, size: 0x8, addend: 0x0, symName: '__ZN59_$LT$std..net..tcp..TcpStream$u20$as$u20$std..io..Write$GT$14write_vectored17hef34a803da37b37aE', symObjAddr: 0x2CEC4, symBinAddr: 0x10004A800, symSize: 0x4C }
  - { offset: 0xC879E, size: 0x8, addend: 0x0, symName: '__ZN62_$LT$$RF$std..net..tcp..TcpStream$u20$as$u20$std..io..Read$GT$4read17hfaffceef4c4a4a45E', symObjAddr: 0x2CF10, symBinAddr: 0x10004A84C, symSize: 0x48 }
  - { offset: 0xC8868, size: 0x8, addend: 0x0, symName: '__ZN62_$LT$$RF$std..net..tcp..TcpStream$u20$as$u20$std..io..Read$GT$8read_buf17he66605057e2d1dc7E', symObjAddr: 0x2CF58, symBinAddr: 0x10004A894, symSize: 0x74 }
  - { offset: 0xC8A0F, size: 0x8, addend: 0x0, symName: '__ZN62_$LT$$RF$std..net..tcp..TcpStream$u20$as$u20$std..io..Read$GT$13read_vectored17h75210c062009333cE', symObjAddr: 0x2CFCC, symBinAddr: 0x10004A908, symSize: 0x50 }
  - { offset: 0xC8B1E, size: 0x8, addend: 0x0, symName: '__ZN63_$LT$$RF$std..net..tcp..TcpStream$u20$as$u20$std..io..Write$GT$5write17h3aed25d355398db6E', symObjAddr: 0x2D01C, symBinAddr: 0x10004A958, symSize: 0x48 }
  - { offset: 0xC8BC2, size: 0x8, addend: 0x0, symName: '__ZN61_$LT$std..net..tcp..TcpStream$u20$as$u20$core..fmt..Debug$GT$3fmt17h373e527de5b74557E', symObjAddr: 0x2D064, symBinAddr: 0x10004A9A0, symSize: 0x10 }
  - { offset: 0xC8BE3, size: 0x8, addend: 0x0, symName: __ZN3std3net3tcp11TcpListener10local_addr17h3c12f0042f9bdb0fE, symObjAddr: 0x2D074, symBinAddr: 0x10004A9B0, symSize: 0x18 }
  - { offset: 0xC8BFE, size: 0x8, addend: 0x0, symName: __ZN3std3net3tcp11TcpListener9try_clone17h0fe8e79b9b59365bE, symObjAddr: 0x2D08C, symBinAddr: 0x10004A9C8, symSize: 0x88 }
  - { offset: 0xC8CEB, size: 0x8, addend: 0x0, symName: __ZN3std3net3tcp11TcpListener6accept17ha427dd3f7d8d6bffE, symObjAddr: 0x2D114, symBinAddr: 0x10004AA50, symSize: 0x154 }
  - { offset: 0xC8EBA, size: 0x8, addend: 0x0, symName: __ZN3std3net3tcp11TcpListener7set_ttl17hafa11be0345e5b45E, symObjAddr: 0x2D268, symBinAddr: 0x10004ABA4, symSize: 0x54 }
  - { offset: 0xC8F6D, size: 0x8, addend: 0x0, symName: __ZN3std3net3tcp11TcpListener3ttl17h3b08d14dbac16d76E, symObjAddr: 0x2D2BC, symBinAddr: 0x10004ABF8, symSize: 0x78 }
  - { offset: 0xC9065, size: 0x8, addend: 0x0, symName: __ZN3std3net3tcp11TcpListener11set_only_v617ha43ddc5e65033e69E, symObjAddr: 0x2D334, symBinAddr: 0x10004AC70, symSize: 0x54 }
  - { offset: 0xC9118, size: 0x8, addend: 0x0, symName: __ZN3std3net3tcp11TcpListener7only_v617h7f566d3965c6b5f2E, symObjAddr: 0x2D388, symBinAddr: 0x10004ACC4, symSize: 0x80 }
  - { offset: 0xC9216, size: 0x8, addend: 0x0, symName: '__ZN82_$LT$std..net..tcp..Incoming$u20$as$u20$core..iter..traits..iterator..Iterator$GT$4next17h0a7ad9d551598521E', symObjAddr: 0x2D408, symBinAddr: 0x10004AD44, symSize: 0x40 }
  - { offset: 0xC924D, size: 0x8, addend: 0x0, symName: '__ZN86_$LT$std..net..tcp..IntoIncoming$u20$as$u20$core..iter..traits..iterator..Iterator$GT$4next17ha0687662e7185efeE', symObjAddr: 0x2D448, symBinAddr: 0x10004AD84, symSize: 0x3C }
  - { offset: 0xC9284, size: 0x8, addend: 0x0, symName: '__ZN63_$LT$std..net..tcp..TcpListener$u20$as$u20$core..fmt..Debug$GT$3fmt17h934097e6603a468dE', symObjAddr: 0x2D484, symBinAddr: 0x10004ADC0, symSize: 0x10 }
  - { offset: 0xC92AB, size: 0x8, addend: 0x0, symName: __ZN3std3net3udp9UdpSocket9recv_from17hb8427bf5f8a18cfdE, symObjAddr: 0x2D494, symBinAddr: 0x10004ADD0, symSize: 0x24 }
  - { offset: 0xC92F0, size: 0x8, addend: 0x0, symName: __ZN3std3net3udp9UdpSocket9peek_from17he6f99fbb5b82ddf3E, symObjAddr: 0x2D4B8, symBinAddr: 0x10004ADF4, symSize: 0x24 }
  - { offset: 0xC9335, size: 0x8, addend: 0x0, symName: __ZN3std3net3udp9UdpSocket9peer_addr17ha59f7391b325c4c8E, symObjAddr: 0x2D4DC, symBinAddr: 0x10004AE18, symSize: 0x144 }
  - { offset: 0xC94D7, size: 0x8, addend: 0x0, symName: __ZN3std3net3udp9UdpSocket13set_broadcast17he8038bfcd901fed7E, symObjAddr: 0x2D620, symBinAddr: 0x10004AF5C, symSize: 0x54 }
  - { offset: 0xC958A, size: 0x8, addend: 0x0, symName: __ZN3std3net3udp9UdpSocket9broadcast17hca843a52bea0c15aE, symObjAddr: 0x2D674, symBinAddr: 0x10004AFB0, symSize: 0x80 }
  - { offset: 0xC9682, size: 0x8, addend: 0x0, symName: __ZN3std3net3udp9UdpSocket21set_multicast_loop_v417h26684a7c48405152E, symObjAddr: 0x2D6F4, symBinAddr: 0x10004B030, symSize: 0x54 }
  - { offset: 0xC9735, size: 0x8, addend: 0x0, symName: __ZN3std3net3udp9UdpSocket17multicast_loop_v417ha19419aa452b2a28E, symObjAddr: 0x2D748, symBinAddr: 0x10004B084, symSize: 0x80 }
  - { offset: 0xC982D, size: 0x8, addend: 0x0, symName: __ZN3std3net3udp9UdpSocket20set_multicast_ttl_v417h3679250db6a98499E, symObjAddr: 0x2D7C8, symBinAddr: 0x10004B104, symSize: 0x54 }
  - { offset: 0xC98E0, size: 0x8, addend: 0x0, symName: __ZN3std3net3udp9UdpSocket16multicast_ttl_v417h1f597876b34eec69E, symObjAddr: 0x2D81C, symBinAddr: 0x10004B158, symSize: 0x78 }
  - { offset: 0xC99D8, size: 0x8, addend: 0x0, symName: __ZN3std3net3udp9UdpSocket21set_multicast_loop_v617h6eabe748bd7fc658E, symObjAddr: 0x2D894, symBinAddr: 0x10004B1D0, symSize: 0x54 }
  - { offset: 0xC9A8B, size: 0x8, addend: 0x0, symName: __ZN3std3net3udp9UdpSocket17multicast_loop_v617hd2f1a03d712ab619E, symObjAddr: 0x2D8E8, symBinAddr: 0x10004B224, symSize: 0x80 }
  - { offset: 0xC9B83, size: 0x8, addend: 0x0, symName: __ZN3std3net3udp9UdpSocket17join_multicast_v417h660653acf433fd06E, symObjAddr: 0x2D968, symBinAddr: 0x10004B2A4, symSize: 0x60 }
  - { offset: 0xC9C36, size: 0x8, addend: 0x0, symName: __ZN3std3net3udp9UdpSocket17join_multicast_v617h65994423b3ba1d19E, symObjAddr: 0x2D9C8, symBinAddr: 0x10004B304, symSize: 0x5C }
  - { offset: 0xC9CFE, size: 0x8, addend: 0x0, symName: __ZN3std3net3udp9UdpSocket18leave_multicast_v417h84b243df6de0d8d4E, symObjAddr: 0x2DA24, symBinAddr: 0x10004B360, symSize: 0x60 }
  - { offset: 0xC9DB1, size: 0x8, addend: 0x0, symName: __ZN3std3net3udp9UdpSocket18leave_multicast_v617h3ae4bae7a3f37a57E, symObjAddr: 0x2DA84, symBinAddr: 0x10004B3C0, symSize: 0x5C }
  - { offset: 0xC9E79, size: 0x8, addend: 0x0, symName: __ZN3std3net3udp9UdpSocket4send17ha0c2579739859ab3E, symObjAddr: 0x2DAE0, symBinAddr: 0x10004B41C, symSize: 0x44 }
  - { offset: 0xC9F1D, size: 0x8, addend: 0x0, symName: '__ZN61_$LT$std..net..udp..UdpSocket$u20$as$u20$core..fmt..Debug$GT$3fmt17h2682fba28048ebffE', symObjAddr: 0x2DB24, symBinAddr: 0x10004B460, symSize: 0x10 }
  - { offset: 0xC9F66, size: 0x8, addend: 0x0, symName: __ZN3std5alloc20set_alloc_error_hook17h039787520bb16ae3E, symObjAddr: 0x379D0, symBinAddr: 0x10005486C, symSize: 0x1C }
  - { offset: 0xC9FAD, size: 0x8, addend: 0x0, symName: __ZN3std5alloc21take_alloc_error_hook17haf153f807edd4f8fE, symObjAddr: 0x379EC, symBinAddr: 0x100054888, symSize: 0x2C }
  - { offset: 0xC9FF4, size: 0x8, addend: 0x0, symName: __ZN3std5alloc24default_alloc_error_hook17h2ef9c4c13b7e0772E, symObjAddr: 0x37A18, symBinAddr: 0x1000548B4, symSize: 0x13C }
  - { offset: 0xCA0F8, size: 0x8, addend: 0x0, symName: ___rdl_alloc, symObjAddr: 0x37B54, symBinAddr: 0x1000549F0, symSize: 0x6C }
  - { offset: 0xCA187, size: 0x8, addend: 0x0, symName: ___rdl_dealloc, symObjAddr: 0x37BC0, symBinAddr: 0x100054A5C, symSize: 0x10 }
  - { offset: 0xCA1B4, size: 0x8, addend: 0x0, symName: ___rdl_realloc, symObjAddr: 0x37BD0, symBinAddr: 0x100054A6C, symSize: 0xB0 }
  - { offset: 0xCA2C5, size: 0x8, addend: 0x0, symName: ___rdl_alloc_zeroed, symObjAddr: 0x37C80, symBinAddr: 0x100054B1C, symSize: 0x90 }
  - { offset: 0xCA376, size: 0x8, addend: 0x0, symName: __ZN3std5alloc8rust_oom17hc11e3a0f786c8284E, symObjAddr: 0x45FB0, symBinAddr: 0x100062580, symSize: 0x2C }
  - { offset: 0xCA3C2, size: 0x8, addend: 0x0, symName: ___rg_oom, symObjAddr: 0x45FDC, symBinAddr: 0x1000625AC, symSize: 0x18 }
  - { offset: 0xCA48D, size: 0x8, addend: 0x0, symName: '__ZN9addr2line8function17Function$LT$R$GT$14parse_children17h220ea2c50df7bd82E', symObjAddr: 0x1CA70, symBinAddr: 0x10003A5B0, symSize: 0x104C }
  - { offset: 0xCB903, size: 0x8, addend: 0x0, symName: __ZN9addr2line8function10name_entry17ha2df2840ff232bc1E, symObjAddr: 0x1C6E8, symBinAddr: 0x10003A228, symSize: 0x388 }
  - { offset: 0xCBD79, size: 0x8, addend: 0x0, symName: __ZN9addr2line8function9name_attr17hde376d1924163bfaE, symObjAddr: 0x1DABC, symBinAddr: 0x10003B5FC, symSize: 0x190 }
  - { offset: 0xCBF03, size: 0x8, addend: 0x0, symName: __ZN9addr2line11render_file17haa57fc74de4b9a89E, symObjAddr: 0x18AE4, symBinAddr: 0x100036624, symSize: 0x4BC }
  - { offset: 0xCC70F, size: 0x8, addend: 0x0, symName: '__ZN9addr2line16Context$LT$R$GT$9find_unit17h38763b227ec4031fE', symObjAddr: 0x18FA0, symBinAddr: 0x100036AE0, symSize: 0x120 }
  - { offset: 0xCC941, size: 0x8, addend: 0x0, symName: '__ZN9addr2line16ResUnit$LT$R$GT$25find_function_or_location17hf3ff2bf772c4b99eE', symObjAddr: 0x190C0, symBinAddr: 0x100036C00, symSize: 0x3BC }
  - { offset: 0xCCD65, size: 0x8, addend: 0x0, symName: '__ZN9addr2line16ResUnit$LT$R$GT$25find_function_or_location28_$u7b$$u7b$closure$u7d$$u7d$17h01649cc651b31670E', symObjAddr: 0x1947C, symBinAddr: 0x100036FBC, symSize: 0x1650 }
  - { offset: 0xCF668, size: 0x8, addend: 0x0, symName: '__ZN9addr2line18FrameIter$LT$R$GT$4next17h4e8a4a31ff76263bE', symObjAddr: 0x1AACC, symBinAddr: 0x10003860C, symSize: 0x2FC }
  - { offset: 0xCFAEF, size: 0x8, addend: 0x0, symName: '__ZN9addr2line30LoopingLookup$LT$T$C$L$C$F$GT$10new_lookup17h93d10eee21475ad8E', symObjAddr: 0x1ADC8, symBinAddr: 0x100038908, symSize: 0x420 }
  - { offset: 0xCFF54, size: 0x8, addend: 0x0, symName: __ZN9addr2line5Lines5parse17h9be48938c658c4feE, symObjAddr: 0x1B1E8, symBinAddr: 0x100038D28, symSize: 0x1500 }
  - { offset: 0xD2821, size: 0x8, addend: 0x0, symName: __ZN5gimli4read6reader6Reader11read_offset17heed780efce5da879E, symObjAddr: 0x16924, symBinAddr: 0x100034464, symSize: 0xBC }
  - { offset: 0xD2A64, size: 0x8, addend: 0x0, symName: __ZN5gimli4read6reader6Reader12read_sleb12817hf1925a1b94c824aeE, symObjAddr: 0x169E0, symBinAddr: 0x100034520, symSize: 0x21C }
  - { offset: 0xD2B53, size: 0x8, addend: 0x0, symName: __ZN5gimli4read6reader6Reader12read_uleb12817ha4d560dac6e4925fE, symObjAddr: 0x16BFC, symBinAddr: 0x10003473C, symSize: 0xB0 }
  - { offset: 0xD2C08, size: 0x8, addend: 0x0, symName: __ZN5gimli4read6reader6Reader17read_sized_offset17h101704c4ec032897E, symObjAddr: 0x16CAC, symBinAddr: 0x1000347EC, symSize: 0xEC }
  - { offset: 0xD3041, size: 0x8, addend: 0x0, symName: '__ZN5gimli4read4unit32AttributeValue$LT$R$C$Offset$GT$11udata_value17h8b3e92b296d17797E', symObjAddr: 0x13E84, symBinAddr: 0x1000319C4, symSize: 0x90 }
  - { offset: 0xD309C, size: 0x8, addend: 0x0, symName: __ZN5gimli4read4unit15parse_attribute17h2ab6555eb38a7011E, symObjAddr: 0x12168, symBinAddr: 0x10002FCA8, symSize: 0xF68 }
  - { offset: 0xD5CB5, size: 0x8, addend: 0x0, symName: __ZN5gimli4read4unit15skip_attributes17h3f63fe8baa7dac61E, symObjAddr: 0x130D0, symBinAddr: 0x100030C10, symSize: 0x520 }
  - { offset: 0xD66BE, size: 0x8, addend: 0x0, symName: '__ZN5gimli4read4unit18Attribute$LT$R$GT$5value17h893ac6928aa3e721E', symObjAddr: 0x135F0, symBinAddr: 0x100031130, symSize: 0x5DC }
  - { offset: 0xD6C2A, size: 0x8, addend: 0x0, symName: '__ZN5gimli4read4unit22EntriesCursor$LT$R$GT$10next_entry17h8ee089b3765e6a57E', symObjAddr: 0x13BCC, symBinAddr: 0x10003170C, symSize: 0x2B8 }
  - { offset: 0xD7207, size: 0x8, addend: 0x0, symName: '__ZN5gimli4read4unit33DebugInfoUnitHeadersIter$LT$R$GT$4next17h5c8b41056d5c32caE', symObjAddr: 0x13F14, symBinAddr: 0x100031A54, symSize: 0x4D4 }
  - { offset: 0xD830C, size: 0x8, addend: 0x0, symName: '__ZN90_$LT$gimli..read..unit..AttributeValue$LT$R$C$Offset$GT$$u20$as$u20$core..clone..Clone$GT$5clone17hdc73a94a2617a340E', symObjAddr: 0x185F4, symBinAddr: 0x100036134, symSize: 0x68 }
  - { offset: 0xD8448, size: 0x8, addend: 0x0, symName: __ZN5gimli4read4line13parse_file_v517h9c9db4cde2d03726E, symObjAddr: 0x11040, symBinAddr: 0x10002EB80, symSize: 0x278 }
  - { offset: 0xD85BF, size: 0x8, addend: 0x0, symName: __ZN5gimli4read4line15FileEntryFormat5parse17h5b46c62219c55deeE, symObjAddr: 0x112B8, symBinAddr: 0x10002EDF8, symSize: 0x350 }
  - { offset: 0xD8DA7, size: 0x8, addend: 0x0, symName: __ZN5gimli4read4line15parse_attribute17he832bb9e38ad6ff2E, symObjAddr: 0x11608, symBinAddr: 0x10002F148, symSize: 0x868 }
  - { offset: 0xDA4E8, size: 0x8, addend: 0x0, symName: __ZN5gimli4read4line18parse_directory_v517h19d13da7c5b0af38E, symObjAddr: 0x11E70, symBinAddr: 0x10002F9B0, symSize: 0xE8 }
  - { offset: 0xDA578, size: 0x8, addend: 0x0, symName: '__ZN5gimli4read4line27FileEntry$LT$R$C$Offset$GT$5parse17h76a234d7f6af296bE', symObjAddr: 0x11F58, symBinAddr: 0x10002FA98, symSize: 0x210 }
  - { offset: 0xDA861, size: 0x8, addend: 0x0, symName: '__ZN93_$LT$gimli..read..line..LineProgramHeader$LT$R$C$Offset$GT$$u20$as$u20$core..clone..Clone$GT$5clone17haac8f886907807d9E', symObjAddr: 0x1865C, symBinAddr: 0x10003619C, symSize: 0x3D0 }
  - { offset: 0xDB39D, size: 0x8, addend: 0x0, symName: '__ZN5gimli4read5dwarf14Dwarf$LT$R$GT$11attr_string17he84cc0d79413b6daE', symObjAddr: 0x16058, symBinAddr: 0x100033B98, symSize: 0x1E8 }
  - { offset: 0xDBBA9, size: 0x8, addend: 0x0, symName: '__ZN5gimli4read5dwarf13Unit$LT$R$GT$3new17ha066c9173daf3590E', symObjAddr: 0x143E8, symBinAddr: 0x100031F28, symSize: 0x1C70 }
  - { offset: 0xDF4BC, size: 0x8, addend: 0x0, symName: '__ZN5gimli4read5index18UnitIndex$LT$R$GT$5parse17h0fb73c926b3dbc98E', symObjAddr: 0x16240, symBinAddr: 0x100033D80, symSize: 0x6E4 }
  - { offset: 0xDFA90, size: 0x8, addend: 0x0, symName: '__ZN5gimli4read7aranges30ArangeHeader$LT$R$C$Offset$GT$5parse17h60f1cf5d1ba9d40eE', symObjAddr: 0x16D98, symBinAddr: 0x1000348D8, symSize: 0x29C }
  - { offset: 0xE02C0, size: 0x8, addend: 0x0, symName: '__ZN5gimli4read8rnglists20RngListIter$LT$R$GT$4next17hbeb62c469c7f88a1E', symObjAddr: 0x17034, symBinAddr: 0x100034B74, symSize: 0xC58 }
  - { offset: 0xE307A, size: 0x8, addend: 0x0, symName: __ZN6object4read7archive13ArchiveMember5parse17h798877a48d8a3207E, symObjAddr: 0x181B8, symBinAddr: 0x100035CF8, symSize: 0x2E0 }
  - { offset: 0xE35FB, size: 0x8, addend: 0x0, symName: __ZN6object4read7archive23parse_bsd_extended_name17h9f180fcb152e4281E, symObjAddr: 0x18498, symBinAddr: 0x100035FD8, symSize: 0xB8 }
  - { offset: 0xE3D3A, size: 0x8, addend: 0x0, symName: '__ZN4core3ptr49drop_in_place$LT$panic_unwind..imp..Exception$GT$17hac7098533203d5b5E', symObjAddr: 0x0, symBinAddr: 0x100068270, symSize: 0x78 }
  - { offset: 0xE3D60, size: 0x8, addend: 0x0, symName: '__ZN4core3ptr49drop_in_place$LT$panic_unwind..imp..Exception$GT$17hac7098533203d5b5E', symObjAddr: 0x0, symBinAddr: 0x100068270, symSize: 0x78 }
  - { offset: 0xE3E67, size: 0x8, addend: 0x0, symName: '__ZN4core3ptr74drop_in_place$LT$alloc..boxed..Box$LT$panic_unwind..imp..Exception$GT$$GT$17h284fe7ab68b6bb79E', symObjAddr: 0x78, symBinAddr: 0x1000682E8, symSize: 0x8C }
  - { offset: 0xE4164, size: 0x8, addend: 0x0, symName: __ZN12panic_unwind3imp5panic17exception_cleanup17h53ae6696362902e2E, symObjAddr: 0x214, symBinAddr: 0x100068484, symSize: 0x18 }
  - { offset: 0xE4180, size: 0x8, addend: 0x0, symName: ___rust_panic_cleanup, symObjAddr: 0x104, symBinAddr: 0x100068374, symSize: 0x68 }
  - { offset: 0xE4222, size: 0x8, addend: 0x0, symName: ___rust_start_panic, symObjAddr: 0x16C, symBinAddr: 0x1000683DC, symSize: 0xA8 }
  - { offset: 0xE42DC, size: 0x8, addend: 0x0, symName: '__ZN42_$LT$$RF$T$u20$as$u20$core..fmt..Debug$GT$3fmt17h619ca383238c3d52E', symObjAddr: 0x0, symBinAddr: 0x10006BD9C, symSize: 0x30 }
  - { offset: 0xE4326, size: 0x8, addend: 0x0, symName: '__ZN42_$LT$$RF$T$u20$as$u20$core..fmt..Debug$GT$3fmt17h619ca383238c3d52E', symObjAddr: 0x0, symBinAddr: 0x10006BD9C, symSize: 0x30 }
  - { offset: 0xE4395, size: 0x8, addend: 0x0, symName: __ZN4core9panicking13assert_failed17h317029a656be0f83E, symObjAddr: 0x30, symBinAddr: 0x1000A66C4, symSize: 0x38 }
  - { offset: 0xE4A85, size: 0x8, addend: 0x0, symName: __ZN6memchr6memchr8fallback6memchr17hdb94303cca285802E, symObjAddr: 0x68, symBinAddr: 0x10006BDCC, symSize: 0x140 }
  - { offset: 0xE4AA2, size: 0x8, addend: 0x0, symName: __ZN6memchr6memchr8fallback6memchr17hdb94303cca285802E, symObjAddr: 0x68, symBinAddr: 0x10006BDCC, symSize: 0x140 }
  - { offset: 0xE4BE3, size: 0x8, addend: 0x0, symName: __ZN6memchr6memchr8fallback7memchr217h8f3ad9eb4cf06005E, symObjAddr: 0x1A8, symBinAddr: 0x10006BF0C, symSize: 0x14C }
  - { offset: 0xE4C00, size: 0x8, addend: 0x0, symName: __ZN6memchr6memchr8fallback7memchr217h8f3ad9eb4cf06005E, symObjAddr: 0x1A8, symBinAddr: 0x10006BF0C, symSize: 0x14C }
  - { offset: 0xE4DCD, size: 0x8, addend: 0x0, symName: __ZN6memchr6memchr8fallback7memchr317hd261aa840ae71863E, symObjAddr: 0x2F4, symBinAddr: 0x10006C058, symSize: 0x184 }
  - { offset: 0xE4DEA, size: 0x8, addend: 0x0, symName: __ZN6memchr6memchr8fallback7memchr317hd261aa840ae71863E, symObjAddr: 0x2F4, symBinAddr: 0x10006C058, symSize: 0x184 }
  - { offset: 0xE4FF6, size: 0x8, addend: 0x0, symName: __ZN6memchr6memchr8fallback7memrchr17h205212d36ac7df2aE, symObjAddr: 0x478, symBinAddr: 0x10006C1DC, symSize: 0x128 }
  - { offset: 0xE500D, size: 0x8, addend: 0x0, symName: __ZN6memchr6memchr8fallback7memrchr17h205212d36ac7df2aE, symObjAddr: 0x478, symBinAddr: 0x10006C1DC, symSize: 0x128 }
  - { offset: 0xE50FC, size: 0x8, addend: 0x0, symName: __ZN6memchr6memchr8fallback8memrchr217hadd5306998957dadE, symObjAddr: 0x5A0, symBinAddr: 0x10006C304, symSize: 0x140 }
  - { offset: 0xE5119, size: 0x8, addend: 0x0, symName: __ZN6memchr6memchr8fallback8memrchr217hadd5306998957dadE, symObjAddr: 0x5A0, symBinAddr: 0x10006C304, symSize: 0x140 }
  - { offset: 0xE529C, size: 0x8, addend: 0x0, symName: __ZN6memchr6memchr8fallback8memrchr317he3de82caae6791f4E, symObjAddr: 0x6E0, symBinAddr: 0x10006C444, symSize: 0x178 }
  - { offset: 0xE52B9, size: 0x8, addend: 0x0, symName: __ZN6memchr6memchr8fallback8memrchr317he3de82caae6791f4E, symObjAddr: 0x6E0, symBinAddr: 0x10006C444, symSize: 0x178 }
  - { offset: 0xE5599, size: 0x8, addend: 0x0, symName: __ZN6memchr6memmem9prefilter8fallback4find17hdcd9b5f78a4bc4d4E, symObjAddr: 0x858, symBinAddr: 0x10006C5BC, symSize: 0x154 }
  - { offset: 0xE5720, size: 0x8, addend: 0x0, symName: '__ZN75_$LT$memchr..memmem..prefilter..PrefilterFn$u20$as$u20$core..fmt..Debug$GT$3fmt17hf3962e83169bc4b8E', symObjAddr: 0x9AC, symBinAddr: 0x10006C710, symSize: 0x20 }
  - { offset: 0xE589E, size: 0x8, addend: 0x0, symName: __ZN6memchr6memmem9rabinkarp4find17he49fdf4ff4eaa970E, symObjAddr: 0x9CC, symBinAddr: 0x10006C730, symSize: 0x15C }
  - { offset: 0xE5AB2, size: 0x8, addend: 0x0, symName: __ZN6memchr6memmem9rabinkarp5rfind17h34a3c94c2ea7e4bfE, symObjAddr: 0xB28, symBinAddr: 0x10006C88C, symSize: 0x15C }
  - { offset: 0xE5C70, size: 0x8, addend: 0x0, symName: __ZN6memchr6memmem9rabinkarp10rfind_with17h796b56fbf3b55520E, symObjAddr: 0xC84, symBinAddr: 0x10006C9E8, symSize: 0xE0 }
  - { offset: 0xE5D50, size: 0x8, addend: 0x0, symName: __ZN6memchr6memmem9rabinkarp9is_prefix17hbcf8796218ca2797E, symObjAddr: 0xD64, symBinAddr: 0x1000A66FC, symSize: 0xE0 }
  - { offset: 0xE5E2B, size: 0x8, addend: 0x0, symName: __ZN6memchr6memmem9rabinkarp9is_suffix17hf4d06bb7c0222d69E, symObjAddr: 0xE44, symBinAddr: 0x1000A67DC, symSize: 0xDC }
  - { offset: 0xE60A1, size: 0x8, addend: 0x0, symName: __ZN6memchr6memmem8Searcher3new17h1740869377719f26E, symObjAddr: 0x1798, symBinAddr: 0x10006D340, symSize: 0x7C8 }
  - { offset: 0xE64AE, size: 0x8, addend: 0x0, symName: __ZN6memchr6memmem8Searcher7find_tw17h21e5666ff532dca9E, symObjAddr: 0x1F60, symBinAddr: 0x10006DB08, symSize: 0x754 }
  - { offset: 0xE682E, size: 0x8, addend: 0x0, symName: __ZN6memchr6memmem6Finder4find17hd1ddec10eb7bdb0dE, symObjAddr: 0x163C, symBinAddr: 0x10006D1E4, symSize: 0x15C }
  - { offset: 0xE6A3F, size: 0x8, addend: 0x0, symName: '__ZN83_$LT$memchr..memmem..FindIter$u20$as$u20$core..iter..traits..iterator..Iterator$GT$4next17h3d18171527da9d6dE', symObjAddr: 0xF20, symBinAddr: 0x10006CAC8, symSize: 0x19C }
  - { offset: 0xE6D02, size: 0x8, addend: 0x0, symName: __ZN6memchr6memmem11SearcherRev3new17hc37644a4a31c3b71E, symObjAddr: 0x26B4, symBinAddr: 0x10006E25C, symSize: 0x5D8 }
  - { offset: 0xE7101, size: 0x8, addend: 0x0, symName: '__ZN86_$LT$memchr..memmem..FindRevIter$u20$as$u20$core..iter..traits..iterator..Iterator$GT$4next17h40617f3bc6e27f09E', symObjAddr: 0x10BC, symBinAddr: 0x10006CC64, symSize: 0x580 }
  - { offset: 0xE7461, size: 0x8, addend: 0x0, symName: '__ZN42_$LT$$RF$T$u20$as$u20$core..fmt..Debug$GT$3fmt17hf4c39b56e89c6e37E', symObjAddr: 0x0, symBinAddr: 0x1000845A8, symSize: 0x1C }
  - { offset: 0xE747E, size: 0x8, addend: 0x0, symName: '__ZN42_$LT$$RF$T$u20$as$u20$core..fmt..Debug$GT$3fmt17hf4c39b56e89c6e37E', symObjAddr: 0x0, symBinAddr: 0x1000845A8, symSize: 0x1C }
  - { offset: 0xE74B8, size: 0x8, addend: 0x0, symName: __ZN4core3fmt5Write9write_fmt17hc54313ca1587a269E, symObjAddr: 0x1C, symBinAddr: 0x1000845C4, symSize: 0x1C }
  - { offset: 0xE74FA, size: 0x8, addend: 0x0, symName: '__ZN53_$LT$core..fmt..Error$u20$as$u20$core..fmt..Debug$GT$3fmt17hf96e4e055b67d05cE', symObjAddr: 0xDC, symBinAddr: 0x100084684, symSize: 0x20 }
  - { offset: 0xE7611, size: 0x8, addend: 0x0, symName: '__ZN4core3ptr205drop_in_place$LT$$LT$alloc..boxed..Box$LT$dyn$u20$core..error..Error$u2b$core..marker..Sync$u2b$core..marker..Send$GT$$u20$as$u20$core..convert..From$LT$alloc..string..String$GT$$GT$..from..StringError$GT$17hf9a961b997e96efeE', symObjAddr: 0x38, symBinAddr: 0x1000845E0, symSize: 0x28 }
  - { offset: 0xE76A6, size: 0x8, addend: 0x0, symName: '__ZN4core3ptr42drop_in_place$LT$alloc..string..String$GT$17hd4fc9c5b74fce5c1E', symObjAddr: 0x60, symBinAddr: 0x100084608, symSize: 0x28 }
  - { offset: 0xE790C, size: 0x8, addend: 0x0, symName: __ZN4core5error5Error5cause17h63617229cb8de217E, symObjAddr: 0x88, symBinAddr: 0x100084630, symSize: 0x14 }
  - { offset: 0xE7926, size: 0x8, addend: 0x0, symName: __ZN4core5error5Error7provide17h5fcf30f5f1ad8238E, symObjAddr: 0x9C, symBinAddr: 0x100084644, symSize: 0x10 }
  - { offset: 0xE7940, size: 0x8, addend: 0x0, symName: __ZN4core5error5Error7type_id17h837baa7fdb709cb4E, symObjAddr: 0xAC, symBinAddr: 0x100084654, symSize: 0x30 }
  - { offset: 0xE796B, size: 0x8, addend: 0x0, symName: '__ZN69_$LT$core..alloc..layout..LayoutError$u20$as$u20$core..fmt..Debug$GT$3fmt17hf73ed6f6e82d6982E', symObjAddr: 0xFC, symBinAddr: 0x1000846A4, symSize: 0x20 }
  - { offset: 0xE80B6, size: 0x8, addend: 0x0, symName: '__ZN5alloc3ffi5c_str40_$LT$impl$u20$core..ffi..c_str..CStr$GT$15to_string_lossy17hd66fca0a98fee089E', symObjAddr: 0x17C8, symBinAddr: 0x100085CA8, symSize: 0x14 }
  - { offset: 0xE80E7, size: 0x8, addend: 0x0, symName: '__ZN5alloc3ffi5c_str40_$LT$impl$u20$core..ffi..c_str..CStr$GT$13into_c_string17hbfa5e491c2c383ecE', symObjAddr: 0x17DC, symBinAddr: 0x100085CBC, symSize: 0x10 }
  - { offset: 0xE88D6, size: 0x8, addend: 0x0, symName: '__ZN5alloc7raw_vec19RawVec$LT$T$C$A$GT$8grow_one17hb043c760701a0b39E', symObjAddr: 0x1F0, symBinAddr: 0x1000846FC, symSize: 0x9C }
  - { offset: 0xE8C57, size: 0x8, addend: 0x0, symName: __ZN5alloc7raw_vec17capacity_overflow17h88d6b8d70532516fE, symObjAddr: 0x11C, symBinAddr: 0x1000846C4, symSize: 0x38 }
  - { offset: 0xE8C90, size: 0x8, addend: 0x0, symName: '__ZN5alloc7raw_vec19RawVec$LT$T$C$A$GT$7reserve21do_reserve_and_handle17h6948ec2e7a092fa1E', symObjAddr: 0x154, symBinAddr: 0x1000A6994, symSize: 0x9C }
  - { offset: 0xE8DA8, size: 0x8, addend: 0x0, symName: __ZN5alloc7raw_vec11finish_grow17h623a7b5ae4246b51E, symObjAddr: 0x28C, symBinAddr: 0x100084798, symSize: 0xA0 }
  - { offset: 0xE8E17, size: 0x8, addend: 0x0, symName: __ZN5alloc7raw_vec12handle_error17h3874354ba7b66dccE, symObjAddr: 0x32C, symBinAddr: 0x1000A6A30, symSize: 0x14 }
  - { offset: 0xE8EF9, size: 0x8, addend: 0x0, symName: __ZN5alloc5alloc18handle_alloc_error8ct_error17heb07daaada367b0fE, symObjAddr: 0x358, symBinAddr: 0x100084838, symSize: 0x38 }
  - { offset: 0xE8F2A, size: 0x8, addend: 0x0, symName: __ZN5alloc5alloc18handle_alloc_error17h70dbcbec287e941dE, symObjAddr: 0x340, symBinAddr: 0x1000A6A44, symSize: 0x18 }
  - { offset: 0xE8F60, size: 0x8, addend: 0x0, symName: ___rdl_oom, symObjAddr: 0x390, symBinAddr: 0x100084870, symSize: 0xA4 }
  - { offset: 0xE9005, size: 0x8, addend: 0x0, symName: '__ZN88_$LT$alloc..collections..btree..map..UnorderedKeyError$u20$as$u20$core..fmt..Display$GT$3fmt17h7a728970a6fe0087E', symObjAddr: 0xCC4, symBinAddr: 0x1000851A4, symSize: 0x24 }
  - { offset: 0xE9047, size: 0x8, addend: 0x0, symName: '__ZN93_$LT$alloc..collections..btree..mem..replace..PanicGuard$u20$as$u20$core..ops..drop..Drop$GT$4drop17hcfc98b49cbec313cE', symObjAddr: 0xCE8, symBinAddr: 0x1000851C8, symSize: 0xC }
  - { offset: 0xE906A, size: 0x8, addend: 0x0, symName: '__ZN74_$LT$alloc..collections..TryReserveError$u20$as$u20$core..fmt..Display$GT$3fmt17h5ec6eae8cdfb9c33E', symObjAddr: 0xCF4, symBinAddr: 0x1000851D4, symSize: 0x74 }
  - { offset: 0xE90E9, size: 0x8, addend: 0x0, symName: '__ZN67_$LT$alloc..boxed..Box$LT$str$GT$$u20$as$u20$core..clone..Clone$GT$5clone17h544659914c9f6ee5E', symObjAddr: 0x434, symBinAddr: 0x100084914, symSize: 0x7C }
  - { offset: 0xE91CA, size: 0x8, addend: 0x0, symName: '__ZN223_$LT$$LT$alloc..boxed..Box$LT$dyn$u20$core..error..Error$u2b$core..marker..Sync$u2b$core..marker..Send$GT$$u20$as$u20$core..convert..From$LT$alloc..string..String$GT$$GT$..from..StringError$u20$as$u20$core..error..Error$GT$11description17hb8914d09ec29db35E', symObjAddr: 0x4B0, symBinAddr: 0x100084990, symSize: 0x18 }
  - { offset: 0xE9243, size: 0x8, addend: 0x0, symName: '__ZN223_$LT$$LT$alloc..boxed..Box$LT$dyn$u20$core..error..Error$u2b$core..marker..Sync$u2b$core..marker..Send$GT$$u20$as$u20$core..convert..From$LT$alloc..string..String$GT$$GT$..from..StringError$u20$as$u20$core..fmt..Display$GT$3fmt17h45280c6cc05da4eaE', symObjAddr: 0x4C8, symBinAddr: 0x1000849A8, symSize: 0x1C }
  - { offset: 0xE92D2, size: 0x8, addend: 0x0, symName: '__ZN221_$LT$$LT$alloc..boxed..Box$LT$dyn$u20$core..error..Error$u2b$core..marker..Sync$u2b$core..marker..Send$GT$$u20$as$u20$core..convert..From$LT$alloc..string..String$GT$$GT$..from..StringError$u20$as$u20$core..fmt..Debug$GT$3fmt17h71ad5c20dce71e00E', symObjAddr: 0x4E4, symBinAddr: 0x1000849C4, symSize: 0x1C }
  - { offset: 0xE93A1, size: 0x8, addend: 0x0, symName: '__ZN120_$LT$alloc..boxed..Box$LT$dyn$u20$core..error..Error$GT$$u20$as$u20$core..convert..From$LT$alloc..string..String$GT$$GT$4from17h5765c3fdddafd090E', symObjAddr: 0x500, symBinAddr: 0x1000849E0, symSize: 0x84 }
  - { offset: 0xE94F6, size: 0x8, addend: 0x0, symName: '__ZN106_$LT$alloc..boxed..Box$LT$dyn$u20$core..error..Error$GT$$u20$as$u20$core..convert..From$LT$$RF$str$GT$$GT$4from17h35eaf7d970a31f64E', symObjAddr: 0x584, symBinAddr: 0x100084A64, symSize: 0xD8 }
  - { offset: 0xE975F, size: 0x8, addend: 0x0, symName: '__ZN174_$LT$alloc..boxed..Box$LT$dyn$u20$core..error..Error$u2b$core..marker..Sync$u2b$core..marker..Send$GT$$u20$as$u20$core..convert..From$LT$alloc..borrow..Cow$LT$str$GT$$GT$$GT$4from17h6a47b22abe0cbf83E', symObjAddr: 0x65C, symBinAddr: 0x100084B3C, symSize: 0xEC }
  - { offset: 0xE99C8, size: 0x8, addend: 0x0, symName: '__ZN128_$LT$alloc..boxed..Box$LT$dyn$u20$core..error..Error$GT$$u20$as$u20$core..convert..From$LT$alloc..borrow..Cow$LT$str$GT$$GT$$GT$4from17h9c33cdaab0f682bbE', symObjAddr: 0x748, symBinAddr: 0x100084C28, symSize: 0xEC }
  - { offset: 0xEA0E8, size: 0x8, addend: 0x0, symName: '__ZN5alloc3vec16Vec$LT$T$C$A$GT$11swap_remove13assert_failed17hab43e13d5088aed3E', symObjAddr: 0x3E04, symBinAddr: 0x1000A6A5C, symSize: 0x54 }
  - { offset: 0xEA11E, size: 0x8, addend: 0x0, symName: '__ZN5alloc3vec16Vec$LT$T$C$A$GT$6insert13assert_failed17ha8ef48ddc9463328E', symObjAddr: 0x3E58, symBinAddr: 0x1000A6AB0, symSize: 0x54 }
  - { offset: 0xEA154, size: 0x8, addend: 0x0, symName: '__ZN5alloc3vec16Vec$LT$T$C$A$GT$6remove13assert_failed17h455975e75afd36d3E', symObjAddr: 0x3EAC, symBinAddr: 0x1000A6B04, symSize: 0x54 }
  - { offset: 0xEA18A, size: 0x8, addend: 0x0, symName: '__ZN5alloc3vec16Vec$LT$T$C$A$GT$9split_off13assert_failed17hb567f8bccde7f556E', symObjAddr: 0x3F00, symBinAddr: 0x1000A6B58, symSize: 0x54 }
  - { offset: 0xEA1D5, size: 0x8, addend: 0x0, symName: '__ZN80_$LT$alloc..vec..Vec$LT$u8$GT$$u20$as$u20$core..convert..From$LT$$RF$str$GT$$GT$4from17hed6edb23ab322d12E', symObjAddr: 0x3F54, symBinAddr: 0x1000882E4, symSize: 0x90 }
  - { offset: 0xEA377, size: 0x8, addend: 0x0, symName: '__ZN98_$LT$alloc..string..String$u20$as$u20$core..convert..From$LT$alloc..borrow..Cow$LT$str$GT$$GT$$GT$4from17hd27822c903cca1a3E', symObjAddr: 0x3B00, symBinAddr: 0x100087FE0, symSize: 0xB0 }
  - { offset: 0xEA54D, size: 0x8, addend: 0x0, symName: __ZN5alloc6string6String15from_utf8_lossy17h97bc945349e14195E, symObjAddr: 0x2398, symBinAddr: 0x100086878, symSize: 0x228 }
  - { offset: 0xEAA17, size: 0x8, addend: 0x0, symName: __ZN5alloc6string6String10from_utf1617hf1952b5ee17695e8E, symObjAddr: 0x25C0, symBinAddr: 0x100086AA0, symSize: 0x150 }
  - { offset: 0xEAD21, size: 0x8, addend: 0x0, symName: __ZN5alloc6string6String12from_utf16le17hae11a8588f91c8aaE, symObjAddr: 0x2710, symBinAddr: 0x100086BF0, symSize: 0x1E8 }
  - { offset: 0xEB073, size: 0x8, addend: 0x0, symName: __ZN5alloc6string6String18from_utf16le_lossy17hfb32f8dad28f2a02E, symObjAddr: 0x28F8, symBinAddr: 0x100086DD8, symSize: 0x444 }
  - { offset: 0xEB952, size: 0x8, addend: 0x0, symName: __ZN5alloc6string6String12from_utf16be17hfc0470e1b0b74ca1E, symObjAddr: 0x2D3C, symBinAddr: 0x10008721C, symSize: 0x1A8 }
  - { offset: 0xEBCDE, size: 0x8, addend: 0x0, symName: __ZN5alloc6string6String18from_utf16be_lossy17h0b8f008500f02915E, symObjAddr: 0x2EE4, symBinAddr: 0x1000873C4, symSize: 0x394 }
  - { offset: 0xEC340, size: 0x8, addend: 0x0, symName: __ZN5alloc6string6String11try_reserve17h850c84cdcacf9c22E, symObjAddr: 0x3278, symBinAddr: 0x100087758, symSize: 0xB8 }
  - { offset: 0xEC4B9, size: 0x8, addend: 0x0, symName: __ZN5alloc6string6String17try_reserve_exact17h570eb4736a504915E, symObjAddr: 0x3330, symBinAddr: 0x100087810, symSize: 0xA0 }
  - { offset: 0xEC5B0, size: 0x8, addend: 0x0, symName: __ZN5alloc6string6String4push17h221436f4e968ca85E, symObjAddr: 0x33D0, symBinAddr: 0x1000878B0, symSize: 0x140 }
  - { offset: 0xEC792, size: 0x8, addend: 0x0, symName: __ZN5alloc6string6String12insert_bytes17hebeadf9a09653377E, symObjAddr: 0x3510, symBinAddr: 0x1000879F0, symSize: 0x94 }
  - { offset: 0xEC95B, size: 0x8, addend: 0x0, symName: '__ZN95_$LT$alloc..string..String$u20$as$u20$core..iter..traits..collect..FromIterator$LT$char$GT$$GT$9from_iter17hcffc2226b92eda14E', symObjAddr: 0x36F8, symBinAddr: 0x100087BD8, symSize: 0x350 }
  - { offset: 0xECE52, size: 0x8, addend: 0x0, symName: __ZN5alloc6string13FromUtf8Error8as_bytes17h64fb28babc5ce6d3E, symObjAddr: 0x35A4, symBinAddr: 0x100087A84, symSize: 0x18 }
  - { offset: 0xECECB, size: 0x8, addend: 0x0, symName: '__ZN67_$LT$alloc..string..FromUtf8Error$u20$as$u20$core..fmt..Display$GT$3fmt17h5bdb8cd92a7903e9E', symObjAddr: 0x35BC, symBinAddr: 0x100087A9C, symSize: 0x14 }
  - { offset: 0xECEEC, size: 0x8, addend: 0x0, symName: '__ZN68_$LT$alloc..string..FromUtf16Error$u20$as$u20$core..fmt..Display$GT$3fmt17h1e8723b9e579070eE', symObjAddr: 0x35D0, symBinAddr: 0x100087AB0, symSize: 0x20 }
  - { offset: 0xECF0D, size: 0x8, addend: 0x0, symName: '__ZN60_$LT$alloc..string..String$u20$as$u20$core..clone..Clone$GT$5clone17hcb1ef7d9be48ac2aE', symObjAddr: 0x35F0, symBinAddr: 0x100087AD0, symSize: 0x8C }
  - { offset: 0xED00D, size: 0x8, addend: 0x0, symName: '__ZN60_$LT$alloc..string..String$u20$as$u20$core..clone..Clone$GT$10clone_from17h223c9c9791427efdE', symObjAddr: 0x367C, symBinAddr: 0x100087B5C, symSize: 0x7C }
  - { offset: 0xED14E, size: 0x8, addend: 0x0, symName: '__ZN73_$LT$$RF$alloc..string..String$u20$as$u20$core..str..pattern..Pattern$GT$13into_searcher17h414f182b81779afdE', symObjAddr: 0x3A48, symBinAddr: 0x100087F28, symSize: 0x20 }
  - { offset: 0xED208, size: 0x8, addend: 0x0, symName: '__ZN5alloc6string107_$LT$impl$u20$core..convert..From$LT$alloc..string..String$GT$$u20$for$u20$alloc..boxed..Box$LT$str$GT$$GT$4from17h98175372517483a3E', symObjAddr: 0x3A68, symBinAddr: 0x100087F48, symSize: 0x98 }
  - { offset: 0xED366, size: 0x8, addend: 0x0, symName: '__ZN58_$LT$alloc..string..String$u20$as$u20$core..fmt..Write$GT$9write_str17heacf67f8438e8ac1E', symObjAddr: 0x3BB0, symBinAddr: 0x100088090, symSize: 0x78 }
  - { offset: 0xED47F, size: 0x8, addend: 0x0, symName: '__ZN58_$LT$alloc..string..String$u20$as$u20$core..fmt..Write$GT$10write_char17hca45edefa45c6ef3E', symObjAddr: 0x3C28, symBinAddr: 0x100088108, symSize: 0x18 }
  - { offset: 0xED4AE, size: 0x8, addend: 0x0, symName: __ZN5alloc6string5Drain6as_str17h66017c1f6c11476dE, symObjAddr: 0x3D1C, symBinAddr: 0x1000881FC, symSize: 0x1C }
  - { offset: 0xED533, size: 0x8, addend: 0x0, symName: '__ZN57_$LT$alloc..string..Drain$u20$as$u20$core..fmt..Debug$GT$3fmt17h31363eda04a6e9b9E', symObjAddr: 0x3C40, symBinAddr: 0x100088120, symSize: 0x64 }
  - { offset: 0xED5D5, size: 0x8, addend: 0x0, symName: '__ZN62_$LT$alloc..string..Drain$u20$as$u20$core..ops..drop..Drop$GT$4drop17hf0cd8af09547234cE', symObjAddr: 0x3CA4, symBinAddr: 0x100088184, symSize: 0x78 }
  - { offset: 0xED738, size: 0x8, addend: 0x0, symName: '__ZN72_$LT$alloc..string..Drain$u20$as$u20$core..convert..AsRef$LT$str$GT$$GT$6as_ref17h8a6a877869eb3465E', symObjAddr: 0x3D38, symBinAddr: 0x100088218, symSize: 0x1C }
  - { offset: 0xED7DA, size: 0x8, addend: 0x0, symName: '__ZN79_$LT$alloc..string..Drain$u20$as$u20$core..iter..traits..iterator..Iterator$GT$9size_hint17h94414edfb11961acE', symObjAddr: 0x3D54, symBinAddr: 0x100088234, symSize: 0x2C }
  - { offset: 0xEDA35, size: 0x8, addend: 0x0, symName: '__ZN5alloc3str21_$LT$impl$u20$str$GT$12to_lowercase17hbedfe86f8bc0a274E', symObjAddr: 0x1A18, symBinAddr: 0x100085EF8, symSize: 0x558 }
  - { offset: 0xEE08A, size: 0x8, addend: 0x0, symName: '__ZN5alloc3str21_$LT$impl$u20$str$GT$12to_uppercase17h3a5ca340e6a4d660E', symObjAddr: 0x1F70, symBinAddr: 0x100086450, symSize: 0x2A8 }
  - { offset: 0xEE344, size: 0x8, addend: 0x0, symName: '__ZN5alloc3str21_$LT$impl$u20$str$GT$6repeat17h6879c91dd9b40c95E', symObjAddr: 0x2218, symBinAddr: 0x1000866F8, symSize: 0x180 }
  - { offset: 0xEE5E7, size: 0x8, addend: 0x0, symName: '__ZN92_$LT$alloc..borrow..Cow$LT$str$GT$$u20$as$u20$core..ops..arith..AddAssign$LT$$RF$str$GT$$GT$10add_assign17h1f114dbeeb6056c0E', symObjAddr: 0x834, symBinAddr: 0x100084D14, symSize: 0x1FC }
  - { offset: 0xEEA56, size: 0x8, addend: 0x0, symName: '__ZN77_$LT$alloc..borrow..Cow$LT$str$GT$$u20$as$u20$core..ops..arith..AddAssign$GT$10add_assign17h4b28c7bbb0197fa1E', symObjAddr: 0xA30, symBinAddr: 0x100084F10, symSize: 0x294 }
  - { offset: 0xEF0A4, size: 0x8, addend: 0x0, symName: __ZN5alloc3ffi5c_str19FromVecWithNulError8as_bytes17h093b503588995aadE, symObjAddr: 0xD68, symBinAddr: 0x100085248, symSize: 0x18 }
  - { offset: 0xEF133, size: 0x8, addend: 0x0, symName: '__ZN72_$LT$$RF$str$u20$as$u20$alloc..ffi..c_str..CString..new..SpecNewImpl$GT$13spec_new_impl17hbe42f8b7e71c2b5aE', symObjAddr: 0xD80, symBinAddr: 0x100085260, symSize: 0x114 }
  - { offset: 0xEF30C, size: 0x8, addend: 0x0, symName: '__ZN89_$LT$$RF$mut$u20$$u5b$u8$u5d$$u20$as$u20$alloc..ffi..c_str..CString..new..SpecNewImpl$GT$13spec_new_impl17h2f425117806da15aE', symObjAddr: 0xE94, symBinAddr: 0x100085374, symSize: 0x114 }
  - { offset: 0xEF4FB, size: 0x8, addend: 0x0, symName: __ZN5alloc3ffi5c_str7CString18from_vec_unchecked17haff1f7e37f7e508fE, symObjAddr: 0xFA8, symBinAddr: 0x100085488, symSize: 0x30 }
  - { offset: 0xEF516, size: 0x8, addend: 0x0, symName: __ZN5alloc3ffi5c_str7CString19_from_vec_unchecked17h1a11a9c678db14ddE, symObjAddr: 0xFD8, symBinAddr: 0x1000854B8, symSize: 0x138 }
  - { offset: 0xEF7E1, size: 0x8, addend: 0x0, symName: __ZN5alloc3ffi5c_str7CString8from_raw17h5ef42d025e2aa1aeE, symObjAddr: 0x1110, symBinAddr: 0x1000855F0, symSize: 0x28 }
  - { offset: 0xEF80A, size: 0x8, addend: 0x0, symName: __ZN5alloc3ffi5c_str7CString11into_string17h935622579e6313d0E, symObjAddr: 0x1138, symBinAddr: 0x100085618, symSize: 0xF8 }
  - { offset: 0xEF90C, size: 0x8, addend: 0x0, symName: __ZN5alloc3ffi5c_str7CString10into_bytes17he37863ddafb1e1e3E, symObjAddr: 0x1230, symBinAddr: 0x100085710, symSize: 0x20 }
  - { offset: 0xEF936, size: 0x8, addend: 0x0, symName: __ZN5alloc3ffi5c_str7CString19into_bytes_with_nul17h569ee5f3b5b78acdE, symObjAddr: 0x1250, symBinAddr: 0x100085730, symSize: 0x18 }
  - { offset: 0xEF98A, size: 0x8, addend: 0x0, symName: __ZN5alloc3ffi5c_str7CString27from_vec_with_nul_unchecked17hcde847be30576345E, symObjAddr: 0x1268, symBinAddr: 0x100085748, symSize: 0x98 }
  - { offset: 0xEFAE2, size: 0x8, addend: 0x0, symName: __ZN5alloc3ffi5c_str7CString17from_vec_with_nul17h4008028bf0e050c9E, symObjAddr: 0x1300, symBinAddr: 0x1000857E0, symSize: 0x130 }
  - { offset: 0xEFCA7, size: 0x8, addend: 0x0, symName: '__ZN63_$LT$alloc..ffi..c_str..CString$u20$as$u20$core..fmt..Debug$GT$3fmt17ha4b9c95b00da522bE', symObjAddr: 0x1430, symBinAddr: 0x100085910, symSize: 0x1C }
  - { offset: 0xEFD02, size: 0x8, addend: 0x0, symName: '__ZN5alloc3ffi5c_str75_$LT$impl$u20$alloc..borrow..ToOwned$u20$for$u20$core..ffi..c_str..CStr$GT$10clone_into17h54afdb81c735970bE', symObjAddr: 0x1634, symBinAddr: 0x100085B14, symSize: 0x114 }
  - { offset: 0xEFFED, size: 0x8, addend: 0x0, symName: '__ZN69_$LT$alloc..ffi..c_str..CString$u20$as$u20$core..default..Default$GT$7default17h19d7bfaf17d9f5acE', symObjAddr: 0x144C, symBinAddr: 0x10008592C, symSize: 0x40 }
  - { offset: 0xF00D2, size: 0x8, addend: 0x0, symName: '__ZN5alloc3ffi5c_str131_$LT$impl$u20$core..convert..From$LT$$RF$core..ffi..c_str..CStr$GT$$u20$for$u20$alloc..boxed..Box$LT$core..ffi..c_str..CStr$GT$$GT$4from17h7434fb7ac6f750b5E', symObjAddr: 0x148C, symBinAddr: 0x10008596C, symSize: 0x80 }
  - { offset: 0xF019B, size: 0x8, addend: 0x0, symName: '__ZN5alloc3ffi5c_str100_$LT$impl$u20$core..default..Default$u20$for$u20$alloc..boxed..Box$LT$core..ffi..c_str..CStr$GT$$GT$7default17h5d9f34f554832e29E', symObjAddr: 0x150C, symBinAddr: 0x1000859EC, symSize: 0x40 }
  - { offset: 0xF023B, size: 0x8, addend: 0x0, symName: '__ZN66_$LT$alloc..ffi..c_str..NulError$u20$as$u20$core..fmt..Display$GT$3fmt17h29b3af5fdbe2b60eE', symObjAddr: 0x154C, symBinAddr: 0x100085A2C, symSize: 0x50 }
  - { offset: 0xF02C6, size: 0x8, addend: 0x0, symName: '__ZN77_$LT$alloc..ffi..c_str..FromVecWithNulError$u20$as$u20$core..fmt..Display$GT$3fmt17h7c6988533d4b6cd6E', symObjAddr: 0x159C, symBinAddr: 0x100085A7C, symSize: 0x78 }
  - { offset: 0xF0327, size: 0x8, addend: 0x0, symName: '__ZN73_$LT$alloc..ffi..c_str..IntoStringError$u20$as$u20$core..fmt..Display$GT$3fmt17he11756a0c1ea2471E', symObjAddr: 0x1614, symBinAddr: 0x100085AF4, symSize: 0x20 }
  - { offset: 0xF0348, size: 0x8, addend: 0x0, symName: '__ZN100_$LT$alloc..ffi..c_str..CString$u20$as$u20$core..convert..From$LT$$RF$core..ffi..c_str..CStr$GT$$GT$4from17h9c2296e18cf5163fE', symObjAddr: 0x1748, symBinAddr: 0x100085C28, symSize: 0x80 }
  - { offset: 0xF0434, size: 0x8, addend: 0x0, symName: __ZN5alloc3fmt6format12format_inner17h8c2a1d7f1db369ffE, symObjAddr: 0x17EC, symBinAddr: 0x100085CCC, symSize: 0x1A8 }
  - { offset: 0xF0635, size: 0x8, addend: 0x0, symName: __ZN5alloc2rc29rcbox_layout_for_value_layout17h1007da9c979a9060E, symObjAddr: 0x1994, symBinAddr: 0x100085E74, symSize: 0x84 }
  - { offset: 0xF0798, size: 0x8, addend: 0x0, symName: __ZN5alloc4sync32arcinner_layout_for_value_layout17h7840fc8257e3f39bE, symObjAddr: 0x3D80, symBinAddr: 0x100088260, symSize: 0x84 }
  - { offset: 0xF0915, size: 0x8, addend: 0x0, symName: '__ZN4core3f3221_$LT$impl$u20$f32$GT$7to_bits13ct_f32_to_u3217h88f301a3842dd481E', symObjAddr: 0x0, symBinAddr: 0x100088374, symSize: 0xA8 }
  - { offset: 0xF0961, size: 0x8, addend: 0x0, symName: '__ZN4core3f3221_$LT$impl$u20$f32$GT$7to_bits13ct_f32_to_u3217h88f301a3842dd481E', symObjAddr: 0x0, symBinAddr: 0x100088374, symSize: 0xA8 }
  - { offset: 0xF09E4, size: 0x8, addend: 0x0, symName: '__ZN4core3f3221_$LT$impl$u20$f32$GT$9from_bits13ct_u32_to_f3217h24137577d8a45e29E', symObjAddr: 0xA8, symBinAddr: 0x10008841C, symSize: 0x9C }
  - { offset: 0xF0F7C, size: 0x8, addend: 0x0, symName: '__ZN42_$LT$str$u20$as$u20$core..fmt..Display$GT$3fmt17h5bcf15b9b1c6e5b7E', symObjAddr: 0xD0C0, symBinAddr: 0x100094D1C, symSize: 0x20 }
  - { offset: 0xF1084, size: 0x8, addend: 0x0, symName: __ZN4core3fmt9Formatter12pad_integral17hdbb5959a51091c3eE, symObjAddr: 0xB12C, symBinAddr: 0x100092D88, symSize: 0x3D8 }
  - { offset: 0xF1343, size: 0x8, addend: 0x0, symName: __ZN4core3fmt9Formatter3pad17h51c78c533c2fa5daE, symObjAddr: 0xB580, symBinAddr: 0x1000931DC, symSize: 0x380 }
  - { offset: 0xF17E4, size: 0x8, addend: 0x0, symName: __ZN4core3fmt9Formatter19pad_formatted_parts17h5279d666884f0f24E, symObjAddr: 0xB900, symBinAddr: 0x10009355C, symSize: 0x218 }
  - { offset: 0xF19B3, size: 0x8, addend: 0x0, symName: __ZN4core3fmt9Formatter21write_formatted_parts17h36168e1176ea70e5E, symObjAddr: 0xBB18, symBinAddr: 0x100093774, symSize: 0x23C }
  - { offset: 0xF1A98, size: 0x8, addend: 0x0, symName: __ZN4core3fmt9Formatter9write_str17h835e5202bc483853E, symObjAddr: 0xBD54, symBinAddr: 0x1000939B0, symSize: 0x1C }
  - { offset: 0xF1AAC, size: 0x8, addend: 0x0, symName: __ZN4core3fmt9Formatter12debug_struct17hd102d8d8cae07f33E, symObjAddr: 0xBD70, symBinAddr: 0x1000939CC, symSize: 0x3C }
  - { offset: 0xF1AEB, size: 0x8, addend: 0x0, symName: __ZN4core3fmt9Formatter26debug_struct_field1_finish17haaac6b40983bc271E, symObjAddr: 0xBDAC, symBinAddr: 0x100093A08, symSize: 0xD8 }
  - { offset: 0xF1BBA, size: 0x8, addend: 0x0, symName: __ZN4core3fmt9Formatter26debug_struct_field2_finish17hf4c0b9ec33ae8c9fE, symObjAddr: 0xBE84, symBinAddr: 0x100093AE0, symSize: 0x10C }
  - { offset: 0xF1C89, size: 0x8, addend: 0x0, symName: __ZN4core3fmt9Formatter26debug_struct_field3_finish17h5bd4207cc4d0add0E, symObjAddr: 0xBF90, symBinAddr: 0x100093BEC, symSize: 0x134 }
  - { offset: 0xF1D58, size: 0x8, addend: 0x0, symName: __ZN4core3fmt9Formatter26debug_struct_field4_finish17h851334b802ff9c7aE, symObjAddr: 0xC0C4, symBinAddr: 0x100093D20, symSize: 0x164 }
  - { offset: 0xF1E27, size: 0x8, addend: 0x0, symName: __ZN4core3fmt9Formatter26debug_struct_field5_finish17h9def27c51b0a8089E, symObjAddr: 0xC228, symBinAddr: 0x100093E84, symSize: 0x188 }
  - { offset: 0xF1EF6, size: 0x8, addend: 0x0, symName: __ZN4core3fmt9Formatter26debug_struct_fields_finish17he3e7058c31985496E, symObjAddr: 0xC3B0, symBinAddr: 0x10009400C, symSize: 0x108 }
  - { offset: 0xF1FD8, size: 0x8, addend: 0x0, symName: __ZN4core3fmt9Formatter11debug_tuple17h939b38310f981d9fE, symObjAddr: 0xC4B8, symBinAddr: 0x100094114, symSize: 0x50 }
  - { offset: 0xF202D, size: 0x8, addend: 0x0, symName: __ZN4core3fmt9Formatter25debug_tuple_field1_finish17h6a79eded3c617b3dE, symObjAddr: 0xC508, symBinAddr: 0x100094164, symSize: 0xEC }
  - { offset: 0xF20FB, size: 0x8, addend: 0x0, symName: __ZN4core3fmt9Formatter25debug_tuple_field2_finish17hcd4cb52ad5c3f6b7E, symObjAddr: 0xC5F4, symBinAddr: 0x100094250, symSize: 0x10C }
  - { offset: 0xF21C9, size: 0x8, addend: 0x0, symName: __ZN4core3fmt9Formatter25debug_tuple_field3_finish17hcd0b7a6a4d2c6553E, symObjAddr: 0xC700, symBinAddr: 0x10009435C, symSize: 0x12C }
  - { offset: 0xF2297, size: 0x8, addend: 0x0, symName: __ZN4core3fmt9Formatter25debug_tuple_field4_finish17h4c3278ea6051f419E, symObjAddr: 0xC82C, symBinAddr: 0x100094488, symSize: 0x148 }
  - { offset: 0xF2365, size: 0x8, addend: 0x0, symName: __ZN4core3fmt9Formatter25debug_tuple_field5_finish17h26493e34701164cdE, symObjAddr: 0xC974, symBinAddr: 0x1000945D0, symSize: 0x164 }
  - { offset: 0xF2433, size: 0x8, addend: 0x0, symName: __ZN4core3fmt9Formatter25debug_tuple_fields_finish17h96f5e531e9b2d503E, symObjAddr: 0xCAD8, symBinAddr: 0x100094734, symSize: 0x10C }
  - { offset: 0xF255A, size: 0x8, addend: 0x0, symName: __ZN4core3fmt9Formatter10debug_list17he9358dd21cbe2295E, symObjAddr: 0xCBE4, symBinAddr: 0x100094840, symSize: 0x48 }
  - { offset: 0xF259A, size: 0x8, addend: 0x0, symName: __ZN4core3fmt9Formatter9debug_set17hafdeda1e987f47a5E, symObjAddr: 0xCC2C, symBinAddr: 0x100094888, symSize: 0x48 }
  - { offset: 0xF25E1, size: 0x8, addend: 0x0, symName: __ZN4core3fmt9Formatter9debug_map17hf4b6ec0dbf8fa7bbE, symObjAddr: 0xCC74, symBinAddr: 0x1000948D0, symSize: 0x58 }
  - { offset: 0xF27C3, size: 0x8, addend: 0x0, symName: __ZN4core3fmt8builders11DebugStruct5field17hb871e0557e0aa90bE, symObjAddr: 0x8374, symBinAddr: 0x10008FFD0, symSize: 0x1C4 }
  - { offset: 0xF29C7, size: 0x8, addend: 0x0, symName: __ZN4core3fmt8builders11DebugStruct21finish_non_exhaustive17hd570f9c301658314E, symObjAddr: 0x8538, symBinAddr: 0x100090194, symSize: 0xCC }
  - { offset: 0xF2ACB, size: 0x8, addend: 0x0, symName: __ZN4core3fmt8builders11DebugStruct6finish17h8f75f3038d67bea5E, symObjAddr: 0x8604, symBinAddr: 0x100090260, symSize: 0x8C }
  - { offset: 0xF2BC4, size: 0x8, addend: 0x0, symName: __ZN4core3fmt8builders10PadAdapter4wrap17h4b2b93e1311fa767E, symObjAddr: 0x807C, symBinAddr: 0x10008FCD8, symSize: 0x40 }
  - { offset: 0xF2C2B, size: 0x8, addend: 0x0, symName: '__ZN68_$LT$core..fmt..builders..PadAdapter$u20$as$u20$core..fmt..Write$GT$9write_str17h35cc7b11fddd5736E', symObjAddr: 0x80BC, symBinAddr: 0x10008FD18, symSize: 0x238 }
  - { offset: 0xF2EF1, size: 0x8, addend: 0x0, symName: '__ZN68_$LT$core..fmt..builders..PadAdapter$u20$as$u20$core..fmt..Write$GT$10write_char17h13c9dd951a238650E', symObjAddr: 0x82F4, symBinAddr: 0x10008FF50, symSize: 0x80 }
  - { offset: 0xF2F7C, size: 0x8, addend: 0x0, symName: __ZN4core3fmt8builders10DebugTuple5field17hbb7bbafbec77104eE, symObjAddr: 0x8690, symBinAddr: 0x1000902EC, symSize: 0x15C }
  - { offset: 0xF3107, size: 0x8, addend: 0x0, symName: __ZN4core3fmt8builders10DebugTuple6finish17hced795b3033c53a5E, symObjAddr: 0x87EC, symBinAddr: 0x100090448, symSize: 0xC0 }
  - { offset: 0xF323F, size: 0x8, addend: 0x0, symName: __ZN4core3fmt8builders8DebugSet5entry17h5a78405623f7630bE, symObjAddr: 0x88AC, symBinAddr: 0x100090508, symSize: 0x15C }
  - { offset: 0xF33CA, size: 0x8, addend: 0x0, symName: __ZN4core3fmt8builders8DebugSet6finish17h922f272dd7906c9dE, symObjAddr: 0x8A08, symBinAddr: 0x100090664, symSize: 0x3C }
  - { offset: 0xF343F, size: 0x8, addend: 0x0, symName: __ZN4core3fmt8builders9DebugList6finish17h0dbfc14cf4ffd2beE, symObjAddr: 0x8A44, symBinAddr: 0x1000906A0, symSize: 0x3C }
  - { offset: 0xF34AF, size: 0x8, addend: 0x0, symName: __ZN4core3fmt8builders8DebugMap5entry17h5395a9b63cda7ae1E, symObjAddr: 0x8A80, symBinAddr: 0x1000906DC, symSize: 0x2C }
  - { offset: 0xF34E6, size: 0x8, addend: 0x0, symName: __ZN4core3fmt8builders8DebugMap3key17h96bfa876b5dbefdcE, symObjAddr: 0x8AAC, symBinAddr: 0x100090708, symSize: 0x1DC }
  - { offset: 0xF36D0, size: 0x8, addend: 0x0, symName: __ZN4core3fmt8builders8DebugMap5value17hd88f4c4ae4e3d30dE, symObjAddr: 0x8C88, symBinAddr: 0x1000908E4, symSize: 0x118 }
  - { offset: 0xF3828, size: 0x8, addend: 0x0, symName: __ZN4core3fmt8builders8DebugMap6finish17h01175105d0059810E, symObjAddr: 0x8DA0, symBinAddr: 0x1000909FC, symSize: 0x6C }
  - { offset: 0xF3940, size: 0x8, addend: 0x0, symName: '__ZN57_$LT$core..fmt..Formatter$u20$as$u20$core..fmt..Write$GT$10write_char17h0a19dadff6fc7427E', symObjAddr: 0xCCCC, symBinAddr: 0x100094928, symSize: 0x1C }
  - { offset: 0xF39DB, size: 0x8, addend: 0x0, symName: __ZN4core3fmt5Write10write_char17h41f2aedb6cecbebcE, symObjAddr: 0xA90C, symBinAddr: 0x100092568, symSize: 0x158 }
  - { offset: 0xF3ABF, size: 0x8, addend: 0x0, symName: __ZN4core3fmt5Write10write_char17h6bde5f6a06db72c5E, symObjAddr: 0xAA64, symBinAddr: 0x1000926C0, symSize: 0x158 }
  - { offset: 0xF3BA3, size: 0x8, addend: 0x0, symName: __ZN4core3fmt5Write10write_char17h96998a00dee1712fE, symObjAddr: 0xABBC, symBinAddr: 0x100092818, symSize: 0x158 }
  - { offset: 0xF3C87, size: 0x8, addend: 0x0, symName: __ZN4core3fmt5Write10write_char17hfbcc4794359bd532E, symObjAddr: 0xAD14, symBinAddr: 0x100092970, symSize: 0x158 }
  - { offset: 0xF3D6B, size: 0x8, addend: 0x0, symName: __ZN4core3fmt5Write9write_fmt17h0aa5336c6457caeaE, symObjAddr: 0xAE6C, symBinAddr: 0x100092AC8, symSize: 0x1C }
  - { offset: 0xF3D9A, size: 0x8, addend: 0x0, symName: __ZN4core3fmt5Write9write_fmt17h1f06ec531ebd1379E, symObjAddr: 0xAE88, symBinAddr: 0x100092AE4, symSize: 0x1C }
  - { offset: 0xF3DC9, size: 0x8, addend: 0x0, symName: __ZN4core3fmt5Write9write_fmt17h417a8444f37716e9E, symObjAddr: 0xAEA4, symBinAddr: 0x100092B00, symSize: 0x1C }
  - { offset: 0xF3DF8, size: 0x8, addend: 0x0, symName: __ZN4core3fmt5Write9write_fmt17h7f670f8ec9d8b637E, symObjAddr: 0xAEC0, symBinAddr: 0x100092B1C, symSize: 0x1C }
  - { offset: 0xF3E27, size: 0x8, addend: 0x0, symName: __ZN4core3fmt5Write9write_fmt17heda265f8f1e24617E, symObjAddr: 0xAEDC, symBinAddr: 0x100092B38, symSize: 0x1C }
  - { offset: 0xF3EAA, size: 0x8, addend: 0x0, symName: '__ZN43_$LT$bool$u20$as$u20$core..fmt..Display$GT$3fmt17h5a5a309fd5a51115E', symObjAddr: 0xCD08, symBinAddr: 0x100094964, symSize: 0x44 }
  - { offset: 0xF3F03, size: 0x8, addend: 0x0, symName: __ZN4core3fmt5float29float_to_decimal_common_exact17h60aac8ffd8c2ecc0E, symObjAddr: 0x8E0C, symBinAddr: 0x100090A68, symSize: 0x300 }
  - { offset: 0xF3FFB, size: 0x8, addend: 0x0, symName: __ZN4core3fmt5float29float_to_decimal_common_exact17hf68b74bc4370d58fE, symObjAddr: 0x910C, symBinAddr: 0x100090D68, symSize: 0x2F8 }
  - { offset: 0xF40DE, size: 0x8, addend: 0x0, symName: __ZN4core3fmt5float32float_to_decimal_common_shortest17h3909e40528b8d68eE, symObjAddr: 0x9404, symBinAddr: 0x100091060, symSize: 0x248 }
  - { offset: 0xF41BB, size: 0x8, addend: 0x0, symName: __ZN4core3fmt5float32float_to_decimal_common_shortest17haf1ac2cf64015391E, symObjAddr: 0x964C, symBinAddr: 0x1000912A8, symSize: 0x250 }
  - { offset: 0xF42AD, size: 0x8, addend: 0x0, symName: __ZN4core3fmt5float33float_to_exponential_common_exact17hce331b79dfa944b2E, symObjAddr: 0x989C, symBinAddr: 0x1000914F8, symSize: 0x340 }
  - { offset: 0xF43CE, size: 0x8, addend: 0x0, symName: __ZN4core3fmt5float33float_to_exponential_common_exact17hd919107a9b247bf8E, symObjAddr: 0x9BDC, symBinAddr: 0x100091838, symSize: 0x338 }
  - { offset: 0xF44DA, size: 0x8, addend: 0x0, symName: __ZN4core3fmt5float36float_to_exponential_common_shortest17h7db592fc610614feE, symObjAddr: 0x9F14, symBinAddr: 0x100091B70, symSize: 0x23C }
  - { offset: 0xF45DB, size: 0x8, addend: 0x0, symName: __ZN4core3fmt5float36float_to_exponential_common_shortest17haa7d06ee0d978b2fE, symObjAddr: 0xA150, symBinAddr: 0x100091DAC, symSize: 0x234 }
  - { offset: 0xF46EC, size: 0x8, addend: 0x0, symName: '__ZN4core3fmt5float50_$LT$impl$u20$core..fmt..Debug$u20$for$u20$f32$GT$3fmt17hff5e381b98b61226E', symObjAddr: 0x181B0, symBinAddr: 0x10009F86C, symSize: 0x9C }
  - { offset: 0xF4765, size: 0x8, addend: 0x0, symName: '__ZN4core3fmt5float52_$LT$impl$u20$core..fmt..Display$u20$for$u20$f32$GT$3fmt17h9b6c0440e4dc0360E', symObjAddr: 0x1824C, symBinAddr: 0x10009F908, symSize: 0x44 }
  - { offset: 0xF47B5, size: 0x8, addend: 0x0, symName: '__ZN4core3fmt5float53_$LT$impl$u20$core..fmt..LowerExp$u20$for$u20$f32$GT$3fmt17h6e0faf65372a8fd9E', symObjAddr: 0x18290, symBinAddr: 0x10009F94C, symSize: 0x4C }
  - { offset: 0xF47F8, size: 0x8, addend: 0x0, symName: '__ZN4core3fmt5float53_$LT$impl$u20$core..fmt..UpperExp$u20$for$u20$f32$GT$3fmt17hac0ef087c729d3eeE', symObjAddr: 0x182DC, symBinAddr: 0x10009F998, symSize: 0x4C }
  - { offset: 0xF485B, size: 0x8, addend: 0x0, symName: '__ZN4core3fmt5float50_$LT$impl$u20$core..fmt..Debug$u20$for$u20$f64$GT$3fmt17ha18b66f3c9543835E', symObjAddr: 0x18328, symBinAddr: 0x10009F9E4, symSize: 0xAC }
  - { offset: 0xF48D4, size: 0x8, addend: 0x0, symName: '__ZN4core3fmt5float52_$LT$impl$u20$core..fmt..Display$u20$for$u20$f64$GT$3fmt17ha7d1ecd486759a31E', symObjAddr: 0x183D4, symBinAddr: 0x10009FA90, symSize: 0x44 }
  - { offset: 0xF4924, size: 0x8, addend: 0x0, symName: '__ZN4core3fmt5float53_$LT$impl$u20$core..fmt..LowerExp$u20$for$u20$f64$GT$3fmt17h5f12cc8d91e43e07E', symObjAddr: 0x18418, symBinAddr: 0x10009FAD4, symSize: 0x4C }
  - { offset: 0xF4967, size: 0x8, addend: 0x0, symName: '__ZN4core3fmt5float53_$LT$impl$u20$core..fmt..UpperExp$u20$for$u20$f64$GT$3fmt17h0da2fafab26a2b4cE', symObjAddr: 0x18464, symBinAddr: 0x10009FB20, symSize: 0x4C }
  - { offset: 0xF49AB, size: 0x8, addend: 0x0, symName: __ZN4core3fmt3num14parse_u64_into17hb5ab27b58e097be9E, symObjAddr: 0xA384, symBinAddr: 0x100091FE0, symSize: 0x3B0 }
  - { offset: 0xF4B92, size: 0x8, addend: 0x0, symName: '__ZN4core3fmt3num53_$LT$impl$u20$core..fmt..Display$u20$for$u20$u128$GT$3fmt17h48ccc323dfd7ec45E', symObjAddr: 0xA734, symBinAddr: 0x100092390, symSize: 0x1C }
  - { offset: 0xF4BBA, size: 0x8, addend: 0x0, symName: '__ZN4core3fmt3num53_$LT$impl$u20$core..fmt..Display$u20$for$u20$i128$GT$3fmt17h6c5ef1356fb6fdbfE', symObjAddr: 0xA750, symBinAddr: 0x1000923AC, symSize: 0x34 }
  - { offset: 0xF4BF9, size: 0x8, addend: 0x0, symName: __ZN4core3fmt3num8fmt_u12817h43df8cd7ac5fbc42E, symObjAddr: 0xA784, symBinAddr: 0x1000923E0, symSize: 0x188 }
  - { offset: 0xF4E1A, size: 0x8, addend: 0x0, symName: '__ZN73_$LT$core..fmt..num..LowerHex$u20$as$u20$core..fmt..num..GenericRadix$GT$5digit17h0a491ce957cb4236E', symObjAddr: 0x18588, symBinAddr: 0x10009FC44, symSize: 0x7C }
  - { offset: 0xF4E6F, size: 0x8, addend: 0x0, symName: '__ZN4core3fmt3num3imp51_$LT$impl$u20$core..fmt..Display$u20$for$u20$i8$GT$3fmt17h077de80636687184E', symObjAddr: 0x19864, symBinAddr: 0x1000A0F20, symSize: 0xB8 }
  - { offset: 0xF4F24, size: 0x8, addend: 0x0, symName: '__ZN4core3fmt3num3imp51_$LT$impl$u20$core..fmt..Display$u20$for$u20$u8$GT$3fmt17h887116905cedccb7E', symObjAddr: 0x1991C, symBinAddr: 0x1000A0FD8, symSize: 0xAC }
  - { offset: 0xF4FCC, size: 0x8, addend: 0x0, symName: '__ZN4core3fmt3num3imp52_$LT$impl$u20$core..fmt..Display$u20$for$u20$i16$GT$3fmt17habab801f97ba9602E', symObjAddr: 0x199C8, symBinAddr: 0x1000A1084, symSize: 0x130 }
  - { offset: 0xF5086, size: 0x8, addend: 0x0, symName: '__ZN4core3fmt3num3imp52_$LT$impl$u20$core..fmt..Display$u20$for$u20$u16$GT$3fmt17h015d2cb25d2c7b52E', symObjAddr: 0x19AF8, symBinAddr: 0x1000A11B4, symSize: 0x110 }
  - { offset: 0xF5140, size: 0x8, addend: 0x0, symName: '__ZN4core3fmt3num3imp52_$LT$impl$u20$core..fmt..Display$u20$for$u20$i32$GT$3fmt17h879d1d9de7b928d2E', symObjAddr: 0x19C08, symBinAddr: 0x1000A12C4, symSize: 0x14C }
  - { offset: 0xF51E6, size: 0x8, addend: 0x0, symName: '__ZN4core3fmt3num3imp52_$LT$impl$u20$core..fmt..Display$u20$for$u20$i64$GT$3fmt17hb8998f5c7f080826E', symObjAddr: 0x19E90, symBinAddr: 0x1000A154C, symSize: 0x14C }
  - { offset: 0xF528C, size: 0x8, addend: 0x0, symName: '__ZN4core3fmt3num3imp52_$LT$impl$u20$core..fmt..Display$u20$for$u20$u32$GT$3fmt17h730fa986b60f048eE', symObjAddr: 0x19D54, symBinAddr: 0x1000A1410, symSize: 0x13C }
  - { offset: 0xF5332, size: 0x8, addend: 0x0, symName: '__ZN4core3fmt3num3imp52_$LT$impl$u20$core..fmt..Display$u20$for$u20$u64$GT$3fmt17h92f012c31c90f749E', symObjAddr: 0x19FDC, symBinAddr: 0x1000A1698, symSize: 0x13C }
  - { offset: 0xF53D9, size: 0x8, addend: 0x0, symName: __ZN4core3fmt3num3imp7exp_u6417h008a3b6dc5d9502eE, symObjAddr: 0x1A118, symBinAddr: 0x1000A17D4, symSize: 0x468 }
  - { offset: 0xF55A5, size: 0x8, addend: 0x0, symName: '__ZN4core3fmt3num3imp52_$LT$impl$u20$core..fmt..LowerExp$u20$for$u20$i8$GT$3fmt17hdb0e940746e17ae2E', symObjAddr: 0x1A580, symBinAddr: 0x1000A1C3C, symSize: 0x2C }
  - { offset: 0xF55C6, size: 0x8, addend: 0x0, symName: '__ZN4core3fmt3num3imp52_$LT$impl$u20$core..fmt..LowerExp$u20$for$u20$u8$GT$3fmt17hd3d8dc7dea384fc7E', symObjAddr: 0x1A5AC, symBinAddr: 0x1000A1C68, symSize: 0x20 }
  - { offset: 0xF55E7, size: 0x8, addend: 0x0, symName: '__ZN4core3fmt3num3imp53_$LT$impl$u20$core..fmt..LowerExp$u20$for$u20$i16$GT$3fmt17h4a3ccd04c4543786E', symObjAddr: 0x1A5CC, symBinAddr: 0x1000A1C88, symSize: 0x2C }
  - { offset: 0xF5608, size: 0x8, addend: 0x0, symName: '__ZN4core3fmt3num3imp53_$LT$impl$u20$core..fmt..LowerExp$u20$for$u20$u16$GT$3fmt17h729bcc531f0fdf89E', symObjAddr: 0x1A5F8, symBinAddr: 0x1000A1CB4, symSize: 0x20 }
  - { offset: 0xF5629, size: 0x8, addend: 0x0, symName: '__ZN4core3fmt3num3imp53_$LT$impl$u20$core..fmt..LowerExp$u20$for$u20$i32$GT$3fmt17h1d40eabdad471829E', symObjAddr: 0x1A618, symBinAddr: 0x1000A1CD4, symSize: 0x2C }
  - { offset: 0xF564A, size: 0x8, addend: 0x0, symName: '__ZN4core3fmt3num3imp53_$LT$impl$u20$core..fmt..LowerExp$u20$for$u20$u32$GT$3fmt17he049f079e8fd0112E', symObjAddr: 0x1A644, symBinAddr: 0x1000A1D00, symSize: 0x20 }
  - { offset: 0xF566B, size: 0x8, addend: 0x0, symName: '__ZN4core3fmt3num3imp53_$LT$impl$u20$core..fmt..LowerExp$u20$for$u20$i64$GT$3fmt17h9522e997261176caE', symObjAddr: 0x1A664, symBinAddr: 0x1000A1D20, symSize: 0x2C }
  - { offset: 0xF568C, size: 0x8, addend: 0x0, symName: '__ZN4core3fmt3num3imp53_$LT$impl$u20$core..fmt..LowerExp$u20$for$u20$u64$GT$3fmt17h8491e56565ad0682E', symObjAddr: 0x1A690, symBinAddr: 0x1000A1D4C, symSize: 0x20 }
  - { offset: 0xF56AD, size: 0x8, addend: 0x0, symName: '__ZN4core3fmt3num3imp52_$LT$impl$u20$core..fmt..UpperExp$u20$for$u20$i8$GT$3fmt17h024cab417689f4a3E', symObjAddr: 0x1A6B0, symBinAddr: 0x1000A1D6C, symSize: 0x2C }
  - { offset: 0xF56CE, size: 0x8, addend: 0x0, symName: '__ZN4core3fmt3num3imp52_$LT$impl$u20$core..fmt..UpperExp$u20$for$u20$u8$GT$3fmt17hb5d3b1b12a6a5679E', symObjAddr: 0x1A6DC, symBinAddr: 0x1000A1D98, symSize: 0x20 }
  - { offset: 0xF56EF, size: 0x8, addend: 0x0, symName: '__ZN4core3fmt3num3imp53_$LT$impl$u20$core..fmt..UpperExp$u20$for$u20$i16$GT$3fmt17hcd04cee4d3e10ba8E', symObjAddr: 0x1A6FC, symBinAddr: 0x1000A1DB8, symSize: 0x2C }
  - { offset: 0xF5710, size: 0x8, addend: 0x0, symName: '__ZN4core3fmt3num3imp53_$LT$impl$u20$core..fmt..UpperExp$u20$for$u20$u16$GT$3fmt17hd0276c6aed3f7f88E', symObjAddr: 0x1A728, symBinAddr: 0x1000A1DE4, symSize: 0x20 }
  - { offset: 0xF5731, size: 0x8, addend: 0x0, symName: '__ZN4core3fmt3num3imp53_$LT$impl$u20$core..fmt..UpperExp$u20$for$u20$i32$GT$3fmt17h17a2d81abdda0690E', symObjAddr: 0x1A748, symBinAddr: 0x1000A1E04, symSize: 0x2C }
  - { offset: 0xF5752, size: 0x8, addend: 0x0, symName: '__ZN4core3fmt3num3imp53_$LT$impl$u20$core..fmt..UpperExp$u20$for$u20$u32$GT$3fmt17h0202772c2b72a2daE', symObjAddr: 0x1A774, symBinAddr: 0x1000A1E30, symSize: 0x20 }
  - { offset: 0xF5773, size: 0x8, addend: 0x0, symName: '__ZN4core3fmt3num3imp53_$LT$impl$u20$core..fmt..UpperExp$u20$for$u20$i64$GT$3fmt17hb81f8b29bf963ec1E', symObjAddr: 0x1A794, symBinAddr: 0x1000A1E50, symSize: 0x2C }
  - { offset: 0xF5794, size: 0x8, addend: 0x0, symName: '__ZN4core3fmt3num3imp53_$LT$impl$u20$core..fmt..UpperExp$u20$for$u20$u64$GT$3fmt17he15a426e2d097a2aE', symObjAddr: 0x1A7C0, symBinAddr: 0x1000A1E7C, symSize: 0x20 }
  - { offset: 0xF57C3, size: 0x8, addend: 0x0, symName: '__ZN4core3fmt3num52_$LT$impl$u20$core..fmt..LowerHex$u20$for$u20$i8$GT$3fmt17he58887459bca5a63E', symObjAddr: 0x18798, symBinAddr: 0x10009FE54, symSize: 0x9C }
  - { offset: 0xF58BF, size: 0x8, addend: 0x0, symName: '__ZN4core3fmt3num52_$LT$impl$u20$core..fmt..UpperHex$u20$for$u20$i8$GT$3fmt17h7512e949fdf5c8d1E', symObjAddr: 0x18834, symBinAddr: 0x10009FEF0, symSize: 0x9C }
  - { offset: 0xF59BB, size: 0x8, addend: 0x0, symName: '__ZN73_$LT$core..fmt..num..UpperHex$u20$as$u20$core..fmt..num..GenericRadix$GT$5digit17hfaec77e589d8282dE', symObjAddr: 0x18604, symBinAddr: 0x10009FCC0, symSize: 0x7C }
  - { offset: 0xF5A43, size: 0x8, addend: 0x0, symName: '__ZN4core3fmt3num53_$LT$impl$u20$core..fmt..LowerHex$u20$for$u20$i16$GT$3fmt17h6a020ba635d07ca9E', symObjAddr: 0x189E8, symBinAddr: 0x1000A00A4, symSize: 0x9C }
  - { offset: 0xF5B4B, size: 0x8, addend: 0x0, symName: '__ZN4core3fmt3num53_$LT$impl$u20$core..fmt..UpperHex$u20$for$u20$i16$GT$3fmt17h5a559a42203da387E', symObjAddr: 0x18A84, symBinAddr: 0x1000A0140, symSize: 0x9C }
  - { offset: 0xF5C8C, size: 0x8, addend: 0x0, symName: '__ZN4core3fmt3num53_$LT$impl$u20$core..fmt..LowerHex$u20$for$u20$i32$GT$3fmt17h11d7b7b763aabb49E', symObjAddr: 0x18C38, symBinAddr: 0x1000A02F4, symSize: 0x9C }
  - { offset: 0xF5D94, size: 0x8, addend: 0x0, symName: '__ZN4core3fmt3num53_$LT$impl$u20$core..fmt..UpperHex$u20$for$u20$i32$GT$3fmt17h51efdd31fc95eae6E', symObjAddr: 0x18CD4, symBinAddr: 0x1000A0390, symSize: 0x9C }
  - { offset: 0xF5E9C, size: 0x8, addend: 0x0, symName: '__ZN4core3fmt3num53_$LT$impl$u20$core..fmt..LowerHex$u20$for$u20$i64$GT$3fmt17h422752909e164a93E', symObjAddr: 0x18E88, symBinAddr: 0x1000A0544, symSize: 0x9C }
  - { offset: 0xF5FA4, size: 0x8, addend: 0x0, symName: '__ZN4core3fmt3num53_$LT$impl$u20$core..fmt..UpperHex$u20$for$u20$i64$GT$3fmt17h107e2c7e167485d5E', symObjAddr: 0x18F24, symBinAddr: 0x1000A05E0, symSize: 0x9C }
  - { offset: 0xF60AC, size: 0x8, addend: 0x0, symName: '__ZN4core3fmt3num54_$LT$impl$u20$core..fmt..LowerHex$u20$for$u20$i128$GT$3fmt17h473b6ee188df9edfE', symObjAddr: 0x190F0, symBinAddr: 0x1000A07AC, symSize: 0xA8 }
  - { offset: 0xF61E9, size: 0x8, addend: 0x0, symName: '__ZN4core3fmt3num54_$LT$impl$u20$core..fmt..UpperHex$u20$for$u20$i128$GT$3fmt17h3cab6a6a03f3be15E', symObjAddr: 0x19198, symBinAddr: 0x1000A0854, symSize: 0xA8 }
  - { offset: 0xF633F, size: 0x8, addend: 0x0, symName: '__ZN71_$LT$core..fmt..num..Binary$u20$as$u20$core..fmt..num..GenericRadix$GT$5digit17hf4cacd322523403bE', symObjAddr: 0x184B0, symBinAddr: 0x10009FB6C, symSize: 0x6C }
  - { offset: 0xF637B, size: 0x8, addend: 0x0, symName: '__ZN70_$LT$core..fmt..num..Octal$u20$as$u20$core..fmt..num..GenericRadix$GT$5digit17h3e19e08a2bee3b18E', symObjAddr: 0x1851C, symBinAddr: 0x10009FBD8, symSize: 0x6C }
  - { offset: 0xF63B7, size: 0x8, addend: 0x0, symName: '__ZN4core3fmt3num50_$LT$impl$u20$core..fmt..Binary$u20$for$u20$i8$GT$3fmt17h915d7c812717b84dE', symObjAddr: 0x18680, symBinAddr: 0x10009FD3C, symSize: 0x8C }
  - { offset: 0xF64B3, size: 0x8, addend: 0x0, symName: '__ZN4core3fmt3num49_$LT$impl$u20$core..fmt..Octal$u20$for$u20$i8$GT$3fmt17h0c850dcd8ebb0109E', symObjAddr: 0x1870C, symBinAddr: 0x10009FDC8, symSize: 0x8C }
  - { offset: 0xF65AF, size: 0x8, addend: 0x0, symName: '__ZN4core3fmt3num51_$LT$impl$u20$core..fmt..Binary$u20$for$u20$i16$GT$3fmt17h8d3df78a0d25940dE', symObjAddr: 0x188D0, symBinAddr: 0x10009FF8C, symSize: 0x8C }
  - { offset: 0xF6690, size: 0x8, addend: 0x0, symName: '__ZN4core3fmt3num50_$LT$impl$u20$core..fmt..Octal$u20$for$u20$i16$GT$3fmt17h91feeb2d764ad3b4E', symObjAddr: 0x1895C, symBinAddr: 0x1000A0018, symSize: 0x8C }
  - { offset: 0xF6771, size: 0x8, addend: 0x0, symName: '__ZN4core3fmt3num51_$LT$impl$u20$core..fmt..Binary$u20$for$u20$i32$GT$3fmt17h638424b32e6036aaE', symObjAddr: 0x18B20, symBinAddr: 0x1000A01DC, symSize: 0x8C }
  - { offset: 0xF6852, size: 0x8, addend: 0x0, symName: '__ZN4core3fmt3num50_$LT$impl$u20$core..fmt..Octal$u20$for$u20$i32$GT$3fmt17h050f2b7df071408cE', symObjAddr: 0x18BAC, symBinAddr: 0x1000A0268, symSize: 0x8C }
  - { offset: 0xF6933, size: 0x8, addend: 0x0, symName: '__ZN4core3fmt3num51_$LT$impl$u20$core..fmt..Binary$u20$for$u20$i64$GT$3fmt17hb6a2feb1d20f92d2E', symObjAddr: 0x18D70, symBinAddr: 0x1000A042C, symSize: 0x8C }
  - { offset: 0xF6A14, size: 0x8, addend: 0x0, symName: '__ZN4core3fmt3num50_$LT$impl$u20$core..fmt..Octal$u20$for$u20$i64$GT$3fmt17he6b4304998664b34E', symObjAddr: 0x18DFC, symBinAddr: 0x1000A04B8, symSize: 0x8C }
  - { offset: 0xF6AF5, size: 0x8, addend: 0x0, symName: '__ZN4core3fmt3num52_$LT$impl$u20$core..fmt..Binary$u20$for$u20$i128$GT$3fmt17hd2736ffd2b7406bcE', symObjAddr: 0x18FC0, symBinAddr: 0x1000A067C, symSize: 0x98 }
  - { offset: 0xF6C04, size: 0x8, addend: 0x0, symName: '__ZN4core3fmt3num51_$LT$impl$u20$core..fmt..Octal$u20$for$u20$i128$GT$3fmt17h8e9ed2e287d962abE', symObjAddr: 0x19058, symBinAddr: 0x1000A0714, symSize: 0x98 }
  - { offset: 0xF6D39, size: 0x8, addend: 0x0, symName: '__ZN4core3fmt3num50_$LT$impl$u20$core..fmt..Debug$u20$for$u20$u32$GT$3fmt17h31aa996ccf46335eE', symObjAddr: 0x19240, symBinAddr: 0x1000A08FC, symSize: 0x210 }
  - { offset: 0xF6EEE, size: 0x8, addend: 0x0, symName: '__ZN4core3fmt3num50_$LT$impl$u20$core..fmt..Debug$u20$for$u20$u64$GT$3fmt17h929cf2acb405774bE', symObjAddr: 0x19450, symBinAddr: 0x1000A0B0C, symSize: 0x204 }
  - { offset: 0xF7090, size: 0x8, addend: 0x0, symName: '__ZN4core3fmt3num52_$LT$impl$u20$core..fmt..Debug$u20$for$u20$usize$GT$3fmt17hc6ee39df5af44366E', symObjAddr: 0x19654, symBinAddr: 0x1000A0D10, symSize: 0x210 }
  - { offset: 0xF721A, size: 0x8, addend: 0x0, symName: __ZN4core3fmt3num8exp_u12817h51fe1f9e2163a901E, symObjAddr: 0x1A7E0, symBinAddr: 0x1000A1E9C, symSize: 0x834 }
  - { offset: 0xF73E9, size: 0x8, addend: 0x0, symName: '__ZN4core3fmt3num54_$LT$impl$u20$core..fmt..LowerExp$u20$for$u20$i128$GT$3fmt17hac2bac9679e83536E', symObjAddr: 0x1B014, symBinAddr: 0x1000A26D0, symSize: 0x38 }
  - { offset: 0xF740A, size: 0x8, addend: 0x0, symName: '__ZN4core3fmt3num54_$LT$impl$u20$core..fmt..LowerExp$u20$for$u20$u128$GT$3fmt17h38bd923217c82ec7E', symObjAddr: 0x1B04C, symBinAddr: 0x1000A2708, symSize: 0x20 }
  - { offset: 0xF742B, size: 0x8, addend: 0x0, symName: '__ZN4core3fmt3num54_$LT$impl$u20$core..fmt..UpperExp$u20$for$u20$i128$GT$3fmt17h3d75e0944f0696e4E', symObjAddr: 0x1B06C, symBinAddr: 0x1000A2728, symSize: 0x38 }
  - { offset: 0xF744C, size: 0x8, addend: 0x0, symName: '__ZN4core3fmt3num54_$LT$impl$u20$core..fmt..UpperExp$u20$for$u20$u128$GT$3fmt17h5e7d14d2a7d8b5f9E', symObjAddr: 0x1B0A4, symBinAddr: 0x1000A2760, symSize: 0x20 }
  - { offset: 0xF747C, size: 0x8, addend: 0x0, symName: '__ZN59_$LT$core..fmt..Arguments$u20$as$u20$core..fmt..Display$GT$3fmt17h612bf4a5902817efE', symObjAddr: 0xAF10, symBinAddr: 0x100092B6C, symSize: 0x18 }
  - { offset: 0xF7496, size: 0x8, addend: 0x0, symName: '__ZN57_$LT$core..fmt..Arguments$u20$as$u20$core..fmt..Debug$GT$3fmt17h2200f1ea937de2bcE', symObjAddr: 0xAEF8, symBinAddr: 0x100092B54, symSize: 0x18 }
  - { offset: 0xF74E4, size: 0x8, addend: 0x0, symName: __ZN4core3fmt5write17hb3cfb8a30e72d7ffE, symObjAddr: 0xAF28, symBinAddr: 0x100092B84, symSize: 0x204 }
  - { offset: 0xF76FE, size: 0x8, addend: 0x0, symName: __ZN4core3fmt9Formatter12pad_integral12write_prefix17h4b02185b1143e49eE, symObjAddr: 0xB504, symBinAddr: 0x100093160, symSize: 0x7C }
  - { offset: 0xF774A, size: 0x8, addend: 0x0, symName: '__ZN55_$LT$core..fmt..Error$u20$as$u20$core..fmt..Display$GT$3fmt17hd6ab10698e3e2e88E', symObjAddr: 0xCCE8, symBinAddr: 0x100094944, symSize: 0x20 }
  - { offset: 0xF77A3, size: 0x8, addend: 0x0, symName: '__ZN40_$LT$str$u20$as$u20$core..fmt..Debug$GT$3fmt17hb39895df2f1782dfE', symObjAddr: 0xCD4C, symBinAddr: 0x1000949A8, symSize: 0x374 }
  - { offset: 0xF7C90, size: 0x8, addend: 0x0, symName: '__ZN41_$LT$char$u20$as$u20$core..fmt..Debug$GT$3fmt17hf97805e04d25774cE', symObjAddr: 0xD0E0, symBinAddr: 0x100094D3C, symSize: 0xAC }
  - { offset: 0xF7D90, size: 0x8, addend: 0x0, symName: '__ZN43_$LT$char$u20$as$u20$core..fmt..Display$GT$3fmt17ha2372cc2cd709685E', symObjAddr: 0xD18C, symBinAddr: 0x100094DE8, symSize: 0xF0 }
  - { offset: 0xF7E18, size: 0x8, addend: 0x0, symName: __ZN4core3fmt17pointer_fmt_inner17hccb2e8d7d023c77aE, symObjAddr: 0xD27C, symBinAddr: 0x100094ED8, symSize: 0xE0 }
  - { offset: 0xF7F5A, size: 0x8, addend: 0x0, symName: '__ZN52_$LT$$BP$const$u20$T$u20$as$u20$core..fmt..Debug$GT$3fmt17ha6933e245ffc8d09E', symObjAddr: 0xD35C, symBinAddr: 0x100094FB8, symSize: 0xE4 }
  - { offset: 0xF809E, size: 0x8, addend: 0x0, symName: '__ZN53_$LT$core..fmt..Error$u20$as$u20$core..fmt..Debug$GT$3fmt17hf96e4e055b67d05cE', symObjAddr: 0x1B0C4, symBinAddr: 0x1000A2780, symSize: 0x24 }
  - { offset: 0xF80D3, size: 0x8, addend: 0x0, symName: '__ZN42_$LT$$RF$T$u20$as$u20$core..fmt..Debug$GT$3fmt17h40b28589d6e6ffecE', symObjAddr: 0x1B0E8, symBinAddr: 0x1000A27A4, symSize: 0x14 }
  - { offset: 0xF80EE, size: 0x8, addend: 0x0, symName: '__ZN42_$LT$$RF$T$u20$as$u20$core..fmt..Debug$GT$3fmt17h41e6211583d0f351E', symObjAddr: 0x1B0FC, symBinAddr: 0x1000A27B8, symSize: 0x1C }
  - { offset: 0xF8109, size: 0x8, addend: 0x0, symName: '__ZN42_$LT$$RF$T$u20$as$u20$core..fmt..Debug$GT$3fmt17h889ccb0716fb1509E', symObjAddr: 0x1B118, symBinAddr: 0x1000A27D4, symSize: 0x18 }
  - { offset: 0xF8124, size: 0x8, addend: 0x0, symName: '__ZN42_$LT$$RF$T$u20$as$u20$core..fmt..Debug$GT$3fmt17hf5b5d0523f9c173cE', symObjAddr: 0x1B130, symBinAddr: 0x1000A27EC, symSize: 0x14 }
  - { offset: 0xF8145, size: 0x8, addend: 0x0, symName: '__ZN44_$LT$$RF$T$u20$as$u20$core..fmt..Display$GT$3fmt17h2015e20ac6cc4cb9E', symObjAddr: 0x1B144, symBinAddr: 0x1000A2800, symSize: 0x14 }
  - { offset: 0xF8160, size: 0x8, addend: 0x0, symName: '__ZN44_$LT$$RF$T$u20$as$u20$core..fmt..Display$GT$3fmt17h61ef0dd8be831850E', symObjAddr: 0x1B158, symBinAddr: 0x1000A2814, symSize: 0x1C }
  - { offset: 0xF8191, size: 0x8, addend: 0x0, symName: '__ZN44_$LT$$RF$T$u20$as$u20$core..fmt..Display$GT$3fmt17hd2936000f141a315E', symObjAddr: 0x1B174, symBinAddr: 0x1000A2830, symSize: 0x14 }
  - { offset: 0xF81B2, size: 0x8, addend: 0x0, symName: '__ZN45_$LT$$RF$T$u20$as$u20$core..fmt..LowerHex$GT$3fmt17hded2c010675b4857E', symObjAddr: 0x1B188, symBinAddr: 0x1000A2844, symSize: 0xA0 }
  - { offset: 0xF82D6, size: 0x8, addend: 0x0, symName: '__ZN4core3f6421_$LT$impl$u20$f64$GT$7to_bits13ct_f64_to_u6417h813abc57531d756fE', symObjAddr: 0x144, symBinAddr: 0x1000884B8, symSize: 0x8C }
  - { offset: 0xF834C, size: 0x8, addend: 0x0, symName: '__ZN4core3f6421_$LT$impl$u20$f64$GT$9from_bits13ct_u64_to_f6417hba62c632667c9160E', symObjAddr: 0x1D0, symBinAddr: 0x100088544, symSize: 0x9C }
  - { offset: 0xF90C5, size: 0x8, addend: 0x0, symName: __ZN4core3num7dec2flt7decimal7Decimal5round17h6273eb51353bfa7aE, symObjAddr: 0x26C, symBinAddr: 0x1000885E0, symSize: 0xC4 }
  - { offset: 0xF9111, size: 0x8, addend: 0x0, symName: __ZN4core3num7dec2flt7decimal7Decimal10left_shift17h4b36406d331b9fb4E, symObjAddr: 0x330, symBinAddr: 0x1000886A4, symSize: 0x210 }
  - { offset: 0xF91B5, size: 0x8, addend: 0x0, symName: __ZN4core3num7dec2flt7decimal7Decimal11right_shift17hf8266d58d08abc39E, symObjAddr: 0x540, symBinAddr: 0x1000888B4, symSize: 0x1BC }
  - { offset: 0xF9247, size: 0x8, addend: 0x0, symName: __ZN4core3num7dec2flt7decimal13parse_decimal17hc2774f23a7c8dfd1E, symObjAddr: 0x6FC, symBinAddr: 0x100088A70, symSize: 0x384 }
  - { offset: 0xF962C, size: 0x8, addend: 0x0, symName: '__ZN59_$LT$f32$u20$as$u20$core..num..dec2flt..float..RawFloat$GT$15pow10_fast_path17h8228f7ac25b29a46E', symObjAddr: 0xA80, symBinAddr: 0x100088DF4, symSize: 0x20 }
  - { offset: 0xF9687, size: 0x8, addend: 0x0, symName: '__ZN59_$LT$f64$u20$as$u20$core..num..dec2flt..float..RawFloat$GT$15pow10_fast_path17h396117806d906523E', symObjAddr: 0xAA0, symBinAddr: 0x100088E14, symSize: 0x20 }
  - { offset: 0xF96FD, size: 0x8, addend: 0x0, symName: __ZN4core3num7dec2flt6lemire13compute_float17h55f4b2966fffb87fE, symObjAddr: 0xAC0, symBinAddr: 0x100088E34, symSize: 0x164 }
  - { offset: 0xF97B3, size: 0x8, addend: 0x0, symName: __ZN4core3num7dec2flt6lemire13compute_float17hc31c9008ac1aba37E, symObjAddr: 0xC24, symBinAddr: 0x100088F98, symSize: 0x160 }
  - { offset: 0xF985C, size: 0x8, addend: 0x0, symName: __ZN4core3num7dec2flt6lemire22compute_product_approx17h44adc2efa254461eE, symObjAddr: 0xD84, symBinAddr: 0x1000890F8, symSize: 0x6C }
  - { offset: 0xF991A, size: 0x8, addend: 0x0, symName: __ZN4core3num7dec2flt5parse12parse_number17h163a56d217f7936bE, symObjAddr: 0xDF0, symBinAddr: 0x100089164, symSize: 0x454 }
  - { offset: 0xF9EDA, size: 0x8, addend: 0x0, symName: '__ZN74_$LT$core..num..dec2flt..ParseFloatError$u20$as$u20$core..fmt..Display$GT$3fmt17hb00c9bc3d3f87af0E', symObjAddr: 0x1244, symBinAddr: 0x1000895B8, symSize: 0x44 }
  - { offset: 0xF9FD1, size: 0x8, addend: 0x0, symName: '__ZN4core3num7dec2flt60_$LT$impl$u20$core..str..traits..FromStr$u20$for$u20$f32$GT$8from_str17hbc4cb4f9d74f6b85E', symObjAddr: 0x137D0, symBinAddr: 0x10009B240, symSize: 0x484 }
  - { offset: 0xF9FFA, size: 0x8, addend: 0x0, symName: '__ZN4core3num7dec2flt60_$LT$impl$u20$core..str..traits..FromStr$u20$for$u20$f32$GT$8from_str17hbc4cb4f9d74f6b85E', symObjAddr: 0x137D0, symBinAddr: 0x10009B240, symSize: 0x484 }
  - { offset: 0xFA293, size: 0x8, addend: 0x0, symName: '__ZN4core3num7dec2flt60_$LT$impl$u20$core..str..traits..FromStr$u20$for$u20$f64$GT$8from_str17hff734921b875359aE', symObjAddr: 0x13C54, symBinAddr: 0x10009B6C4, symSize: 0x454 }
  - { offset: 0xFA8B8, size: 0x8, addend: 0x0, symName: __ZN4core3num9diy_float2Fp12normalize_to17h5b503fa9e433bdefE, symObjAddr: 0x1288, symBinAddr: 0x1000895FC, symSize: 0x70 }
  - { offset: 0xFA8FF, size: 0x8, addend: 0x0, symName: __ZN4core3num7flt2dec9estimator23estimate_scaling_factor17hb3dac961cad0ee50E, symObjAddr: 0x12F8, symBinAddr: 0x10008966C, symSize: 0x3C }
  - { offset: 0xFA940, size: 0x8, addend: 0x0, symName: __ZN4core3num7flt2dec8strategy6dragon9mul_pow1017h1d284caf0e9a49d8E, symObjAddr: 0x1334, symBinAddr: 0x1000896A8, symSize: 0x174 }
  - { offset: 0xFAB2C, size: 0x8, addend: 0x0, symName: __ZN4core3num7flt2dec8strategy6dragon15format_shortest17hbfeafc719cce8f59E, symObjAddr: 0x14A8, symBinAddr: 0x10008981C, symSize: 0xC8C }
  - { offset: 0xFC5D0, size: 0x8, addend: 0x0, symName: __ZN4core3num7flt2dec8strategy6dragon12format_exact17h2278be5615ed6954E, symObjAddr: 0x2134, symBinAddr: 0x10008A4A8, symSize: 0xB24 }
  - { offset: 0xFDC6A, size: 0x8, addend: 0x0, symName: __ZN4core3num7flt2dec8strategy5grisu12cached_power17h99b899028b85f76bE, symObjAddr: 0x2C58, symBinAddr: 0x10008AFCC, symSize: 0x78 }
  - { offset: 0xFDCAC, size: 0x8, addend: 0x0, symName: __ZN4core3num7flt2dec8strategy5grisu19format_shortest_opt17h7b466b92710de735E, symObjAddr: 0x2CD0, symBinAddr: 0x10008B044, symSize: 0x7E0 }
  - { offset: 0xFDDA9, size: 0x8, addend: 0x0, symName: __ZN4core3num7flt2dec8strategy5grisu15format_shortest17hdffed6f5705af243E, symObjAddr: 0x34B0, symBinAddr: 0x10008B824, symSize: 0x7C }
  - { offset: 0xFDDBD, size: 0x8, addend: 0x0, symName: __ZN4core3num7flt2dec8strategy5grisu16format_exact_opt17h1a3e38fbbfb8737eE, symObjAddr: 0x352C, symBinAddr: 0x10008B8A0, symSize: 0x428 }
  - { offset: 0xFDE1D, size: 0x8, addend: 0x0, symName: __ZN4core3num7flt2dec8strategy5grisu16format_exact_opt14possibly_round17h7db7c8ad96fa9ecbE, symObjAddr: 0x3954, symBinAddr: 0x10008BCC8, symSize: 0x1E0 }
  - { offset: 0xFDF76, size: 0x8, addend: 0x0, symName: __ZN4core3num7flt2dec8strategy5grisu12format_exact17hd7057a71be8a808eE, symObjAddr: 0x3B34, symBinAddr: 0x10008BEA8, symSize: 0x90 }
  - { offset: 0xFDFB5, size: 0x8, addend: 0x0, symName: __ZN4core3num7flt2dec8round_up17h8e442c8b43a4ac76E, symObjAddr: 0x3BC4, symBinAddr: 0x10008BF38, symSize: 0xB4 }
  - { offset: 0xFE063, size: 0x8, addend: 0x0, symName: __ZN4core3num7flt2dec17digits_to_dec_str17hc26cdf404e7129f1E, symObjAddr: 0x3C78, symBinAddr: 0x10008BFEC, symSize: 0x14C }
  - { offset: 0xFE0DE, size: 0x8, addend: 0x0, symName: __ZN4core3num7flt2dec17digits_to_exp_str17h508dedc58c40e60cE, symObjAddr: 0x3DC4, symBinAddr: 0x10008C138, symSize: 0x168 }
  - { offset: 0xFE334, size: 0x8, addend: 0x0, symName: __ZN4core3num6bignum8Big32x408from_u6417h2fd9cf65d31fe2e3E, symObjAddr: 0x112FC, symBinAddr: 0x100098D6C, symSize: 0x68 }
  - { offset: 0xFE348, size: 0x8, addend: 0x0, symName: __ZN4core3num6bignum8Big32x406digits17hea1c61352c1ba8c8E, symObjAddr: 0x11364, symBinAddr: 0x100098DD4, symSize: 0x2C }
  - { offset: 0xFE393, size: 0x8, addend: 0x0, symName: __ZN4core3num6bignum8Big32x407get_bit17h6f1f982abff17fecE, symObjAddr: 0x11390, symBinAddr: 0x100098E00, symSize: 0x38 }
  - { offset: 0xFE3A7, size: 0x8, addend: 0x0, symName: __ZN4core3num6bignum8Big32x407is_zero17h3a0df29f2dc37bc9E, symObjAddr: 0x113C8, symBinAddr: 0x100098E38, symSize: 0x50 }
  - { offset: 0xFE436, size: 0x8, addend: 0x0, symName: __ZN4core3num6bignum8Big32x4010bit_length17h5f32475e0387fc45E, symObjAddr: 0x11418, symBinAddr: 0x100098E88, symSize: 0x7C }
  - { offset: 0xFE506, size: 0x8, addend: 0x0, symName: __ZN4core3num6bignum8Big32x403add17h4b7c5d0a7da91623E, symObjAddr: 0x11494, symBinAddr: 0x100098F04, symSize: 0xA0 }
  - { offset: 0xFE5BF, size: 0x8, addend: 0x0, symName: __ZN4core3num6bignum8Big32x409add_small17h8b8505217198324aE, symObjAddr: 0x11534, symBinAddr: 0x100098FA4, symSize: 0x3EC }
  - { offset: 0xFE61F, size: 0x8, addend: 0x0, symName: __ZN4core3num6bignum8Big32x403sub17h4a1998ed52f4b375E, symObjAddr: 0x11920, symBinAddr: 0x100099390, symSize: 0x98 }
  - { offset: 0xFE6D8, size: 0x8, addend: 0x0, symName: __ZN4core3num6bignum8Big32x409mul_small17hcd2094b2b72b6b79E, symObjAddr: 0x119B8, symBinAddr: 0x100099428, symSize: 0x88 }
  - { offset: 0xFE766, size: 0x8, addend: 0x0, symName: __ZN4core3num6bignum8Big32x408mul_pow217h8e20b4b9a7193052E, symObjAddr: 0x11A40, symBinAddr: 0x1000994B0, symSize: 0x1A8 }
  - { offset: 0xFE84F, size: 0x8, addend: 0x0, symName: __ZN4core3num6bignum8Big32x408mul_pow517hbb1d4f62babe8f7eE, symObjAddr: 0x11BE8, symBinAddr: 0x100099658, symSize: 0x108 }
  - { offset: 0xFEA5A, size: 0x8, addend: 0x0, symName: __ZN4core3num6bignum8Big32x4010mul_digits17h36e31346eec5fdd6E, symObjAddr: 0x11CF0, symBinAddr: 0x100099760, symSize: 0x2EC }
  - { offset: 0xFED44, size: 0x8, addend: 0x0, symName: __ZN4core3num6bignum8Big32x4013div_rem_small17hda60d4a8fe3ab089E, symObjAddr: 0x11FDC, symBinAddr: 0x100099A4C, symSize: 0x88 }
  - { offset: 0xFEDEE, size: 0x8, addend: 0x0, symName: __ZN4core3num6bignum8Big32x407div_rem17he9fe41d293441f8fE, symObjAddr: 0x12064, symBinAddr: 0x100099AD4, symSize: 0x288 }
  - { offset: 0xFF2B3, size: 0x8, addend: 0x0, symName: '__ZN62_$LT$core..num..bignum..Big32x40$u20$as$u20$core..cmp..Ord$GT$3cmp17h7f6e06d3f0c4a738E', symObjAddr: 0x1237C, symBinAddr: 0x100099DEC, symSize: 0x70 }
  - { offset: 0xFF512, size: 0x8, addend: 0x0, symName: '__ZN69_$LT$core..num..bignum..Big32x40$u20$as$u20$core..cmp..PartialOrd$GT$11partial_cmp17h2cf366e8bef5c845E', symObjAddr: 0x1230C, symBinAddr: 0x100099D7C, symSize: 0x70 }
  - { offset: 0xFF77E, size: 0x8, addend: 0x0, symName: '__ZN50_$LT$u32$u20$as$u20$core..num..bignum..FullOps$GT$12full_div_rem17h61f0c76cee927dd4E', symObjAddr: 0x112CC, symBinAddr: 0x100098D3C, symSize: 0x30 }
  - { offset: 0xFF7A5, size: 0x8, addend: 0x0, symName: '__ZN49_$LT$u8$u20$as$u20$core..num..bignum..FullOps$GT$12full_div_rem17hfd8b83cb2e7febf9E', symObjAddr: 0x11260, symBinAddr: 0x100098CD0, symSize: 0x38 }
  - { offset: 0xFF7D9, size: 0x8, addend: 0x0, symName: '__ZN50_$LT$u16$u20$as$u20$core..num..bignum..FullOps$GT$12full_div_rem17hf2a3854566a66002E', symObjAddr: 0x11298, symBinAddr: 0x100098D08, symSize: 0x34 }
  - { offset: 0xFF813, size: 0x8, addend: 0x0, symName: '__ZN68_$LT$core..num..bignum..Big32x40$u20$as$u20$core..cmp..PartialEq$GT$2eq17hd72162759881a564E', symObjAddr: 0x122EC, symBinAddr: 0x100099D5C, symSize: 0x20 }
  - { offset: 0xFF85F, size: 0x8, addend: 0x0, symName: '__ZN64_$LT$core..num..bignum..Big32x40$u20$as$u20$core..fmt..Debug$GT$3fmt17h6283a2f96a909e9cE', symObjAddr: 0x123EC, symBinAddr: 0x100099E5C, symSize: 0x198 }
  - { offset: 0xFF927, size: 0x8, addend: 0x0, symName: __ZN4core3num6bignum5tests6Big8x38from_u6417hdba311162f886e46E, symObjAddr: 0x12584, symBinAddr: 0x100099FF4, symSize: 0xB4 }
  - { offset: 0xFF941, size: 0x8, addend: 0x0, symName: __ZN4core3num6bignum5tests6Big8x36digits17hb7f9b733530b2110E, symObjAddr: 0x12638, symBinAddr: 0x10009A0A8, symSize: 0x30 }
  - { offset: 0xFF98C, size: 0x8, addend: 0x0, symName: __ZN4core3num6bignum5tests6Big8x37get_bit17h946f6c6f9f588af5E, symObjAddr: 0x12668, symBinAddr: 0x10009A0D8, symSize: 0x40 }
  - { offset: 0xFF9AD, size: 0x8, addend: 0x0, symName: __ZN4core3num6bignum5tests6Big8x37is_zero17hd96b26484dd9886cE, symObjAddr: 0x126A8, symBinAddr: 0x10009A118, symSize: 0x84 }
  - { offset: 0xFFA2D, size: 0x8, addend: 0x0, symName: __ZN4core3num6bignum5tests6Big8x310bit_length17hcb0eef576ea4122bE, symObjAddr: 0x1272C, symBinAddr: 0x10009A19C, symSize: 0xC4 }
  - { offset: 0xFFB1C, size: 0x8, addend: 0x0, symName: __ZN4core3num6bignum5tests6Big8x33add17h16aa0b1a20ca962eE, symObjAddr: 0x127F0, symBinAddr: 0x10009A260, symSize: 0xB4 }
  - { offset: 0xFFC06, size: 0x8, addend: 0x0, symName: __ZN4core3num6bignum5tests6Big8x39add_small17h0db38e9260874588E, symObjAddr: 0x128A4, symBinAddr: 0x10009A314, symSize: 0x8C }
  - { offset: 0xFFC66, size: 0x8, addend: 0x0, symName: __ZN4core3num6bignum5tests6Big8x33sub17h8bafcb16ccb50c0cE, symObjAddr: 0x12930, symBinAddr: 0x10009A3A0, symSize: 0xA4 }
  - { offset: 0xFFD4A, size: 0x8, addend: 0x0, symName: __ZN4core3num6bignum5tests6Big8x39mul_small17h479609d6b8315efcE, symObjAddr: 0x129D4, symBinAddr: 0x10009A444, symSize: 0xAC }
  - { offset: 0xFFDD2, size: 0x8, addend: 0x0, symName: __ZN4core3num6bignum5tests6Big8x38mul_pow217h1f5f88cadb3b91c0E, symObjAddr: 0x12A80, symBinAddr: 0x10009A4F0, symSize: 0x184 }
  - { offset: 0xFFEB3, size: 0x8, addend: 0x0, symName: __ZN4core3num6bignum5tests6Big8x38mul_pow517h9e04783217d4f3ddE, symObjAddr: 0x12C04, symBinAddr: 0x10009A674, symSize: 0x154 }
  - { offset: 0x1000B2, size: 0x8, addend: 0x0, symName: __ZN4core3num6bignum5tests6Big8x310mul_digits17hb7ff0006a803e6fbE, symObjAddr: 0x12D58, symBinAddr: 0x10009A7C8, symSize: 0x378 }
  - { offset: 0x100376, size: 0x8, addend: 0x0, symName: __ZN4core3num6bignum5tests6Big8x313div_rem_small17h9eb443a762c85aa6E, symObjAddr: 0x130D0, symBinAddr: 0x10009AB40, symSize: 0xBC }
  - { offset: 0x10045C, size: 0x8, addend: 0x0, symName: __ZN4core3num6bignum5tests6Big8x37div_rem17h489687e84af24363E, symObjAddr: 0x1318C, symBinAddr: 0x10009ABFC, symSize: 0x2E8 }
  - { offset: 0x100957, size: 0x8, addend: 0x0, symName: '__ZN67_$LT$core..num..bignum..tests..Big8x3$u20$as$u20$core..cmp..Ord$GT$3cmp17h19a6176dab9ca22aE', symObjAddr: 0x13574, symBinAddr: 0x10009AFE4, symSize: 0xD4 }
  - { offset: 0x100B3E, size: 0x8, addend: 0x0, symName: '__ZN74_$LT$core..num..bignum..tests..Big8x3$u20$as$u20$core..cmp..PartialOrd$GT$11partial_cmp17hadbe0690b22e2749E', symObjAddr: 0x134A0, symBinAddr: 0x10009AF10, symSize: 0xD4 }
  - { offset: 0x100D25, size: 0x8, addend: 0x0, symName: '__ZN73_$LT$core..num..bignum..tests..Big8x3$u20$as$u20$core..cmp..PartialEq$GT$2eq17ha8901b2f751efa5cE', symObjAddr: 0x13474, symBinAddr: 0x10009AEE4, symSize: 0x2C }
  - { offset: 0x100D71, size: 0x8, addend: 0x0, symName: '__ZN69_$LT$core..num..bignum..tests..Big8x3$u20$as$u20$core..fmt..Debug$GT$3fmt17ha7edecc836658cdcE', symObjAddr: 0x13648, symBinAddr: 0x10009B0B8, symSize: 0x188 }
  - { offset: 0x100F2D, size: 0x8, addend: 0x0, symName: __ZN4core3num3fmt4Part5write17h34968d30539c871bE, symObjAddr: 0x3F2C, symBinAddr: 0x10008C2A0, symSize: 0x164 }
  - { offset: 0x10103F, size: 0x8, addend: 0x0, symName: __ZN4core3num3fmt9Formatted3len17h1525a62215c65ddbE, symObjAddr: 0x4090, symBinAddr: 0x10008C404, symSize: 0x98 }
  - { offset: 0x101082, size: 0x8, addend: 0x0, symName: __ZN4core3num3fmt9Formatted5write17hc2967d66d26b7cd2E, symObjAddr: 0x4128, symBinAddr: 0x10008C49C, symSize: 0xB0 }
  - { offset: 0x101198, size: 0x8, addend: 0x0, symName: '__ZN72_$LT$core..num..error..TryFromIntError$u20$as$u20$core..fmt..Display$GT$3fmt17h38b12741f44d9d96E', symObjAddr: 0x41D8, symBinAddr: 0x10008C54C, symSize: 0x20 }
  - { offset: 0x1011E0, size: 0x8, addend: 0x0, symName: '__ZN70_$LT$core..num..error..ParseIntError$u20$as$u20$core..fmt..Display$GT$3fmt17h19aaf1ccdbd7c02bE', symObjAddr: 0x41F8, symBinAddr: 0x10008C56C, symSize: 0x38 }
  - { offset: 0x10122A, size: 0x8, addend: 0x0, symName: __ZN4core3num9int_log1030panic_for_nonpositive_argument17hd692aa5da15f6ad6E, symObjAddr: 0x4230, symBinAddr: 0x1000A6BAC, symSize: 0x34 }
  - { offset: 0x1012A0, size: 0x8, addend: 0x0, symName: __ZN4core3num14overflow_panic3add17h48176925893f1270E, symObjAddr: 0x4264, symBinAddr: 0x1000A6BE0, symSize: 0x34 }
  - { offset: 0x1012CF, size: 0x8, addend: 0x0, symName: __ZN4core3num14overflow_panic3sub17habf244e89ba4c87bE, symObjAddr: 0x4298, symBinAddr: 0x1000A6C14, symSize: 0x34 }
  - { offset: 0x1012FE, size: 0x8, addend: 0x0, symName: __ZN4core3num14overflow_panic3mul17h3d2b25a79b94a5bbE, symObjAddr: 0x42CC, symBinAddr: 0x1000A6C48, symSize: 0x34 }
  - { offset: 0x10132D, size: 0x8, addend: 0x0, symName: __ZN4core3num14overflow_panic3div17h077066cc23f4d32eE, symObjAddr: 0x4300, symBinAddr: 0x1000A6C7C, symSize: 0x34 }
  - { offset: 0x10135C, size: 0x8, addend: 0x0, symName: __ZN4core3num14overflow_panic3rem17hc0c9a1b4f33519efE, symObjAddr: 0x4334, symBinAddr: 0x1000A6CB0, symSize: 0x34 }
  - { offset: 0x10138B, size: 0x8, addend: 0x0, symName: __ZN4core3num14overflow_panic3neg17h514ef53500205567E, symObjAddr: 0x4368, symBinAddr: 0x1000A6CE4, symSize: 0x34 }
  - { offset: 0x1013BA, size: 0x8, addend: 0x0, symName: __ZN4core3num14overflow_panic3shr17h30d96ae1c547b7beE, symObjAddr: 0x439C, symBinAddr: 0x1000A6D18, symSize: 0x34 }
  - { offset: 0x1013E9, size: 0x8, addend: 0x0, symName: __ZN4core3num14overflow_panic3shl17ha20aac77034c34c6E, symObjAddr: 0x43D0, symBinAddr: 0x1000A6D4C, symSize: 0x34 }
  - { offset: 0x101419, size: 0x8, addend: 0x0, symName: __ZN4core3num23from_str_radix_panic_ct17h4f3b28fbd70c62d3E, symObjAddr: 0x4404, symBinAddr: 0x10008C5A4, symSize: 0x30 }
  - { offset: 0x101449, size: 0x8, addend: 0x0, symName: __ZN4core3num23from_str_radix_panic_rt17h8b99d2ce3ceba280E, symObjAddr: 0x4434, symBinAddr: 0x10008C5D4, symSize: 0x44 }
  - { offset: 0x101479, size: 0x8, addend: 0x0, symName: __ZN4core3num20from_str_radix_panic17hff8abe72894e565cE, symObjAddr: 0x4478, symBinAddr: 0x1000A6D80, symSize: 0xC }
  - { offset: 0x10154C, size: 0x8, addend: 0x0, symName: '__ZN73_$LT$core..num..nonzero..NonZero$LT$T$GT$$u20$as$u20$core..fmt..Debug$GT$3fmt17he1205bd34ccb5c47E', symObjAddr: 0x140A8, symBinAddr: 0x10009BB18, symSize: 0x28 }
  - { offset: 0x101581, size: 0x8, addend: 0x0, symName: '__ZN84_$LT$core..num..nonzero..NonZero$LT$u8$GT$$u20$as$u20$core..str..traits..FromStr$GT$8from_str17h68fb0f25355deadeE', symObjAddr: 0x140D0, symBinAddr: 0x10009BB40, symSize: 0x138 }
  - { offset: 0x10166A, size: 0x8, addend: 0x0, symName: '__ZN85_$LT$core..num..nonzero..NonZero$LT$u16$GT$$u20$as$u20$core..str..traits..FromStr$GT$8from_str17h586f75be8b618f08E', symObjAddr: 0x14208, symBinAddr: 0x10009BC78, symSize: 0x124 }
  - { offset: 0x10174C, size: 0x8, addend: 0x0, symName: '__ZN85_$LT$core..num..nonzero..NonZero$LT$u32$GT$$u20$as$u20$core..str..traits..FromStr$GT$8from_str17h3c800db34c0dbf0eE', symObjAddr: 0x1432C, symBinAddr: 0x10009BD9C, symSize: 0x12C }
  - { offset: 0x10183D, size: 0x8, addend: 0x0, symName: '__ZN85_$LT$core..num..nonzero..NonZero$LT$u64$GT$$u20$as$u20$core..str..traits..FromStr$GT$8from_str17h2984cabe8f7e178cE', symObjAddr: 0x14458, symBinAddr: 0x10009BEC8, symSize: 0xFC }
  - { offset: 0x101935, size: 0x8, addend: 0x0, symName: '__ZN86_$LT$core..num..nonzero..NonZero$LT$u128$GT$$u20$as$u20$core..str..traits..FromStr$GT$8from_str17hc08870790fb2451aE', symObjAddr: 0x14554, symBinAddr: 0x10009BFC4, symSize: 0x130 }
  - { offset: 0x101A34, size: 0x8, addend: 0x0, symName: '__ZN87_$LT$core..num..nonzero..NonZero$LT$usize$GT$$u20$as$u20$core..str..traits..FromStr$GT$8from_str17h5bea1009e78b11e5E', symObjAddr: 0x14684, symBinAddr: 0x10009C0F4, symSize: 0xFC }
  - { offset: 0x101B42, size: 0x8, addend: 0x0, symName: '__ZN84_$LT$core..num..nonzero..NonZero$LT$i8$GT$$u20$as$u20$core..str..traits..FromStr$GT$8from_str17h466d9822fed44b05E', symObjAddr: 0x14780, symBinAddr: 0x10009C1F0, symSize: 0x34 }
  - { offset: 0x101B79, size: 0x8, addend: 0x0, symName: '__ZN85_$LT$core..num..nonzero..NonZero$LT$i16$GT$$u20$as$u20$core..str..traits..FromStr$GT$8from_str17h42ccd5d931962188E', symObjAddr: 0x147B4, symBinAddr: 0x10009C224, symSize: 0x40 }
  - { offset: 0x101BB0, size: 0x8, addend: 0x0, symName: '__ZN85_$LT$core..num..nonzero..NonZero$LT$i32$GT$$u20$as$u20$core..str..traits..FromStr$GT$8from_str17hdfd2d3d9f09b067cE', symObjAddr: 0x147F4, symBinAddr: 0x10009C264, symSize: 0x44 }
  - { offset: 0x101BE7, size: 0x8, addend: 0x0, symName: '__ZN85_$LT$core..num..nonzero..NonZero$LT$i64$GT$$u20$as$u20$core..str..traits..FromStr$GT$8from_str17h36f2d0a068b7feccE', symObjAddr: 0x14838, symBinAddr: 0x10009C2A8, symSize: 0x64 }
  - { offset: 0x101C2C, size: 0x8, addend: 0x0, symName: '__ZN86_$LT$core..num..nonzero..NonZero$LT$i128$GT$$u20$as$u20$core..str..traits..FromStr$GT$8from_str17h7e49f75c79d49158E', symObjAddr: 0x1489C, symBinAddr: 0x10009C30C, symSize: 0x68 }
  - { offset: 0x101C71, size: 0x8, addend: 0x0, symName: '__ZN87_$LT$core..num..nonzero..NonZero$LT$isize$GT$$u20$as$u20$core..str..traits..FromStr$GT$8from_str17hdc391a6a4aef0d75E', symObjAddr: 0x14904, symBinAddr: 0x10009C374, symSize: 0x64 }
  - { offset: 0x101FBD, size: 0x8, addend: 0x0, symName: '__ZN4core3num20_$LT$impl$u20$u8$GT$14from_str_radix17h975fe8c5d88355bdE', symObjAddr: 0x15324, symBinAddr: 0x10009CD94, symSize: 0x210 }
  - { offset: 0x1020B8, size: 0x8, addend: 0x0, symName: '__ZN4core3num21_$LT$impl$u20$u16$GT$14from_str_radix17h28d28a28766ad930E', symObjAddr: 0x1584C, symBinAddr: 0x10009D2BC, symSize: 0x1F8 }
  - { offset: 0x1021B3, size: 0x8, addend: 0x0, symName: '__ZN4core3num21_$LT$impl$u20$u32$GT$14from_str_radix17h1fc984bc67b4c429E', symObjAddr: 0x15DAC, symBinAddr: 0x10009D81C, symSize: 0x1FC }
  - { offset: 0x1022AE, size: 0x8, addend: 0x0, symName: '__ZN4core3num21_$LT$impl$u20$u64$GT$14from_str_radix17hf69b497706457aa3E', symObjAddr: 0x162D4, symBinAddr: 0x10009DD44, symSize: 0x1E0 }
  - { offset: 0x1023A9, size: 0x8, addend: 0x0, symName: '__ZN4core3num22_$LT$impl$u20$u128$GT$14from_str_radix17hdb93ff1f4324d0f9E', symObjAddr: 0x16870, symBinAddr: 0x10009E2E0, symSize: 0x23C }
  - { offset: 0x1024F0, size: 0x8, addend: 0x0, symName: '__ZN4core3num23_$LT$impl$u20$usize$GT$14from_str_radix17hb3aea1a1d8df9507E', symObjAddr: 0x16AFC, symBinAddr: 0x10009E56C, symSize: 0x50 }
  - { offset: 0x102518, size: 0x8, addend: 0x0, symName: '__ZN4core3num23_$LT$impl$u20$isize$GT$14from_str_radix17h498c50519a6e723aE', symObjAddr: 0x16AAC, symBinAddr: 0x10009E51C, symSize: 0x50 }
  - { offset: 0x102532, size: 0x8, addend: 0x0, symName: '__ZN4core3num62_$LT$impl$u20$core..str..traits..FromStr$u20$for$u20$isize$GT$8from_str17h37c05c25b52d3d6dE', symObjAddr: 0x14968, symBinAddr: 0x10009C3D8, symSize: 0x54 }
  - { offset: 0x102569, size: 0x8, addend: 0x0, symName: '__ZN4core3num59_$LT$impl$u20$core..str..traits..FromStr$u20$for$u20$i8$GT$8from_str17ha6a4b5cb646ace91E', symObjAddr: 0x149BC, symBinAddr: 0x10009C42C, symSize: 0x14 }
  - { offset: 0x10258A, size: 0x8, addend: 0x0, symName: '__ZN4core3num60_$LT$impl$u20$core..str..traits..FromStr$u20$for$u20$i16$GT$8from_str17h5a55976414b47cd4E', symObjAddr: 0x149D0, symBinAddr: 0x10009C440, symSize: 0x14 }
  - { offset: 0x1025AB, size: 0x8, addend: 0x0, symName: '__ZN4core3num60_$LT$impl$u20$core..str..traits..FromStr$u20$for$u20$i32$GT$8from_str17h96de134e779d0b85E', symObjAddr: 0x149E4, symBinAddr: 0x10009C454, symSize: 0x14 }
  - { offset: 0x1025CC, size: 0x8, addend: 0x0, symName: '__ZN4core3num60_$LT$impl$u20$core..str..traits..FromStr$u20$for$u20$i64$GT$8from_str17hf3ffaee85c69d7f5E', symObjAddr: 0x149F8, symBinAddr: 0x10009C468, symSize: 0x14 }
  - { offset: 0x1025ED, size: 0x8, addend: 0x0, symName: '__ZN4core3num61_$LT$impl$u20$core..str..traits..FromStr$u20$for$u20$i128$GT$8from_str17h2a4702da5af302a0E', symObjAddr: 0x14A0C, symBinAddr: 0x10009C47C, symSize: 0x14 }
  - { offset: 0x10260E, size: 0x8, addend: 0x0, symName: '__ZN4core3num62_$LT$impl$u20$core..str..traits..FromStr$u20$for$u20$usize$GT$8from_str17hf9e07d683ede77eeE', symObjAddr: 0x14A20, symBinAddr: 0x10009C490, symSize: 0xEC }
  - { offset: 0x1026F9, size: 0x8, addend: 0x0, symName: '__ZN4core3num59_$LT$impl$u20$core..str..traits..FromStr$u20$for$u20$u8$GT$8from_str17h43f6812131f348edE', symObjAddr: 0x14B0C, symBinAddr: 0x10009C57C, symSize: 0x114 }
  - { offset: 0x1027CD, size: 0x8, addend: 0x0, symName: '__ZN4core3num60_$LT$impl$u20$core..str..traits..FromStr$u20$for$u20$u16$GT$8from_str17hf1657d67979f0177E', symObjAddr: 0x14C20, symBinAddr: 0x10009C690, symSize: 0x108 }
  - { offset: 0x10289A, size: 0x8, addend: 0x0, symName: '__ZN4core3num60_$LT$impl$u20$core..str..traits..FromStr$u20$for$u20$u32$GT$8from_str17h6d7d756488f756c5E', symObjAddr: 0x14D28, symBinAddr: 0x10009C798, symSize: 0x100 }
  - { offset: 0x102976, size: 0x8, addend: 0x0, symName: '__ZN4core3num60_$LT$impl$u20$core..str..traits..FromStr$u20$for$u20$u64$GT$8from_str17h34294198d98c6b80E', symObjAddr: 0x14E28, symBinAddr: 0x10009C898, symSize: 0xFC }
  - { offset: 0x102A52, size: 0x8, addend: 0x0, symName: '__ZN4core3num61_$LT$impl$u20$core..str..traits..FromStr$u20$for$u20$u128$GT$8from_str17hd1c99be2f626dc57E', symObjAddr: 0x14F24, symBinAddr: 0x10009C994, symSize: 0x130 }
  - { offset: 0x102B96, size: 0x8, addend: 0x0, symName: '__ZN4core3num20_$LT$impl$u20$i8$GT$14from_str_radix17ha24d34ee522eebdfE', symObjAddr: 0x15054, symBinAddr: 0x10009CAC4, symSize: 0x2D0 }
  - { offset: 0x102DF9, size: 0x8, addend: 0x0, symName: '__ZN4core3num21_$LT$impl$u20$i16$GT$14from_str_radix17hc61bf19d25a18ab7E', symObjAddr: 0x15534, symBinAddr: 0x10009CFA4, symSize: 0x318 }
  - { offset: 0x102FEC, size: 0x8, addend: 0x0, symName: '__ZN4core3num21_$LT$impl$u20$i32$GT$14from_str_radix17h8e9c62b239807a2eE', symObjAddr: 0x15A44, symBinAddr: 0x10009D4B4, symSize: 0x368 }
  - { offset: 0x10320C, size: 0x8, addend: 0x0, symName: '__ZN4core3num21_$LT$impl$u20$i64$GT$14from_str_radix17h18312e322105371cE', symObjAddr: 0x15FA8, symBinAddr: 0x10009DA18, symSize: 0x32C }
  - { offset: 0x10342C, size: 0x8, addend: 0x0, symName: '__ZN4core3num22_$LT$impl$u20$i128$GT$14from_str_radix17hfc151567b683eceeE', symObjAddr: 0x164B4, symBinAddr: 0x10009DF24, symSize: 0x3BC }
  - { offset: 0x103F50, size: 0x8, addend: 0x0, symName: __ZN4core5slice5index26slice_start_index_len_fail17heeb7c73b0ee7f95bE, symObjAddr: 0xDBC4, symBinAddr: 0x1000A72C4, symSize: 0x50 }
  - { offset: 0x103FA1, size: 0x8, addend: 0x0, symName: __ZN4core5slice5index24slice_end_index_len_fail17h19b63a1d9e216190E, symObjAddr: 0xDC14, symBinAddr: 0x1000A7314, symSize: 0x50 }
  - { offset: 0x103FF2, size: 0x8, addend: 0x0, symName: __ZN4core5slice5index22slice_index_order_fail17h7901222fde932354E, symObjAddr: 0xDC64, symBinAddr: 0x1000A7364, symSize: 0x50 }
  - { offset: 0x104036, size: 0x8, addend: 0x0, symName: __ZN4core5slice5index31slice_start_index_overflow_fail17hf3d0d97aec0adfbdE, symObjAddr: 0xDCB4, symBinAddr: 0x1000A73B4, symSize: 0x34 }
  - { offset: 0x104065, size: 0x8, addend: 0x0, symName: __ZN4core5slice5index29slice_end_index_overflow_fail17h6b68b51a71f9b7f8E, symObjAddr: 0xDCE8, symBinAddr: 0x1000A73E8, symSize: 0x34 }
  - { offset: 0x104094, size: 0x8, addend: 0x0, symName: __ZN4core5slice5index10into_range17h251b68a8734a4229E, symObjAddr: 0xDD1C, symBinAddr: 0x100095820, symSize: 0x68 }
  - { offset: 0x1040FC, size: 0x8, addend: 0x0, symName: __ZN4core5slice5index16into_slice_range17h128a28c0299e11ceE, symObjAddr: 0xDD84, symBinAddr: 0x100095888, symSize: 0x70 }
  - { offset: 0x104738, size: 0x8, addend: 0x0, symName: '__ZN4core5slice29_$LT$impl$u20$$u5b$T$u5d$$GT$15copy_from_slice17len_mismatch_fail17h7930df486473578bE', symObjAddr: 0xDDF4, symBinAddr: 0x1000A741C, symSize: 0x54 }
  - { offset: 0x10476E, size: 0x8, addend: 0x0, symName: '__ZN4core5slice29_$LT$impl$u20$$u5b$T$u5d$$GT$16align_to_offsets3gcd17ha36f5f3f3248249bE', symObjAddr: 0xDE48, symBinAddr: 0x1000958F8, symSize: 0x34 }
  - { offset: 0x1049E6, size: 0x8, addend: 0x0, symName: '__ZN105_$LT$core..slice..ascii..EscapeAscii$u20$as$u20$core..iter..traits..double_ended..DoubleEndedIterator$GT$9next_back17h611ebd9999dc2312E', symObjAddr: 0xD6B4, symBinAddr: 0x100095310, symSize: 0x1C8 }
  - { offset: 0x104D29, size: 0x8, addend: 0x0, symName: '__ZN70_$LT$core..slice..ascii..EscapeAscii$u20$as$u20$core..fmt..Display$GT$3fmt17hb901caf592943f9fE', symObjAddr: 0xD87C, symBinAddr: 0x1000954D8, symSize: 0x2DC }
  - { offset: 0x10520F, size: 0x8, addend: 0x0, symName: '__ZN68_$LT$core..slice..ascii..EscapeAscii$u20$as$u20$core..fmt..Debug$GT$3fmt17h0731fa8bf49c4093E', symObjAddr: 0xDB58, symBinAddr: 0x1000957B4, symSize: 0x6C }
  - { offset: 0x1052F8, size: 0x8, addend: 0x0, symName: __ZN4core5slice6memchr14memchr_aligned17h9605572b1583835fE, symObjAddr: 0xD440, symBinAddr: 0x10009509C, symSize: 0xE4 }
  - { offset: 0x1053A9, size: 0x8, addend: 0x0, symName: __ZN4core5slice6memchr7memrchr17heaf06d1080d07db5E, symObjAddr: 0xD524, symBinAddr: 0x100095180, symSize: 0x120 }
  - { offset: 0x105553, size: 0x8, addend: 0x0, symName: __ZN4core5slice4sort6stable5drift11sqrt_approx17ha12625d0527211e8E, symObjAddr: 0xD644, symBinAddr: 0x1000952A0, symSize: 0x38 }
  - { offset: 0x1055D0, size: 0x8, addend: 0x0, symName: __ZN4core5slice4sort6shared9smallsort22panic_on_ord_violation17h9a9b9a4ea28b52bfE, symObjAddr: 0xD67C, symBinAddr: 0x1000952D8, symSize: 0x38 }
  - { offset: 0x105B32, size: 0x8, addend: 0x0, symName: '__ZN68_$LT$core..ptr..alignment..Alignment$u20$as$u20$core..fmt..Debug$GT$3fmt17h49eeeede953128a1E', symObjAddr: 0x44CC, symBinAddr: 0x10008C660, symSize: 0x78 }
  - { offset: 0x105DF9, size: 0x8, addend: 0x0, symName: __ZN4core10intrinsics3mir11PtrMetadata19panic_cold_explicit17h3a6ca53a9562b437E, symObjAddr: 0x16B4C, symBinAddr: 0x1000A74B0, symSize: 0xC }
  - { offset: 0x10637B, size: 0x8, addend: 0x0, symName: __ZN4core6option13unwrap_failed17hb7af631ec4f78cd6E, symObjAddr: 0x79CC, symBinAddr: 0x1000A6E14, symSize: 0x1C }
  - { offset: 0x106396, size: 0x8, addend: 0x0, symName: __ZN4core6option13expect_failed17h5493e81bb7eff5a4E, symObjAddr: 0x79E8, symBinAddr: 0x1000A6E30, symSize: 0x48 }
  - { offset: 0x1068E5, size: 0x8, addend: 0x0, symName: '__ZN64_$LT$core..ops..range..RangeFull$u20$as$u20$core..fmt..Debug$GT$3fmt17h9eef6cbd1457ab28E', symObjAddr: 0x45FC, symBinAddr: 0x10008C790, symSize: 0x24 }
  - { offset: 0x10691B, size: 0x8, addend: 0x0, symName: '__ZN71_$LT$core..ops..range..Range$LT$Idx$GT$$u20$as$u20$core..fmt..Debug$GT$3fmt17h29adba8ea2157f9aE', symObjAddr: 0x4620, symBinAddr: 0x10008C7B4, symSize: 0x5C }
  - { offset: 0x106CC0, size: 0x8, addend: 0x0, symName: '__ZN76_$LT$core..mem..transmutability..Assume$u20$as$u20$core..ops..arith..Sub$GT$3sub17hc44f8a24846e6b12E', symObjAddr: 0x4484, symBinAddr: 0x10008C618, symSize: 0x48 }
  - { offset: 0x10718B, size: 0x8, addend: 0x0, symName: __ZN4core6result13unwrap_failed17h441932a0bca0dd7fE, symObjAddr: 0x7FDC, symBinAddr: 0x1000A7268, symSize: 0x5C }
  - { offset: 0x1071F6, size: 0x8, addend: 0x0, symName: '__ZN57_$LT$core..error..Request$u20$as$u20$core..fmt..Debug$GT$3fmt17hdffca44703f2b004E', symObjAddr: 0x4544, symBinAddr: 0x10008C6D8, symSize: 0x6C }
  - { offset: 0x10729D, size: 0x8, addend: 0x0, symName: '__ZN78_$LT$core..error..Source$u20$as$u20$core..iter..traits..iterator..Iterator$GT$4next17he1d6014321049b48E', symObjAddr: 0x45B0, symBinAddr: 0x10008C744, symSize: 0x4C }
  - { offset: 0x1072F0, size: 0x8, addend: 0x0, symName: '__ZN105_$LT$dyn$u20$core..any..Any$u2b$core..marker..Sync$u2b$core..marker..Send$u20$as$u20$core..fmt..Debug$GT$3fmt17hd3471d2dedf62c2aE', symObjAddr: 0x467C, symBinAddr: 0x10008C810, symSize: 0x6C }
  - { offset: 0x1073A8, size: 0x8, addend: 0x0, symName: '__ZN54_$LT$core..any..TypeId$u20$as$u20$core..fmt..Debug$GT$3fmt17h969b087f76988564E', symObjAddr: 0x46E8, symBinAddr: 0x10008C87C, symSize: 0x88 }
  - { offset: 0x10740D, size: 0x8, addend: 0x0, symName: '__ZN73_$LT$core..ascii..ascii_char..AsciiChar$u20$as$u20$core..fmt..Display$GT$3fmt17h9014a5eddd3d1f46E', symObjAddr: 0x4770, symBinAddr: 0x10008C904, symSize: 0x20 }
  - { offset: 0x107444, size: 0x8, addend: 0x0, symName: '__ZN71_$LT$core..ascii..ascii_char..AsciiChar$u20$as$u20$core..fmt..Debug$GT$3fmt17h3d477cf985d9b8ecE', symObjAddr: 0x4790, symBinAddr: 0x10008C924, symSize: 0x244 }
  - { offset: 0x10752F, size: 0x8, addend: 0x0, symName: __ZN4core5ascii14escape_default17h7982522a5498a21aE, symObjAddr: 0x49D4, symBinAddr: 0x10008CB68, symSize: 0xEC }
  - { offset: 0x1075C6, size: 0x8, addend: 0x0, symName: '__ZN65_$LT$core..ascii..EscapeDefault$u20$as$u20$core..fmt..Display$GT$3fmt17hd4e69fad10edf814E', symObjAddr: 0x4AC0, symBinAddr: 0x10008CC54, symSize: 0x2C }
  - { offset: 0x107653, size: 0x8, addend: 0x0, symName: '__ZN63_$LT$core..ascii..EscapeDefault$u20$as$u20$core..fmt..Debug$GT$3fmt17h314da98dc887c60eE', symObjAddr: 0x4AEC, symBinAddr: 0x10008CC80, symSize: 0x6C }
  - { offset: 0x107880, size: 0x8, addend: 0x0, symName: '__ZN60_$LT$core..cell..BorrowError$u20$as$u20$core..fmt..Debug$GT$3fmt17h5bb2602e76ff9ab7E', symObjAddr: 0x4B58, symBinAddr: 0x10008CCEC, symSize: 0x24 }
  - { offset: 0x1078E2, size: 0x8, addend: 0x0, symName: '__ZN62_$LT$core..cell..BorrowError$u20$as$u20$core..fmt..Display$GT$3fmt17h3079aa75db658313E', symObjAddr: 0x4B7C, symBinAddr: 0x10008CD10, symSize: 0x20 }
  - { offset: 0x107919, size: 0x8, addend: 0x0, symName: '__ZN63_$LT$core..cell..BorrowMutError$u20$as$u20$core..fmt..Debug$GT$3fmt17h04db5a1a63563147E', symObjAddr: 0x4B9C, symBinAddr: 0x10008CD30, symSize: 0x24 }
  - { offset: 0x10797B, size: 0x8, addend: 0x0, symName: '__ZN65_$LT$core..cell..BorrowMutError$u20$as$u20$core..fmt..Display$GT$3fmt17hf06f1d33d945d840E', symObjAddr: 0x4BC0, symBinAddr: 0x10008CD54, symSize: 0x20 }
  - { offset: 0x1079AD, size: 0x8, addend: 0x0, symName: __ZN4core4cell22panic_already_borrowed17h6986b058cdb2041aE, symObjAddr: 0x4BE0, symBinAddr: 0x1000A6D8C, symSize: 0x44 }
  - { offset: 0x1079DD, size: 0x8, addend: 0x0, symName: __ZN4core4cell30panic_already_mutably_borrowed17h42c3de88e18eb5adE, symObjAddr: 0x4C24, symBinAddr: 0x1000A6DD0, symSize: 0x44 }
  - { offset: 0x107A30, size: 0x8, addend: 0x0, symName: '__ZN74_$LT$core..char..convert..ParseCharError$u20$as$u20$core..fmt..Display$GT$3fmt17h8476793f33e3df38E', symObjAddr: 0x4C68, symBinAddr: 0x10008CD74, symSize: 0x44 }
  - { offset: 0x107A8D, size: 0x8, addend: 0x0, symName: '__ZN76_$LT$core..char..convert..CharTryFromError$u20$as$u20$core..fmt..Display$GT$3fmt17h6bccbabf040208dfE', symObjAddr: 0x4CAC, symBinAddr: 0x10008CDB8, symSize: 0x20 }
  - { offset: 0x107AFE, size: 0x8, addend: 0x0, symName: '__ZN75_$LT$core..char..decode..DecodeUtf16Error$u20$as$u20$core..fmt..Display$GT$3fmt17h588d331ebc65c3f3E', symObjAddr: 0x4CCC, symBinAddr: 0x10008CDD8, symSize: 0x4C }
  - { offset: 0x107B5D, size: 0x8, addend: 0x0, symName: '__ZN4core4char7methods22_$LT$impl$u20$char$GT$16escape_debug_ext17hd23bd4672e731b30E', symObjAddr: 0x4D18, symBinAddr: 0x10008CE24, symSize: 0x284 }
  - { offset: 0x107DA2, size: 0x8, addend: 0x0, symName: '__ZN64_$LT$core..char..EscapeDefault$u20$as$u20$core..fmt..Display$GT$3fmt17h197e0df026e9ed18E', symObjAddr: 0x4F9C, symBinAddr: 0x10008D0A8, symSize: 0x2C }
  - { offset: 0x107E32, size: 0x8, addend: 0x0, symName: '__ZN62_$LT$core..char..EscapeDebug$u20$as$u20$core..fmt..Display$GT$3fmt17ha39332f469cf9275E', symObjAddr: 0x4FC8, symBinAddr: 0x10008D0D4, symSize: 0x50 }
  - { offset: 0x107EDE, size: 0x8, addend: 0x0, symName: '__ZN86_$LT$core..char..CaseMappingIter$u20$as$u20$core..iter..traits..iterator..Iterator$GT$4next17h17e9bde8e0bed796E', symObjAddr: 0x5018, symBinAddr: 0x10008D124, symSize: 0x34 }
  - { offset: 0x107FF0, size: 0x8, addend: 0x0, symName: '__ZN86_$LT$core..char..CaseMappingIter$u20$as$u20$core..iter..traits..iterator..Iterator$GT$9size_hint17h00ca8d9761396e88E', symObjAddr: 0x504C, symBinAddr: 0x10008D158, symSize: 0x24 }
  - { offset: 0x10805B, size: 0x8, addend: 0x0, symName: '__ZN86_$LT$core..char..CaseMappingIter$u20$as$u20$core..iter..traits..iterator..Iterator$GT$5count17hfb0b1e5a9c5a501bE', symObjAddr: 0x5070, symBinAddr: 0x10008D17C, symSize: 0x18 }
  - { offset: 0x1080C6, size: 0x8, addend: 0x0, symName: '__ZN86_$LT$core..char..CaseMappingIter$u20$as$u20$core..iter..traits..iterator..Iterator$GT$4last17hf06ae49a78904f43E', symObjAddr: 0x5088, symBinAddr: 0x10008D194, symSize: 0x48 }
  - { offset: 0x1081F1, size: 0x8, addend: 0x0, symName: '__ZN86_$LT$core..char..CaseMappingIter$u20$as$u20$core..iter..traits..iterator..Iterator$GT$10advance_by17h37926f7edf0ac2e1E', symObjAddr: 0x50D0, symBinAddr: 0x10008D1DC, symSize: 0x2C }
  - { offset: 0x1082D1, size: 0x8, addend: 0x0, symName: '__ZN101_$LT$core..char..CaseMappingIter$u20$as$u20$core..iter..traits..double_ended..DoubleEndedIterator$GT$9next_back17hc4dcb381014fa1d4E', symObjAddr: 0x50FC, symBinAddr: 0x10008D208, symSize: 0x34 }
  - { offset: 0x1083E6, size: 0x8, addend: 0x0, symName: '__ZN101_$LT$core..char..CaseMappingIter$u20$as$u20$core..iter..traits..double_ended..DoubleEndedIterator$GT$15advance_back_by17h7ecd8b9b37406f69E', symObjAddr: 0x5130, symBinAddr: 0x10008D23C, symSize: 0x30 }
  - { offset: 0x1084AE, size: 0x8, addend: 0x0, symName: '__ZN97_$LT$core..char..CaseMappingIter$u20$as$u20$core..iter..traits..exact_size..ExactSizeIterator$GT$3len17h498061c108700859E', symObjAddr: 0x5160, symBinAddr: 0x10008D26C, symSize: 0x18 }
  - { offset: 0x108503, size: 0x8, addend: 0x0, symName: '__ZN97_$LT$core..char..CaseMappingIter$u20$as$u20$core..iter..traits..exact_size..ExactSizeIterator$GT$8is_empty17h5ed5b55a37a8beceE', symObjAddr: 0x5178, symBinAddr: 0x10008D284, symSize: 0x1C }
  - { offset: 0x10858F, size: 0x8, addend: 0x0, symName: '__ZN67_$LT$core..char..TryFromCharError$u20$as$u20$core..fmt..Display$GT$3fmt17heb6d126d3f869960E', symObjAddr: 0x5194, symBinAddr: 0x10008D2A0, symSize: 0x20 }
  - { offset: 0x1085FC, size: 0x8, addend: 0x0, symName: '__ZN82_$LT$core..char..ToLowercase$u20$as$u20$core..iter..traits..iterator..Iterator$GT$4next17h88e43f5269fd7ec7E', symObjAddr: 0x16B58, symBinAddr: 0x10009E5BC, symSize: 0x34 }
  - { offset: 0x10872B, size: 0x8, addend: 0x0, symName: '__ZN82_$LT$core..char..ToLowercase$u20$as$u20$core..iter..traits..iterator..Iterator$GT$9size_hint17he88546fb471a6e89E', symObjAddr: 0x16B8C, symBinAddr: 0x10009E5F0, symSize: 0x24 }
  - { offset: 0x1087B3, size: 0x8, addend: 0x0, symName: '__ZN82_$LT$core..char..ToLowercase$u20$as$u20$core..iter..traits..iterator..Iterator$GT$5count17hb775f7eb32328307E', symObjAddr: 0x16BB0, symBinAddr: 0x10009E614, symSize: 0x18 }
  - { offset: 0x10883B, size: 0x8, addend: 0x0, symName: '__ZN82_$LT$core..char..ToLowercase$u20$as$u20$core..iter..traits..iterator..Iterator$GT$4last17hba2bd9f438035af0E', symObjAddr: 0x16BC8, symBinAddr: 0x10009E62C, symSize: 0x48 }
  - { offset: 0x108983, size: 0x8, addend: 0x0, symName: '__ZN82_$LT$core..char..ToLowercase$u20$as$u20$core..iter..traits..iterator..Iterator$GT$10advance_by17h72957e3662a33793E', symObjAddr: 0x16C10, symBinAddr: 0x10009E674, symSize: 0x2C }
  - { offset: 0x108A3A, size: 0x8, addend: 0x0, symName: '__ZN97_$LT$core..char..ToLowercase$u20$as$u20$core..iter..traits..double_ended..DoubleEndedIterator$GT$9next_back17h85dba6540b7602cdE', symObjAddr: 0x16C3C, symBinAddr: 0x10009E6A0, symSize: 0x34 }
  - { offset: 0x108B6C, size: 0x8, addend: 0x0, symName: '__ZN97_$LT$core..char..ToLowercase$u20$as$u20$core..iter..traits..double_ended..DoubleEndedIterator$GT$15advance_back_by17hc5063fd03cd48053E', symObjAddr: 0x16C70, symBinAddr: 0x10009E6D4, symSize: 0x30 }
  - { offset: 0x108C35, size: 0x8, addend: 0x0, symName: '__ZN93_$LT$core..char..ToLowercase$u20$as$u20$core..iter..traits..exact_size..ExactSizeIterator$GT$3len17h28d265ed015e5ba9E', symObjAddr: 0x16CA0, symBinAddr: 0x10009E704, symSize: 0x18 }
  - { offset: 0x108CA7, size: 0x8, addend: 0x0, symName: '__ZN93_$LT$core..char..ToLowercase$u20$as$u20$core..iter..traits..exact_size..ExactSizeIterator$GT$8is_empty17h3ab68666f05e8b6dE', symObjAddr: 0x16CB8, symBinAddr: 0x10009E71C, symSize: 0x1C }
  - { offset: 0x108D48, size: 0x8, addend: 0x0, symName: '__ZN62_$LT$core..char..ToLowercase$u20$as$u20$core..fmt..Display$GT$3fmt17hfd9ad6f567c04fd4E', symObjAddr: 0x16CD4, symBinAddr: 0x10009E738, symSize: 0xF0 }
  - { offset: 0x108FA6, size: 0x8, addend: 0x0, symName: __ZN4core7unicode12unicode_data15grapheme_extend11lookup_slow17h06fe177712a92206E, symObjAddr: 0x1C664, symBinAddr: 0x1000A3D20, symSize: 0x130 }
  - { offset: 0x1091AE, size: 0x8, addend: 0x0, symName: __ZN4core7unicode12unicode_data10alphabetic6lookup17he22c9deec920dbcbE, symObjAddr: 0x1C294, symBinAddr: 0x1000A3950, symSize: 0x130 }
  - { offset: 0x10932C, size: 0x8, addend: 0x0, symName: __ZN4core7unicode12unicode_data14case_ignorable6lookup17he1b8b339847b061fE, symObjAddr: 0x1C3C4, symBinAddr: 0x1000A3A80, symSize: 0x130 }
  - { offset: 0x1094AA, size: 0x8, addend: 0x0, symName: __ZN4core7unicode12unicode_data5cased6lookup17h4d33f2ba3e5100c1E, symObjAddr: 0x1C4F4, symBinAddr: 0x1000A3BB0, symSize: 0x130 }
  - { offset: 0x10960E, size: 0x8, addend: 0x0, symName: __ZN4core7unicode12unicode_data2cc6lookup17hf3cf38a12193eccbE, symObjAddr: 0x1C624, symBinAddr: 0x1000A3CE0, symSize: 0x40 }
  - { offset: 0x10969C, size: 0x8, addend: 0x0, symName: __ZN4core7unicode12unicode_data9lowercase6lookup17he747ca90b4c9a93fE, symObjAddr: 0x1C794, symBinAddr: 0x1000A3E50, symSize: 0x104 }
  - { offset: 0x109707, size: 0x8, addend: 0x0, symName: __ZN4core7unicode12unicode_data1n6lookup17h59a181c87a4627feE, symObjAddr: 0x1C898, symBinAddr: 0x1000A3F54, symSize: 0x130 }
  - { offset: 0x10986D, size: 0x8, addend: 0x0, symName: __ZN4core7unicode12unicode_data9uppercase6lookup17h38074690cf864388E, symObjAddr: 0x1C9C8, symBinAddr: 0x1000A4084, symSize: 0x104 }
  - { offset: 0x1098C5, size: 0x8, addend: 0x0, symName: __ZN4core7unicode12unicode_data11conversions8to_lower17h513cda0fd065fb61E, symObjAddr: 0x1CACC, symBinAddr: 0x1000A4188, symSize: 0xB4 }
  - { offset: 0x1099FC, size: 0x8, addend: 0x0, symName: __ZN4core7unicode12unicode_data11conversions8to_upper17h947a04462cc7e6b4E, symObjAddr: 0x1CB80, symBinAddr: 0x1000A423C, symSize: 0xCC }
  - { offset: 0x109B8C, size: 0x8, addend: 0x0, symName: __ZN4core7unicode9printable12is_printable17h03c837c61ee3f622E, symObjAddr: 0x10C8C, symBinAddr: 0x1000986FC, symSize: 0x2D8 }
  - { offset: 0x109FEA, size: 0x8, addend: 0x0, symName: '__ZN79_$LT$core..ffi..c_str..FromBytesUntilNulError$u20$as$u20$core..fmt..Display$GT$3fmt17h724e4e8d4464d483E', symObjAddr: 0x51B4, symBinAddr: 0x10008D2C0, symSize: 0x24 }
  - { offset: 0x10A020, size: 0x8, addend: 0x0, symName: '__ZN59_$LT$core..ffi..c_str..CStr$u20$as$u20$core..fmt..Debug$GT$3fmt17h079bcbad2dbe8093E', symObjAddr: 0x51D8, symBinAddr: 0x10008D2E4, symSize: 0x6C }
  - { offset: 0x10A0D2, size: 0x8, addend: 0x0, symName: '__ZN78_$LT$core..ffi..c_str..FromBytesWithNulError$u20$as$u20$core..fmt..Display$GT$3fmt17h37de60a23582c55eE', symObjAddr: 0x5244, symBinAddr: 0x10008D350, symSize: 0xB4 }
  - { offset: 0x10A0EF, size: 0x8, addend: 0x0, symName: '__ZN78_$LT$core..ffi..c_str..FromBytesWithNulError$u20$as$u20$core..fmt..Display$GT$3fmt17h37de60a23582c55eE', symObjAddr: 0x5244, symBinAddr: 0x10008D350, symSize: 0xB4 }
  - { offset: 0x10A166, size: 0x8, addend: 0x0, symName: __ZN4core3ffi5c_str4CStr20from_bytes_until_nul17ha0f274a112f50d60E, symObjAddr: 0x52F8, symBinAddr: 0x10008D404, symSize: 0xE0 }
