---
triple:          'arm64-apple-darwin'
binary-path:     '/Users/abhi/Documents/Manual Library/projects/web-scraper-cli/src/learning/grrs/target/debug/deps/libclap_derive-9c9feb79c6701ae2.dylib'
relocations:
  - { offset: 0x1E, size: 0x8, addend: 0x0, symName: __RINvXNtNtCs69QEzRJvHMp_5alloc5slice4hackNtNtCsehVGFPP7CiK_11clap_derive4item11DeprecationNtB3_10ConvertVec6to_vecNtNtB7_5alloc6GlobalEBG_, symObjAddr: 0x0, symBinAddr: 0x4610, symSize: 0x34C }
  - { offset: 0x1AE7, size: 0x8, addend: 0x0, symName: __RNvMNtCsliVzVx4luf9_4core5sliceSNtNtCsehVGFPP7CiK_11clap_derive4item11Deprecation4iterBy_, symObjAddr: 0x6B0, symBinAddr: 0x4CC0, symSize: 0x28 }
  - { offset: 0x1B1E, size: 0x8, addend: 0x0, symName: __RNvMNtCsliVzVx4luf9_4core5sliceSNtNtCsehVGFPP7CiK_11clap_derive4item6Method4iterBy_, symObjAddr: 0x6D8, symBinAddr: 0x4CE8, symSize: 0x28 }
  - { offset: 0x1B55, size: 0x8, addend: 0x0, symName: __RNvMNtCsliVzVx4luf9_4core5sliceSRNtNtCsehVGFPP7CiK_11clap_derive4item4Name4iterBz_, symObjAddr: 0x700, symBinAddr: 0x4D10, symSize: 0x28 }
  - { offset: 0x3E64, size: 0x8, addend: 0x0, symName: __RNvYNtNtCsehVGFPP7CiK_11clap_derive4item11CasingStyleNtNtCsliVzVx4luf9_4core3cmp9PartialEq2neB6_, symObjAddr: 0x828, symBinAddr: 0x4E38, symSize: 0x30 }
  - { offset: 0x3EBF, size: 0x8, addend: 0x0, symName: __RNvYNtNtCsehVGFPP7CiK_11clap_derive4item11CasingStyleNtNtCsliVzVx4luf9_4core5clone5Clone10clone_fromB6_, symObjAddr: 0x858, symBinAddr: 0x4E68, symSize: 0x48 }
  - { offset: 0x3EFE, size: 0x8, addend: 0x0, symName: __RNvYNtNtCsehVGFPP7CiK_11clap_derive4item11DeprecationNtNtCsliVzVx4luf9_4core5clone5Clone10clone_fromB6_, symObjAddr: 0x990, symBinAddr: 0x4FA0, symSize: 0x84 }
  - { offset: 0x3F3D, size: 0x8, addend: 0x0, symName: __RNvYNtNtCsehVGFPP7CiK_11clap_derive4item11ValueParserNtNtCsliVzVx4luf9_4core5clone5Clone10clone_fromB6_, symObjAddr: 0xA14, symBinAddr: 0x5024, symSize: 0x84 }
  - { offset: 0x3F7C, size: 0x8, addend: 0x0, symName: __RNvYNtNtCsehVGFPP7CiK_11clap_derive4item4ItemNtNtCsliVzVx4luf9_4core5clone5Clone10clone_fromB6_, symObjAddr: 0xA98, symBinAddr: 0x50A8, symSize: 0x8C }
  - { offset: 0x3FBB, size: 0x8, addend: 0x0, symName: __RNvYNtNtCsehVGFPP7CiK_11clap_derive4item4KindNtNtCsliVzVx4luf9_4core5clone5Clone10clone_fromB6_, symObjAddr: 0xB24, symBinAddr: 0x5134, symSize: 0x84 }
  - { offset: 0x3FFA, size: 0x8, addend: 0x0, symName: __RNvYNtNtCsehVGFPP7CiK_11clap_derive4item4NameNtNtCsliVzVx4luf9_4core5clone5Clone10clone_fromB6_, symObjAddr: 0xC98, symBinAddr: 0x52A8, symSize: 0x84 }
  - { offset: 0x4039, size: 0x8, addend: 0x0, symName: __RNvYNtNtCsehVGFPP7CiK_11clap_derive4item6ActionNtNtCsliVzVx4luf9_4core5clone5Clone10clone_fromB6_, symObjAddr: 0xD1C, symBinAddr: 0x532C, symSize: 0x84 }
  - { offset: 0x4078, size: 0x8, addend: 0x0, symName: __RNvYNtNtCsehVGFPP7CiK_11clap_derive4item6MethodNtNtCsliVzVx4luf9_4core5clone5Clone10clone_fromB6_, symObjAddr: 0xE90, symBinAddr: 0x54A0, symSize: 0x84 }
  - { offset: 0x56A4, size: 0x8, addend: 0x0, symName: __RNCNvMNtCsehVGFPP7CiK_11clap_derive4itemNtB4_4Item10infer_kind0B6_, symObjAddr: 0x5990, symBinAddr: 0x9FA0, symSize: 0x48 }
  - { offset: 0x56D4, size: 0x8, addend: 0x0, symName: __RNCNvMNtCsehVGFPP7CiK_11clap_derive4itemNtB4_4Item10infer_kinds_0B6_, symObjAddr: 0x59D8, symBinAddr: 0x9FE8, symSize: 0x48 }
  - { offset: 0x5704, size: 0x8, addend: 0x0, symName: __RNCNvMNtCsehVGFPP7CiK_11clap_derive4itemNtB4_4Item10infer_kinds0_0B6_, symObjAddr: 0x5A20, symBinAddr: 0xA030, symSize: 0x48 }
  - { offset: 0x573A, size: 0x8, addend: 0x0, symName: __RNCNvMNtCsehVGFPP7CiK_11clap_derive4itemNtB4_4Item10push_attrs0B6_, symObjAddr: 0x131B0, symBinAddr: 0x177C0, symSize: 0x40 }
  - { offset: 0x5773, size: 0x8, addend: 0x0, symName: __RNCNvMNtCsehVGFPP7CiK_11clap_derive4itemNtB4_4Item10push_attrss_0B6_, symObjAddr: 0x131F0, symBinAddr: 0x17800, symSize: 0x40 }
  - { offset: 0x57AC, size: 0x8, addend: 0x0, symName: __RNCNvMNtCsehVGFPP7CiK_11clap_derive4itemNtB4_4Item10push_attrss0_0B6_, symObjAddr: 0x13230, symBinAddr: 0x17840, symSize: 0x40 }
  - { offset: 0x57E5, size: 0x8, addend: 0x0, symName: __RNCNvMNtCsehVGFPP7CiK_11clap_derive4itemNtB4_4Item10push_attrss1_0B6_, symObjAddr: 0x13270, symBinAddr: 0x17880, symSize: 0x40 }
  - { offset: 0x5840, size: 0x8, addend: 0x0, symName: __RNCNvMNtCsehVGFPP7CiK_11clap_derive4itemNtB4_4Item16push_doc_comment0B6_, symObjAddr: 0x13884, symBinAddr: 0x17E94, symSize: 0xAC }
  - { offset: 0x5890, size: 0x8, addend: 0x0, symName: __RNCNvMNtCsehVGFPP7CiK_11clap_derive4itemNtB4_4Item16push_doc_comments_0B6_, symObjAddr: 0x13930, symBinAddr: 0x17F40, symSize: 0x90 }
  - { offset: 0x58D0, size: 0x8, addend: 0x0, symName: __RNCNvMNtCsehVGFPP7CiK_11clap_derive4itemNtB4_4Item16push_doc_comments0_0B6_, symObjAddr: 0x139C0, symBinAddr: 0x17FD0, symSize: 0xAC }
  - { offset: 0x5920, size: 0x8, addend: 0x0, symName: __RNCNvMNtCsehVGFPP7CiK_11clap_derive4itemNtB4_4Item16push_doc_comments1_0B6_, symObjAddr: 0x13A6C, symBinAddr: 0x1807C, symSize: 0x90 }
  - { offset: 0x5982, size: 0x8, addend: 0x0, symName: __RNCNvMNtCsehVGFPP7CiK_11clap_derive4itemNtB4_4Item19find_default_method0B6_, symObjAddr: 0x14008, symBinAddr: 0x18618, symSize: 0x9C }
  - { offset: 0x59C8, size: 0x8, addend: 0x0, symName: __RNCNvMNtCsehVGFPP7CiK_11clap_derive4itemNtB4_4Item12value_parser0B6_, symObjAddr: 0x14D30, symBinAddr: 0x19340, symSize: 0xBC }
  - { offset: 0x5A26, size: 0x8, addend: 0x0, symName: __RNCNvMNtCsehVGFPP7CiK_11clap_derive4itemNtB4_4Item12value_parsers_0B6_, symObjAddr: 0x14DEC, symBinAddr: 0x193FC, symSize: 0xDC }
  - { offset: 0x5AE4, size: 0x8, addend: 0x0, symName: __RNCNCNvMNtCsehVGFPP7CiK_11clap_derive4itemNtB6_4Item12value_parsers_00B8_, symObjAddr: 0x14EC8, symBinAddr: 0x194D8, symSize: 0x34 }
  - { offset: 0x5B1D, size: 0x8, addend: 0x0, symName: __RNCNCNvMNtCsehVGFPP7CiK_11clap_derive4itemNtB6_4Item12value_parsers_0s_0B8_, symObjAddr: 0x14EFC, symBinAddr: 0x1950C, symSize: 0x38 }
  - { offset: 0x5B5B, size: 0x8, addend: 0x0, symName: __RNCNvMNtCsehVGFPP7CiK_11clap_derive4itemNtB4_4Item6action0B6_, symObjAddr: 0x14FB0, symBinAddr: 0x195C0, symSize: 0x3C }
  - { offset: 0x5B9B, size: 0x8, addend: 0x0, symName: __RNCNvMNtCsehVGFPP7CiK_11clap_derive4itemNtB4_4Item6actions_0B6_, symObjAddr: 0x14FEC, symBinAddr: 0x195FC, symSize: 0xCC }
  - { offset: 0x5C3B, size: 0x8, addend: 0x0, symName: __RNCNCNvMNtCsehVGFPP7CiK_11clap_derive4itemNtB6_4Item6actions_00B8_, symObjAddr: 0x150B8, symBinAddr: 0x196C8, symSize: 0x34 }
  - { offset: 0x5C74, size: 0x8, addend: 0x0, symName: __RNCNCNvMNtCsehVGFPP7CiK_11clap_derive4itemNtB6_4Item6actions_0s_0B8_, symObjAddr: 0x150EC, symBinAddr: 0x196FC, symSize: 0x38 }
  - { offset: 0x5CB2, size: 0x8, addend: 0x0, symName: __RNCNvMNtCsehVGFPP7CiK_11clap_derive4itemNtB4_4Item20has_explicit_methods0B6_, symObjAddr: 0x15230, symBinAddr: 0x19840, symSize: 0x8C }
  - { offset: 0x5CF4, size: 0x8, addend: 0x0, symName: __RNvNtCsehVGFPP7CiK_11clap_derive4item20default_value_parser, symObjAddr: 0x1548C, symBinAddr: 0x19A9C, symSize: 0x20C }
  - { offset: 0x5D92, size: 0x8, addend: 0x0, symName: __RNvNtCsehVGFPP7CiK_11clap_derive4item14default_action, symObjAddr: 0x1583C, symBinAddr: 0x19E4C, symSize: 0x538 }
  - { offset: 0x5EF0, size: 0x8, addend: 0x0, symName: __RNvXs3_NtCsehVGFPP7CiK_11clap_derive4itemNtB5_6MethodNtNtCs5Bhy1SxosHa_5quote9to_tokens8ToTokens9to_tokens, symObjAddr: 0x16AC4, symBinAddr: 0x1B0D4, symSize: 0x138 }
  - { offset: 0x5FA0, size: 0x8, addend: 0x0, symName: __RNvXs5_NtCsehVGFPP7CiK_11clap_derive4itemNtB5_11DeprecationNtNtCs5Bhy1SxosHa_5quote9to_tokens8ToTokens9to_tokens, symObjAddr: 0x16D84, symBinAddr: 0x1B394, symSize: 0x88 }
  - { offset: 0x5FF8, size: 0x8, addend: 0x0, symName: __RNvNtCsehVGFPP7CiK_11clap_derive4item16assert_attr_kind, symObjAddr: 0x16E0C, symBinAddr: 0x1B41C, symSize: 0x380 }
  - { offset: 0x6226, size: 0x8, addend: 0x0, symName: __RNCNvNtCsehVGFPP7CiK_11clap_derive4item16assert_attr_kind0B5_, symObjAddr: 0x1718C, symBinAddr: 0x1B79C, symSize: 0x120 }
  - { offset: 0x6383, size: 0x8, addend: 0x0, symName: __RNvNtCsehVGFPP7CiK_11clap_derive4item18process_author_str, symObjAddr: 0x172AC, symBinAddr: 0x1B8BC, symSize: 0x2CC }
  - { offset: 0x6414, size: 0x8, addend: 0x0, symName: __RNCNvMs6_NtCsehVGFPP7CiK_11clap_derive4itemNtB7_11CasingStyle8from_lit0B9_, symObjAddr: 0x17DF0, symBinAddr: 0x1C400, symSize: 0x4C }
  - { offset: 0x646E, size: 0x8, addend: 0x0, symName: __RNvXs8_NtCsehVGFPP7CiK_11clap_derive4itemNtB5_4NameNtNtCs5Bhy1SxosHa_5quote9to_tokens8ToTokens9to_tokens, symObjAddr: 0x18A88, symBinAddr: 0x1D098, symSize: 0x1B8 }
  - { offset: 0x6516, size: 0x8, addend: 0x0, symName: __RNvXs9_NtCsehVGFPP7CiK_11clap_derive4itemNtB5_4ItemNtNtCsliVzVx4luf9_4core5clone5Clone5cloneB7_, symObjAddr: 0x18C40, symBinAddr: 0x1D250, symSize: 0x418 }
  - { offset: 0x6548, size: 0x8, addend: 0x0, symName: __RNvXsa_NtCsehVGFPP7CiK_11clap_derive4itemNtB5_11ValueParserNtNtCsliVzVx4luf9_4core5clone5Clone5cloneB7_, symObjAddr: 0x19058, symBinAddr: 0x1D668, symSize: 0xAC }
  - { offset: 0x65B8, size: 0x8, addend: 0x0, symName: __RNvXsb_NtCsehVGFPP7CiK_11clap_derive4itemNtB5_6ActionNtNtCsliVzVx4luf9_4core5clone5Clone5cloneB7_, symObjAddr: 0x19104, symBinAddr: 0x1D714, symSize: 0xAC }
  - { offset: 0x6628, size: 0x8, addend: 0x0, symName: __RNvXsc_NtCsehVGFPP7CiK_11clap_derive4itemNtB5_4KindNtNtCsliVzVx4luf9_4core5clone5Clone5cloneB7_, symObjAddr: 0x191B0, symBinAddr: 0x1D7C0, symSize: 0x22C }
  - { offset: 0x671C, size: 0x8, addend: 0x0, symName: __RNvXsd_NtCsehVGFPP7CiK_11clap_derive4itemNtB5_6MethodNtNtCsliVzVx4luf9_4core5clone5Clone5cloneB7_, symObjAddr: 0x193DC, symBinAddr: 0x1D9EC, symSize: 0x8C }
  - { offset: 0x6750, size: 0x8, addend: 0x0, symName: __RNvXse_NtCsehVGFPP7CiK_11clap_derive4itemNtB5_11DeprecationNtNtCsliVzVx4luf9_4core5clone5Clone5cloneB7_, symObjAddr: 0x19468, symBinAddr: 0x1DA78, symSize: 0xB0 }
  - { offset: 0x67C0, size: 0x8, addend: 0x0, symName: __RNvXsg_NtCsehVGFPP7CiK_11clap_derive4itemNtB5_11CasingStyleNtNtCsliVzVx4luf9_4core5clone5Clone5cloneB7_, symObjAddr: 0x19518, symBinAddr: 0x1DB28, symSize: 0x18 }
  - { offset: 0x67F4, size: 0x8, addend: 0x0, symName: __RNvXsh_NtCsehVGFPP7CiK_11clap_derive4itemNtB5_11CasingStyleNtNtCsliVzVx4luf9_4core3fmt5Debug3fmtB7_, symObjAddr: 0x19530, symBinAddr: 0x1DB40, symSize: 0x16C }
  - { offset: 0x6837, size: 0x8, addend: 0x0, symName: __RNvXsj_NtCsehVGFPP7CiK_11clap_derive4itemNtB5_11CasingStyleNtNtCsliVzVx4luf9_4core3cmp9PartialEq2eqB7_, symObjAddr: 0x1969C, symBinAddr: 0x1DCAC, symSize: 0x34 }
  - { offset: 0x68B6, size: 0x8, addend: 0x0, symName: __RNvXsk_NtCsehVGFPP7CiK_11clap_derive4itemNtB5_11CasingStyleNtNtCsliVzVx4luf9_4core3cmp2Eq27assert_receiver_is_total_eqB7_, symObjAddr: 0x196D0, symBinAddr: 0x1DCE0, symSize: 0x10 }
  - { offset: 0x68E6, size: 0x8, addend: 0x0, symName: __RNvXsl_NtCsehVGFPP7CiK_11clap_derive4itemNtB5_4NameNtNtCsliVzVx4luf9_4core5clone5Clone5cloneB7_, symObjAddr: 0x196E0, symBinAddr: 0x1DCF0, symSize: 0xA4 }
  - { offset: 0x7E91, size: 0x8, addend: 0x0, symName: __RINvXNtNtCs69QEzRJvHMp_5alloc5slice4hackNtNtCsehVGFPP7CiK_11clap_derive4item11DeprecationNtB3_10ConvertVec6to_vecNtNtB7_5alloc6GlobalEBG_, symObjAddr: 0x0, symBinAddr: 0x4610, symSize: 0x34C }
  - { offset: 0x8480, size: 0x8, addend: 0x0, symName: __RINvXNtNtCs69QEzRJvHMp_5alloc5slice4hackNtNtCsehVGFPP7CiK_11clap_derive4item6MethodNtB3_10ConvertVec6to_vecNtNtB7_5alloc6GlobalEBG_, symObjAddr: 0x34C, symBinAddr: 0x495C, symSize: 0x364 }
  - { offset: 0x935C, size: 0x8, addend: 0x0, symName: __RNvXNtCs5Bhy1SxosHa_5quote9to_tokensRNtNtCsehVGFPP7CiK_11clap_derive4item11DeprecationNtB2_8ToTokens9to_tokensBD_, symObjAddr: 0x728, symBinAddr: 0x4D38, symSize: 0x40 }
  - { offset: 0x939B, size: 0x8, addend: 0x0, symName: __RNvXNtCs5Bhy1SxosHa_5quote9to_tokensRNtNtCsehVGFPP7CiK_11clap_derive4item4NameNtB2_8ToTokens9to_tokensBD_, symObjAddr: 0x768, symBinAddr: 0x4D78, symSize: 0x40 }
  - { offset: 0x93DA, size: 0x8, addend: 0x0, symName: __RNvXNtCs5Bhy1SxosHa_5quote9to_tokensRNtNtCsehVGFPP7CiK_11clap_derive4item6MethodNtB2_8ToTokens9to_tokensBD_, symObjAddr: 0x7A8, symBinAddr: 0x4DB8, symSize: 0x40 }
  - { offset: 0x9419, size: 0x8, addend: 0x0, symName: __RNvXNtCs5Bhy1SxosHa_5quote9to_tokensRRNtNtCsehVGFPP7CiK_11clap_derive4item4NameNtB2_8ToTokens9to_tokensBE_, symObjAddr: 0x7E8, symBinAddr: 0x4DF8, symSize: 0x40 }
  - { offset: 0x945E, size: 0x8, addend: 0x0, symName: __RNvYNtNtCsehVGFPP7CiK_11clap_derive4item11DeprecationNtNtCs5Bhy1SxosHa_5quote9to_tokens8ToTokens15to_token_streamB6_, symObjAddr: 0x8A0, symBinAddr: 0x4EB0, symSize: 0x8C }
  - { offset: 0x94A8, size: 0x8, addend: 0x0, symName: __RNvYNtNtCsehVGFPP7CiK_11clap_derive4item11DeprecationNtNtCs5Bhy1SxosHa_5quote9to_tokens8ToTokens17into_token_streamB6_, symObjAddr: 0x92C, symBinAddr: 0x4F3C, symSize: 0x64 }
  - { offset: 0x94DE, size: 0x8, addend: 0x0, symName: __RNvYNtNtCsehVGFPP7CiK_11clap_derive4item4NameNtNtCs5Bhy1SxosHa_5quote9to_tokens8ToTokens15to_token_streamB6_, symObjAddr: 0xBA8, symBinAddr: 0x51B8, symSize: 0x8C }
  - { offset: 0x9528, size: 0x8, addend: 0x0, symName: __RNvYNtNtCsehVGFPP7CiK_11clap_derive4item4NameNtNtCs5Bhy1SxosHa_5quote9to_tokens8ToTokens17into_token_streamB6_, symObjAddr: 0xC34, symBinAddr: 0x5244, symSize: 0x64 }
  - { offset: 0x955E, size: 0x8, addend: 0x0, symName: __RNvYNtNtCsehVGFPP7CiK_11clap_derive4item6MethodNtNtCs5Bhy1SxosHa_5quote9to_tokens8ToTokens15to_token_streamB6_, symObjAddr: 0xDA0, symBinAddr: 0x53B0, symSize: 0x8C }
  - { offset: 0x95A8, size: 0x8, addend: 0x0, symName: __RNvYNtNtCsehVGFPP7CiK_11clap_derive4item6MethodNtNtCs5Bhy1SxosHa_5quote9to_tokens8ToTokens17into_token_streamB6_, symObjAddr: 0xE2C, symBinAddr: 0x543C, symSize: 0x64 }
  - { offset: 0xE894, size: 0x8, addend: 0x0, symName: __RNvMNtCsehVGFPP7CiK_11clap_derive4itemNtB2_4Item16from_args_struct, symObjAddr: 0xF14, symBinAddr: 0x5524, symSize: 0x544 }
  - { offset: 0xE9EC, size: 0x8, addend: 0x0, symName: __RNvMNtCsehVGFPP7CiK_11clap_derive4itemNtB2_4Item20from_subcommand_enum, symObjAddr: 0x1458, symBinAddr: 0x5A68, symSize: 0x544 }
  - { offset: 0xEC4A, size: 0x8, addend: 0x0, symName: __RNvMNtCsehVGFPP7CiK_11clap_derive4itemNtB2_4Item15from_value_enum, symObjAddr: 0x199C, symBinAddr: 0x5FAC, symSize: 0x660 }
  - { offset: 0xEE61, size: 0x8, addend: 0x0, symName: __RNvMNtCsehVGFPP7CiK_11clap_derive4itemNtB2_4Item23from_subcommand_variant, symObjAddr: 0x1FFC, symBinAddr: 0x660C, symSize: 0x844 }
  - { offset: 0xF00D, size: 0x8, addend: 0x0, symName: __RNvMNtCsehVGFPP7CiK_11clap_derive4itemNtB2_4Item23from_value_enum_variant, symObjAddr: 0x2840, symBinAddr: 0x6E50, symSize: 0x594 }
  - { offset: 0xF179, size: 0x8, addend: 0x0, symName: __RNvMNtCsehVGFPP7CiK_11clap_derive4itemNtB2_4Item15from_args_field, symObjAddr: 0x2DD4, symBinAddr: 0x73E4, symSize: 0x9F0 }
  - { offset: 0xF36F, size: 0x8, addend: 0x0, symName: __RNvMNtCsehVGFPP7CiK_11clap_derive4itemNtB2_4Item3new, symObjAddr: 0x37C4, symBinAddr: 0x7DD4, symSize: 0x33C }
  - { offset: 0xF403, size: 0x8, addend: 0x0, symName: __RINvMNtCsehVGFPP7CiK_11clap_derive4itemNtB3_4Item11push_methodNtCs3vPhoADqSdK_11proc_macro211TokenStreamEB5_, symObjAddr: 0x3B00, symBinAddr: 0x8110, symSize: 0xD4 }
  - { offset: 0xF46B, size: 0x8, addend: 0x0, symName: __RINvMNtCsehVGFPP7CiK_11clap_derive4itemNtB3_4Item11push_methodRNtNtB5_4attr9AttrValueEB5_, symObjAddr: 0x3BD4, symBinAddr: 0x81E4, symSize: 0xC0 }
  - { offset: 0xF53F, size: 0x8, addend: 0x0, symName: __RNvMNtCsehVGFPP7CiK_11clap_derive4itemNtB2_4Item12push_method_, symObjAddr: 0x3C94, symBinAddr: 0x82A4, symSize: 0xC84 }
  - { offset: 0xF874, size: 0x8, addend: 0x0, symName: __RNvMNtCsehVGFPP7CiK_11clap_derive4itemNtB2_4Item10infer_kind, symObjAddr: 0x4918, symBinAddr: 0x8F28, symSize: 0x1078 }
  - { offset: 0xFE2B, size: 0x8, addend: 0x0, symName: __RNvMNtCsehVGFPP7CiK_11clap_derive4itemNtB2_4Item10push_attrs, symObjAddr: 0x5A68, symBinAddr: 0xA078, symSize: 0xD748 }
  - { offset: 0x11B08, size: 0x8, addend: 0x0, symName: __RNvMNtCsehVGFPP7CiK_11clap_derive4itemNtB2_4Item16push_doc_comment, symObjAddr: 0x132B0, symBinAddr: 0x178C0, symSize: 0x5D4 }
  - { offset: 0x11D50, size: 0x8, addend: 0x0, symName: __RNvMNtCsehVGFPP7CiK_11clap_derive4itemNtB2_4Item8set_kind, symObjAddr: 0x13AFC, symBinAddr: 0x1810C, symSize: 0x4C0 }
  - { offset: 0x11EED, size: 0x8, addend: 0x0, symName: __RNvMNtCsehVGFPP7CiK_11clap_derive4itemNtB2_4Item19find_default_method, symObjAddr: 0x13FBC, symBinAddr: 0x185CC, symSize: 0x4C }
  - { offset: 0x11F10, size: 0x8, addend: 0x0, symName: __RNvMNtCsehVGFPP7CiK_11clap_derive4itemNtB2_4Item25initial_top_level_methods, symObjAddr: 0x140A4, symBinAddr: 0x186B4, symSize: 0x1EC }
  - { offset: 0x1208F, size: 0x8, addend: 0x0, symName: __RNvMNtCsehVGFPP7CiK_11clap_derive4itemNtB2_4Item23final_top_level_methods, symObjAddr: 0x14290, symBinAddr: 0x188A0, symSize: 0x204 }
  - { offset: 0x1220E, size: 0x8, addend: 0x0, symName: __RNvMNtCsehVGFPP7CiK_11clap_derive4itemNtB2_4Item13field_methods, symObjAddr: 0x14494, symBinAddr: 0x18AA4, symSize: 0x204 }
  - { offset: 0x1239A, size: 0x8, addend: 0x0, symName: __RNvMNtCsehVGFPP7CiK_11clap_derive4itemNtB2_4Item8group_id, symObjAddr: 0x14698, symBinAddr: 0x18CA8, symSize: 0x24 }
  - { offset: 0x123BD, size: 0x8, addend: 0x0, symName: __RNvMNtCsehVGFPP7CiK_11clap_derive4itemNtB2_4Item13group_methods, symObjAddr: 0x146BC, symBinAddr: 0x18CCC, symSize: 0x134 }
  - { offset: 0x1249C, size: 0x8, addend: 0x0, symName: __RNvMNtCsehVGFPP7CiK_11clap_derive4itemNtB2_4Item12deprecations, symObjAddr: 0x147F0, symBinAddr: 0x18E00, symSize: 0x134 }
  - { offset: 0x1257B, size: 0x8, addend: 0x0, symName: __RNvMNtCsehVGFPP7CiK_11clap_derive4itemNtB2_4Item18next_display_order, symObjAddr: 0x14924, symBinAddr: 0x18F34, symSize: 0x130 }
  - { offset: 0x12656, size: 0x8, addend: 0x0, symName: __RNvMNtCsehVGFPP7CiK_11clap_derive4itemNtB2_4Item17next_help_heading, symObjAddr: 0x14A54, symBinAddr: 0x19064, symSize: 0x130 }
  - { offset: 0x12731, size: 0x8, addend: 0x0, symName: __RNvMNtCsehVGFPP7CiK_11clap_derive4itemNtB2_4Item2id, symObjAddr: 0x14B84, symBinAddr: 0x19194, symSize: 0x24 }
  - { offset: 0x12754, size: 0x8, addend: 0x0, symName: __RNvMNtCsehVGFPP7CiK_11clap_derive4itemNtB2_4Item10cased_name, symObjAddr: 0x14BA8, symBinAddr: 0x191B8, symSize: 0xB4 }
  - { offset: 0x12777, size: 0x8, addend: 0x0, symName: __RNvMNtCsehVGFPP7CiK_11clap_derive4itemNtB2_4Item10value_name, symObjAddr: 0x14C5C, symBinAddr: 0x1926C, symSize: 0x58 }
  - { offset: 0x127A7, size: 0x8, addend: 0x0, symName: __RNvMNtCsehVGFPP7CiK_11clap_derive4itemNtB2_4Item12value_parser, symObjAddr: 0x14CB4, symBinAddr: 0x192C4, symSize: 0x7C }
  - { offset: 0x127D9, size: 0x8, addend: 0x0, symName: __RNvMNtCsehVGFPP7CiK_11clap_derive4itemNtB2_4Item6action, symObjAddr: 0x14F34, symBinAddr: 0x19544, symSize: 0x7C }
  - { offset: 0x1280B, size: 0x8, addend: 0x0, symName: __RNvMNtCsehVGFPP7CiK_11clap_derive4itemNtB2_4Item4kind, symObjAddr: 0x15124, symBinAddr: 0x19734, symSize: 0x34 }
  - { offset: 0x1282E, size: 0x8, addend: 0x0, symName: __RNvMNtCsehVGFPP7CiK_11clap_derive4itemNtB2_4Item13is_positional, symObjAddr: 0x15158, symBinAddr: 0x19768, symSize: 0x2C }
  - { offset: 0x12851, size: 0x8, addend: 0x0, symName: __RNvMNtCsehVGFPP7CiK_11clap_derive4itemNtB2_4Item6casing, symObjAddr: 0x15184, symBinAddr: 0x19794, symSize: 0x30 }
  - { offset: 0x12874, size: 0x8, addend: 0x0, symName: __RNvMNtCsehVGFPP7CiK_11clap_derive4itemNtB2_4Item10env_casing, symObjAddr: 0x151B4, symBinAddr: 0x197C4, symSize: 0x30 }
  - { offset: 0x12897, size: 0x8, addend: 0x0, symName: __RNvMNtCsehVGFPP7CiK_11clap_derive4itemNtB2_4Item20has_explicit_methods, symObjAddr: 0x151E4, symBinAddr: 0x197F4, symSize: 0x4C }
  - { offset: 0x128BA, size: 0x8, addend: 0x0, symName: __RNvMNtCsehVGFPP7CiK_11clap_derive4itemNtB2_4Item10skip_group, symObjAddr: 0x152BC, symBinAddr: 0x198CC, symSize: 0x2C }
  - { offset: 0x128DD, size: 0x8, addend: 0x0, symName: __RNvMs_NtCsehVGFPP7CiK_11clap_derive4itemNtB4_11ValueParser7resolve, symObjAddr: 0x152E8, symBinAddr: 0x198F8, symSize: 0x104 }
  - { offset: 0x12951, size: 0x8, addend: 0x0, symName: __RNvMs_NtCsehVGFPP7CiK_11clap_derive4itemNtB4_11ValueParser4span, symObjAddr: 0x153EC, symBinAddr: 0x199FC, symSize: 0xA0 }
  - { offset: 0x129A8, size: 0x8, addend: 0x0, symName: __RNvMs0_NtCsehVGFPP7CiK_11clap_derive4itemNtB5_6Action7resolve, symObjAddr: 0x15698, symBinAddr: 0x19CA8, symSize: 0x104 }
  - { offset: 0x12A1C, size: 0x8, addend: 0x0, symName: __RNvMs0_NtCsehVGFPP7CiK_11clap_derive4itemNtB5_6Action4span, symObjAddr: 0x1579C, symBinAddr: 0x19DAC, symSize: 0xA0 }
  - { offset: 0x12A80, size: 0x8, addend: 0x0, symName: __RNvMs1_NtCsehVGFPP7CiK_11clap_derive4itemNtB5_4Kind4name, symObjAddr: 0x15D74, symBinAddr: 0x1A384, symSize: 0x1FC }
  - { offset: 0x12AA3, size: 0x8, addend: 0x0, symName: __RNvMs1_NtCsehVGFPP7CiK_11clap_derive4itemNtB5_4Kind9attr_kind, symObjAddr: 0x15F70, symBinAddr: 0x1A580, symSize: 0x1A8 }
  - { offset: 0x12AF1, size: 0x8, addend: 0x0, symName: __RNvMs1_NtCsehVGFPP7CiK_11clap_derive4itemNtB5_4Kind2ty, symObjAddr: 0x16118, symBinAddr: 0x1A728, symSize: 0x168 }
  - { offset: 0x12B32, size: 0x8, addend: 0x0, symName: __RNvMs2_NtCsehVGFPP7CiK_11clap_derive4itemNtB5_6Method3new, symObjAddr: 0x16280, symBinAddr: 0x1A890, symSize: 0x34 }
  - { offset: 0x12BB3, size: 0x8, addend: 0x0, symName: __RNvMs2_NtCsehVGFPP7CiK_11clap_derive4itemNtB5_6Method8from_env, symObjAddr: 0x162B4, symBinAddr: 0x1A8C4, symSize: 0x7EC }
  - { offset: 0x12F4C, size: 0x8, addend: 0x0, symName: __RNvMs2_NtCsehVGFPP7CiK_11clap_derive4itemNtB5_6Method4args, symObjAddr: 0x16AA0, symBinAddr: 0x1B0B0, symSize: 0x24 }
  - { offset: 0x12F6F, size: 0x8, addend: 0x0, symName: __RNvMs4_NtCsehVGFPP7CiK_11clap_derive4itemNtB5_11Deprecation9attribute, symObjAddr: 0x16BFC, symBinAddr: 0x1B20C, symSize: 0x188 }
  - { offset: 0x13165, size: 0x8, addend: 0x0, symName: __RNvMs6_NtCsehVGFPP7CiK_11clap_derive4itemNtB5_11CasingStyle8from_lit, symObjAddr: 0x17578, symBinAddr: 0x1BB88, symSize: 0x878 }
  - { offset: 0x132A3, size: 0x8, addend: 0x0, symName: __RNvMs7_NtCsehVGFPP7CiK_11clap_derive4itemNtB5_4Name9translate, symObjAddr: 0x17E3C, symBinAddr: 0x1C44C, symSize: 0x55C }
  - { offset: 0x1337C, size: 0x8, addend: 0x0, symName: __RNvMs7_NtCsehVGFPP7CiK_11clap_derive4itemNtB5_4Name14translate_char, symObjAddr: 0x18398, symBinAddr: 0x1C9A8, symSize: 0x6F0 }
  - { offset: 0x1368E, size: 0x8, addend: 0x0, symName: __RINvMsi_NtCs69QEzRJvHMp_5alloc3vecINtB6_3VecNtCs3vPhoADqSdK_11proc_macro211TokenStreamE16extend_desugaredINtNtNtCsliVzVx4luf9_4core4iter8adapters12GenericShuntINtNtB1I_3map3MapINtNtNtB1M_5slice4iter4IterTRNtNtCsaxBLFzn74Hr_3syn4data5FieldNtNtCsehVGFPP7CiK_11clap_derive4item4ItemEENCNvNtNtB3S_7derives4args15gen_constructor0EINtNtB1M_6result6ResultNtNtB1M_7convert10InfallibleNtNtB3l_5error5ErrorEEEB3S_, symObjAddr: 0x0, symBinAddr: 0x1DDA0, symSize: 0x210 }
  - { offset: 0x1A837, size: 0x8, addend: 0x0, symName: __RNvXsC_NtNtNtCsliVzVx4luf9_4core4iter8adapters7flattenINtNtCs69QEzRJvHMp_5alloc3vec3VecNtNtBV_6string6StringENtB5_21ConstSizeIntoIterator4sizeCsehVGFPP7CiK_11clap_derive, symObjAddr: 0x7DA4, symBinAddr: 0x25B44, symSize: 0x18 }
  - { offset: 0x1AACC, size: 0x8, addend: 0x0, symName: __RINvXs1_NtNtNtCsliVzVx4luf9_4core4iter6traits7collectTINtNtCs69QEzRJvHMp_5alloc3vec3VecNtCs3vPhoADqSdK_11proc_macro211TokenStreamEIBR_NtB1p_5IdentEEINtB6_6ExtendTB1n_B28_EE6extendINtNtNtBa_8adapters6cloned6ClonedINtNtNtBc_5slice4iter4IterB2z_EEECsehVGFPP7CiK_11clap_derive, symObjAddr: 0x3264, symBinAddr: 0x21004, symSize: 0x6C }
  - { offset: 0x1BE26, size: 0x8, addend: 0x0, symName: __RNvXsf_NtCsliVzVx4luf9_4core5tupleTINtNtCs69QEzRJvHMp_5alloc3vec3VecNtCs3vPhoADqSdK_11proc_macro211TokenStreamEIBy_NtB16_5IdentEENtNtB7_7default7Default7defaultCsehVGFPP7CiK_11clap_derive, symObjAddr: 0x899C, symBinAddr: 0x2673C, symSize: 0x8C }
  - { offset: 0x1DAD1, size: 0x8, addend: 0x0, symName: __RINvXsd_NtCs69QEzRJvHMp_5alloc3vecINtB6_3VecNtCs3vPhoADqSdK_11proc_macro211TokenStreamEINtNtNtNtCsliVzVx4luf9_4core4iter6traits7collect12FromIteratorBG_E9from_iterINtNtB1u_8adapters12GenericShuntINtNtB2E_3map3MapINtNtNtB1w_5slice4iter4IterTRNtNtCsaxBLFzn74Hr_3syn4data5FieldNtNtCsehVGFPP7CiK_11clap_derive4item4ItemEENCNvNtNtB4s_7derives4args15gen_constructor0EINtNtB1w_6result6ResultNtNtB1w_7convert10InfallibleNtNtB3V_5error5ErrorEEEB4s_, symObjAddr: 0x32D0, symBinAddr: 0x21070, symSize: 0x34 }
  - { offset: 0x1DB12, size: 0x8, addend: 0x0, symName: __RINvXsd_NtCs69QEzRJvHMp_5alloc3vecINtB6_3VecNtCs3vPhoADqSdK_11proc_macro211TokenStreamEINtNtNtNtCsliVzVx4luf9_4core4iter6traits7collect12FromIteratorBG_E9from_iterINtNtB1u_8adapters12GenericShuntINtNtB2E_3map3MapINtNtNtB1w_5slice4iter4IterTRRNtNtCsaxBLFzn74Hr_3syn4data7VariantRNtNtCsehVGFPP7CiK_11clap_derive4item4ItemEENCNvNtNtB4w_7derives10subcommand18gen_has_subcommands1_0EINtNtB1w_6result6ResultNtNtB1w_7convert10InfallibleNtNtB3W_5error5ErrorEEEB4w_, symObjAddr: 0x3304, symBinAddr: 0x210A4, symSize: 0x34 }
  - { offset: 0x1DB53, size: 0x8, addend: 0x0, symName: __RINvXsd_NtCs69QEzRJvHMp_5alloc3vecINtB6_3VecNtCs3vPhoADqSdK_11proc_macro211TokenStreamEINtNtNtNtCsliVzVx4luf9_4core4iter6traits7collect12FromIteratorBG_E9from_iterINtNtB1u_8adapters12GenericShuntINtNtB2E_3map3MapINtNtNtB1w_5slice4iter4IterTRRNtNtCsaxBLFzn74Hr_3syn4data7VariantRNtNtCsehVGFPP7CiK_11clap_derive4item4ItemEENCNvNtNtB4w_7derives10subcommand20gen_from_arg_matches0EINtNtB1w_6result6ResultNtNtB1w_7convert10InfallibleNtNtB3W_5error5ErrorEEEB4w_, symObjAddr: 0x3338, symBinAddr: 0x210D8, symSize: 0x34 }
  - { offset: 0x1DB94, size: 0x8, addend: 0x0, symName: __RINvXsd_NtCs69QEzRJvHMp_5alloc3vecINtB6_3VecNtCs3vPhoADqSdK_11proc_macro211TokenStreamEINtNtNtNtCsliVzVx4luf9_4core4iter6traits7collect12FromIteratorBG_E9from_iterINtNtB1u_8adapters12GenericShuntINtNtB2E_3map3MapINtNtNtB1w_5slice4iter4IterTRRNtNtCsaxBLFzn74Hr_3syn4data7VariantRNtNtCsehVGFPP7CiK_11clap_derive4item4ItemEENCNvNtNtB4w_7derives10subcommand20gen_from_arg_matchess_0EINtNtB1w_6result6ResultNtNtB1w_7convert10InfallibleNtNtB3W_5error5ErrorEEEB4w_, symObjAddr: 0x336C, symBinAddr: 0x2110C, symSize: 0x34 }
  - { offset: 0x1DBD5, size: 0x8, addend: 0x0, symName: __RINvXsd_NtCs69QEzRJvHMp_5alloc3vecINtB6_3VecNtCs3vPhoADqSdK_11proc_macro211TokenStreamEINtNtNtNtCsliVzVx4luf9_4core4iter6traits7collect12FromIteratorBG_E9from_iterINtNtB1u_8adapters12GenericShuntINtNtB2E_3map3MapINtNtNtB1w_5slice4iter4IterTRRNtNtCsaxBLFzn74Hr_3syn4data7VariantRNtNtCsehVGFPP7CiK_11clap_derive4item4ItemEENCNvNtNtB4w_7derives10subcommand27gen_update_from_arg_matchess0_0EINtNtB1w_6result6ResultNtNtB1w_7convert10InfallibleNtNtB3W_5error5ErrorEEEB4w_, symObjAddr: 0x33A0, symBinAddr: 0x21140, symSize: 0x34 }
  - { offset: 0x1DC16, size: 0x8, addend: 0x0, symName: __RINvXsd_NtCs69QEzRJvHMp_5alloc3vecINtB6_3VecNtCs3vPhoADqSdK_11proc_macro211TokenStreamEINtNtNtNtCsliVzVx4luf9_4core4iter6traits7collect12FromIteratorBG_E9from_iterINtNtB1u_8adapters12GenericShuntINtNtB2E_3map3MapINtNtNtB1w_5slice4iter4IterTRRNtNtCsaxBLFzn74Hr_3syn4data7VariantRNtNtCsehVGFPP7CiK_11clap_derive4item4ItemEENCNvNtNtB4w_7derives10subcommand27gen_update_from_arg_matchess1_0EINtNtB1w_6result6ResultNtNtB1w_7convert10InfallibleNtNtB3W_5error5ErrorEEEB4w_, symObjAddr: 0x33D4, symBinAddr: 0x21174, symSize: 0x34 }
  - { offset: 0x1DC57, size: 0x8, addend: 0x0, symName: __RINvXsd_NtCs69QEzRJvHMp_5alloc3vecINtB6_3VecNtNtB8_6string6StringEINtNtNtNtCsliVzVx4luf9_4core4iter6traits7collect12FromIteratorBG_E9from_iterINtNtNtB19_7sources7from_fn6FromFnNCNvNtNtCsehVGFPP7CiK_11clap_derive5utils12doc_comments16split_paragraphs0EEB2W_, symObjAddr: 0x3408, symBinAddr: 0x211A8, symSize: 0x34 }
  - { offset: 0x1DC98, size: 0x8, addend: 0x0, symName: __RINvXsd_NtCs69QEzRJvHMp_5alloc3vecINtB6_3VecNtNtB8_6string6StringEINtNtNtNtCsliVzVx4luf9_4core4iter6traits7collect12FromIteratorBG_E9from_iterINtNtNtB19_8adapters3map3MapINtNtNtB1b_3str4iter5SplitcENCNCNvNtNtCsehVGFPP7CiK_11clap_derive5utils12doc_comments19extract_doc_comments1_00EEB3k_, symObjAddr: 0x343C, symBinAddr: 0x211DC, symSize: 0x34 }
  - { offset: 0x1DCD9, size: 0x8, addend: 0x0, symName: __RINvXsd_NtCs69QEzRJvHMp_5alloc3vecINtB6_3VecNtNtB8_6string6StringEINtNtNtNtCsliVzVx4luf9_4core4iter6traits7collect12FromIteratorBG_E9from_iterINtNtNtB19_8adapters3map3MapINtNtNtB1b_5slice4iter4IterBG_ENCINvNtNtCsehVGFPP7CiK_11clap_derive5utils12doc_comments11merge_linesRBG_RSBG_E0EEB3m_, symObjAddr: 0x3470, symBinAddr: 0x21210, symSize: 0x38 }
  - { offset: 0x1DD19, size: 0x8, addend: 0x0, symName: __RINvXsd_NtCs69QEzRJvHMp_5alloc3vecINtB6_3VecNtNtB8_6string6StringEINtNtNtNtCsliVzVx4luf9_4core4iter6traits7collect12FromIteratorBG_E9from_iterINtNtNtB19_8adapters3map3MapINtNtNtB1b_5slice4iter4IterNtNtCsehVGFPP7CiK_11clap_derive4attr8AttrKindENCNvNtB3d_4item16assert_attr_kind0EEB3d_, symObjAddr: 0x34A8, symBinAddr: 0x21248, symSize: 0x34 }
  - { offset: 0x1DD5A, size: 0x8, addend: 0x0, symName: __RINvXsd_NtCs69QEzRJvHMp_5alloc3vecINtB6_3VecNtNtB8_6string6StringEINtNtNtNtCsliVzVx4luf9_4core4iter6traits7collect12FromIteratorBG_E9from_iterINtNtNtB19_8adapters7flatten7FlatMapINtNtB2l_10skip_while9SkipWhileINtNtB2l_10filter_map9FilterMapINtNtB2l_6filter6FilterINtNtNtB1b_5slice4iter4IterNtNtCsaxBLFzn74Hr_3syn4attr9AttributeENCNvNtNtCsehVGFPP7CiK_11clap_derive5utils12doc_comments19extract_doc_comment0ENCB5i_s_0ENCB5i_s0_0EBw_NCB5i_s1_0EEB5o_, symObjAddr: 0x34DC, symBinAddr: 0x2127C, symSize: 0x34 }
  - { offset: 0x1DD9B, size: 0x8, addend: 0x0, symName: __RINvXsd_NtCs69QEzRJvHMp_5alloc3vecINtB6_3VecNtNtCsaxBLFzn74Hr_3syn4expr4ExprEINtNtNtNtCsliVzVx4luf9_4core4iter6traits7collect12FromIteratorBG_E9from_iterINtNtBK_10punctuated10PunctuatedBG_NtNtBK_5token5CommaEECsehVGFPP7CiK_11clap_derive, symObjAddr: 0x3510, symBinAddr: 0x212B0, symSize: 0x34 }
  - { offset: 0x1DDDC, size: 0x8, addend: 0x0, symName: __RINvXsd_NtCs69QEzRJvHMp_5alloc3vecINtB6_3VecRNtCs3vPhoADqSdK_11proc_macro25IdentEINtNtNtNtCsliVzVx4luf9_4core4iter6traits7collect12FromIteratorBG_E9from_iterINtNtNtB1o_8adapters3map3MapINtNtCsaxBLFzn74Hr_3syn10punctuated4IterNtNtB32_4data5FieldENCNCNvNtNtCsehVGFPP7CiK_11clap_derive7derives10subcommand27gen_update_from_arg_matchess0_00EEB45_, symObjAddr: 0x3544, symBinAddr: 0x212E4, symSize: 0x38 }
  - { offset: 0x1DE1C, size: 0x8, addend: 0x0, symName: __RINvXsd_NtCs69QEzRJvHMp_5alloc3vecINtB6_3VecRNtCs3vPhoADqSdK_11proc_macro25IdentEINtNtNtNtCsliVzVx4luf9_4core4iter6traits7collect12FromIteratorBG_E9from_iterINtNtNtB1o_8adapters3map3MapINtNtNtB1q_5slice4iter4IterTNtBJ_11TokenStreamBH_EENCNvNtNtCsehVGFPP7CiK_11clap_derive7derives10value_enum18gen_value_variants0EEB3U_, symObjAddr: 0x357C, symBinAddr: 0x2131C, symSize: 0x38 }
  - { offset: 0x1DE5C, size: 0x8, addend: 0x0, symName: __RINvXsd_NtCs69QEzRJvHMp_5alloc3vecINtB6_3VecRNtNtCsehVGFPP7CiK_11clap_derive4item4NameEINtNtNtNtCsliVzVx4luf9_4core4iter6traits7collect12FromIteratorBG_E9from_iterINtNtNtB1u_8adapters10filter_map9FilterMapINtNtNtB1w_5slice4iter4IterTRNtNtCsaxBLFzn74Hr_3syn4data5FieldNtBJ_4ItemEENCNvNtNtBL_7derives4args11gen_augment0EEBL_, symObjAddr: 0x35B4, symBinAddr: 0x21354, symSize: 0x38 }
  - { offset: 0x1DE9C, size: 0x8, addend: 0x0, symName: __RINvXsd_NtCs69QEzRJvHMp_5alloc3vecINtB6_3VecTRNtNtCsaxBLFzn74Hr_3syn4data5FieldNtNtCsehVGFPP7CiK_11clap_derive4item4ItemEEINtNtNtNtCsliVzVx4luf9_4core4iter6traits7collect12FromIteratorBG_E9from_iterINtNtB23_8adapters12GenericShuntINtNtB3d_3map3MapINtNtBM_10punctuated4IterBI_ENCNvNtNtB1j_7derives4args11derive_args0EINtNtB25_6result6ResultNtNtB25_7convert10InfallibleNtNtBM_5error5ErrorEEEB1j_, symObjAddr: 0x35EC, symBinAddr: 0x2138C, symSize: 0x34 }
  - { offset: 0x1DEDD, size: 0x8, addend: 0x0, symName: __RINvXsd_NtCs69QEzRJvHMp_5alloc3vecINtB6_3VecTRNtNtCsaxBLFzn74Hr_3syn4data5FieldNtNtCsehVGFPP7CiK_11clap_derive4item4ItemEEINtNtNtNtCsliVzVx4luf9_4core4iter6traits7collect12FromIteratorBG_E9from_iterINtNtB23_8adapters12GenericShuntINtNtB3d_3map3MapINtNtBM_10punctuated4IterBI_ENCNvNtNtB1j_7derives4args19collect_args_fields0EINtNtB25_6result6ResultNtNtB25_7convert10InfallibleNtNtBM_5error5ErrorEEEB1j_, symObjAddr: 0x3620, symBinAddr: 0x213C0, symSize: 0x34 }
  - { offset: 0x1DF1E, size: 0x8, addend: 0x0, symName: __RINvXsd_NtCs69QEzRJvHMp_5alloc3vecINtB6_3VecTRNtNtCsaxBLFzn74Hr_3syn4data5FieldNtNtCsehVGFPP7CiK_11clap_derive4item4ItemEEINtNtNtNtCsliVzVx4luf9_4core4iter6traits7collect12FromIteratorBG_E9from_iterINtNtB23_8adapters12GenericShuntINtNtB3d_3map3MapINtNtBM_10punctuated4IterBI_ENCNvNtNtB1j_7derives6parser13derive_parser0EINtNtB25_6result6ResultNtNtB25_7convert10InfallibleNtNtBM_5error5ErrorEEEB1j_, symObjAddr: 0x3654, symBinAddr: 0x213F4, symSize: 0x34 }
  - { offset: 0x1DF5F, size: 0x8, addend: 0x0, symName: __RINvXsd_NtCs69QEzRJvHMp_5alloc3vecINtB6_3VecTRNtNtCsaxBLFzn74Hr_3syn4data7VariantNtNtCsehVGFPP7CiK_11clap_derive4item4ItemEEINtNtNtNtCsliVzVx4luf9_4core4iter6traits7collect12FromIteratorBG_E9from_iterINtNtB25_8adapters12GenericShuntINtNtB3f_3map3MapINtNtBM_10punctuated4IterBI_ENCNvNtNtB1l_7derives10subcommand17derive_subcommand0EINtNtB27_6result6ResultNtNtB27_7convert10InfallibleNtNtBM_5error5ErrorEEEB1l_, symObjAddr: 0x3688, symBinAddr: 0x21428, symSize: 0x34 }
  - { offset: 0x1DFA0, size: 0x8, addend: 0x0, symName: __RINvXsd_NtCs69QEzRJvHMp_5alloc3vecINtB6_3VecTRNtNtCsaxBLFzn74Hr_3syn4data7VariantNtNtCsehVGFPP7CiK_11clap_derive4item4ItemEEINtNtNtNtCsliVzVx4luf9_4core4iter6traits7collect12FromIteratorBG_E9from_iterINtNtB25_8adapters12GenericShuntINtNtB3f_3map3MapINtNtBM_10punctuated4IterBI_ENCNvNtNtB1l_7derives6parser13derive_parsers_0EINtNtB27_6result6ResultNtNtB27_7convert10InfallibleNtNtBM_5error5ErrorEEEB1l_, symObjAddr: 0x36BC, symBinAddr: 0x2145C, symSize: 0x34 }
  - { offset: 0x1DFE7, size: 0x8, addend: 0x0, symName: __RINvXsh_NtCs69QEzRJvHMp_5alloc3vecINtB6_3VecNtNtCsaxBLFzn74Hr_3syn4expr4ExprEINtNtNtNtCsliVzVx4luf9_4core4iter6traits7collect6ExtendBG_E6extendINtNtB1m_6option6OptionBG_EECsehVGFPP7CiK_11clap_derive, symObjAddr: 0x36F0, symBinAddr: 0x21490, symSize: 0x40 }
  - { offset: 0x1E03C, size: 0x8, addend: 0x0, symName: __RINvXsh_NtCs69QEzRJvHMp_5alloc3vecINtB6_3VecNtNtCsaxBLFzn74Hr_3syn4expr4ExprEINtNtNtNtCsliVzVx4luf9_4core4iter6traits7collect6ExtendBG_E6extendINtNtNtB1k_8adapters3map3MapINtNtB6_9into_iter8IntoIterTBG_NtNtBK_5token5CommaEENCNvXs4_NtBK_10punctuatedINtB3H_10PunctuatedBG_B3e_ENtB1g_12IntoIterator9into_iter0EECsehVGFPP7CiK_11clap_derive, symObjAddr: 0x3730, symBinAddr: 0x214D0, symSize: 0x40 }
  - { offset: 0x1E091, size: 0x8, addend: 0x0, symName: __RINvXsh_NtCs69QEzRJvHMp_5alloc3vecINtB6_3VecNtNtCsehVGFPP7CiK_11clap_derive4attr8ClapAttrEINtNtNtNtCsliVzVx4luf9_4core4iter6traits7collect6ExtendBG_E6extendINtNtB1z_6option6OptionBG_EEBK_, symObjAddr: 0x3770, symBinAddr: 0x21510, symSize: 0x48 }
  - { offset: 0x1E0E6, size: 0x8, addend: 0x0, symName: __RINvXsh_NtCs69QEzRJvHMp_5alloc3vecINtB6_3VecNtNtCsehVGFPP7CiK_11clap_derive4attr8ClapAttrEINtNtNtNtCsliVzVx4luf9_4core4iter6traits7collect6ExtendBG_E6extendINtNtNtB1x_8adapters3map3MapINtNtB6_9into_iter8IntoIterTBG_NtNtCsaxBLFzn74Hr_3syn5token5CommaEENCNvXs4_NtB3v_10punctuatedINtB49_10PunctuatedBG_B3r_ENtB1t_12IntoIterator9into_iter0EEBK_, symObjAddr: 0x37B8, symBinAddr: 0x21558, symSize: 0x40 }
  - { offset: 0x1E13B, size: 0x8, addend: 0x0, symName: __RNvXsh_NtCs69QEzRJvHMp_5alloc3vecINtB5_3VecNtCs3vPhoADqSdK_11proc_macro211TokenStreamEINtNtNtNtCsliVzVx4luf9_4core4iter6traits7collect6ExtendBF_E10extend_oneCsehVGFPP7CiK_11clap_derive, symObjAddr: 0x8A28, symBinAddr: 0x267C8, symSize: 0x24 }
  - { offset: 0x1E187, size: 0x8, addend: 0x0, symName: __RNvXsh_NtCs69QEzRJvHMp_5alloc3vecINtB5_3VecNtCs3vPhoADqSdK_11proc_macro211TokenStreamEINtNtNtNtCsliVzVx4luf9_4core4iter6traits7collect6ExtendBF_E14extend_reserveCsehVGFPP7CiK_11clap_derive, symObjAddr: 0x8A4C, symBinAddr: 0x267EC, symSize: 0x84 }
  - { offset: 0x1E2BE, size: 0x8, addend: 0x0, symName: __RNvXsh_NtCs69QEzRJvHMp_5alloc3vecINtB5_3VecNtCs3vPhoADqSdK_11proc_macro211TokenStreamEINtNtNtNtCsliVzVx4luf9_4core4iter6traits7collect6ExtendBF_E20extend_one_uncheckedCsehVGFPP7CiK_11clap_derive, symObjAddr: 0x8AD0, symBinAddr: 0x26870, symSize: 0x58 }
  - { offset: 0x1E49E, size: 0x8, addend: 0x0, symName: __RNvXsh_NtCs69QEzRJvHMp_5alloc3vecINtB5_3VecNtCs3vPhoADqSdK_11proc_macro25IdentEINtNtNtNtCsliVzVx4luf9_4core4iter6traits7collect6ExtendBF_E10extend_oneCsehVGFPP7CiK_11clap_derive, symObjAddr: 0x8B28, symBinAddr: 0x268C8, symSize: 0x24 }
  - { offset: 0x1E4EA, size: 0x8, addend: 0x0, symName: __RNvXsh_NtCs69QEzRJvHMp_5alloc3vecINtB5_3VecNtCs3vPhoADqSdK_11proc_macro25IdentEINtNtNtNtCsliVzVx4luf9_4core4iter6traits7collect6ExtendBF_E14extend_reserveCsehVGFPP7CiK_11clap_derive, symObjAddr: 0x8B4C, symBinAddr: 0x268EC, symSize: 0x84 }
  - { offset: 0x1E621, size: 0x8, addend: 0x0, symName: __RNvXsh_NtCs69QEzRJvHMp_5alloc3vecINtB5_3VecNtCs3vPhoADqSdK_11proc_macro25IdentEINtNtNtNtCsliVzVx4luf9_4core4iter6traits7collect6ExtendBF_E20extend_one_uncheckedCsehVGFPP7CiK_11clap_derive, symObjAddr: 0x8BD0, symBinAddr: 0x26970, symSize: 0x60 }
  - { offset: 0x1E801, size: 0x8, addend: 0x0, symName: __RNvXsh_NtCs69QEzRJvHMp_5alloc3vecINtB5_3VecTRRNtNtCsaxBLFzn74Hr_3syn4data7VariantRNtNtCsehVGFPP7CiK_11clap_derive4item4ItemEEINtNtNtNtCsliVzVx4luf9_4core4iter6traits7collect6ExtendBF_E10extend_oneB1m_, symObjAddr: 0x8C30, symBinAddr: 0x269D0, symSize: 0x34 }
  - { offset: 0x1E857, size: 0x8, addend: 0x0, symName: __RNCINvMsi_NtCs69QEzRJvHMp_5alloc3vecINtB8_3VecNtNtBa_6string6StringE14extend_trustedINtNtNtNtCsliVzVx4luf9_4core4iter8adapters3map3MapINtNtNtB1t_5slice4iter4IterBI_ENCINvNtNtCsehVGFPP7CiK_11clap_derive5utils12doc_comments11merge_linesRBI_RSBI_E0EE0B2M_, symObjAddr: 0x37F8, symBinAddr: 0x21598, symSize: 0x6C }
  - { offset: 0x1E979, size: 0x8, addend: 0x0, symName: __RNCINvMsi_NtCs69QEzRJvHMp_5alloc3vecINtB8_3VecNtNtBa_6string6StringE14extend_trustedINtNtNtNtCsliVzVx4luf9_4core4iter8adapters3map3MapINtNtNtB1t_5slice4iter4IterNtNtCsehVGFPP7CiK_11clap_derive4attr8AttrKindENCNvNtB2D_4item16assert_attr_kind0EE0B2D_, symObjAddr: 0x3864, symBinAddr: 0x21604, symSize: 0x6C }
  - { offset: 0x1EA9B, size: 0x8, addend: 0x0, symName: __RNCINvMsi_NtCs69QEzRJvHMp_5alloc3vecINtB8_3VecNtNtCsaxBLFzn74Hr_3syn4expr4ExprE14extend_trustedINtNtCsliVzVx4luf9_4core6option8IntoIterBI_EE0CsehVGFPP7CiK_11clap_derive, symObjAddr: 0x38D0, symBinAddr: 0x21670, symSize: 0x78 }
  - { offset: 0x1EBBE, size: 0x8, addend: 0x0, symName: __RNCINvMsi_NtCs69QEzRJvHMp_5alloc3vecINtB8_3VecNtNtCsaxBLFzn74Hr_3syn4expr4ExprE14extend_trustedINtNtNtNtCsliVzVx4luf9_4core4iter8adapters3map3MapINtNtB8_9into_iter8IntoIterTBI_NtNtBM_5token5CommaEENCNvXs4_NtBM_10punctuatedINtB3h_10PunctuatedBI_B2O_ENtNtNtB1C_6traits7collect12IntoIterator9into_iter0EE0CsehVGFPP7CiK_11clap_derive, symObjAddr: 0x3948, symBinAddr: 0x216E8, symSize: 0x78 }
  - { offset: 0x1ECE1, size: 0x8, addend: 0x0, symName: __RNCINvMsi_NtCs69QEzRJvHMp_5alloc3vecINtB8_3VecNtNtCsehVGFPP7CiK_11clap_derive4attr8ClapAttrE14extend_trustedINtNtCsliVzVx4luf9_4core6option8IntoIterBI_EE0BM_, symObjAddr: 0x39C0, symBinAddr: 0x21760, symSize: 0x78 }
  - { offset: 0x1EE04, size: 0x8, addend: 0x0, symName: __RNCINvMsi_NtCs69QEzRJvHMp_5alloc3vecINtB8_3VecNtNtCsehVGFPP7CiK_11clap_derive4attr8ClapAttrE14extend_trustedINtNtNtNtCsliVzVx4luf9_4core4iter8adapters3map3MapINtNtB8_9into_iter8IntoIterTBI_NtNtCsaxBLFzn74Hr_3syn5token5CommaEENCNvXs4_NtB35_10punctuatedINtB3J_10PunctuatedBI_B31_ENtNtNtB1P_6traits7collect12IntoIterator9into_iter0EE0BM_, symObjAddr: 0x3A38, symBinAddr: 0x217D8, symSize: 0x78 }
  - { offset: 0x1EF27, size: 0x8, addend: 0x0, symName: __RNCINvMsi_NtCs69QEzRJvHMp_5alloc3vecINtB8_3VecRNtCs3vPhoADqSdK_11proc_macro25IdentE14extend_trustedINtNtNtNtCsliVzVx4luf9_4core4iter8adapters3map3MapINtNtNtB1I_5slice4iter4IterTNtBL_11TokenStreamBJ_EENCNvNtNtCsehVGFPP7CiK_11clap_derive7derives10value_enum18gen_value_variants0EE0B3k_, symObjAddr: 0x3AB0, symBinAddr: 0x21850, symSize: 0x60 }
  - { offset: 0x1F4D4, size: 0x8, addend: 0x0, symName: __RNvXNtNtCs69QEzRJvHMp_5alloc3vec11spec_extendINtB4_3VecNtCs3vPhoADqSdK_11proc_macro211TokenStreamEINtB2_10SpecExtendBR_INtNtNtCsliVzVx4luf9_4core4iter8adapters12GenericShuntINtNtB1W_3map3MapINtNtNtB20_5slice4iter4IterTRNtNtCsaxBLFzn74Hr_3syn4data5FieldNtNtCsehVGFPP7CiK_11clap_derive4item4ItemEENCNvNtNtB46_7derives4args15gen_constructor0EINtNtB20_6result6ResultNtNtB20_7convert10InfallibleNtNtB3z_5error5ErrorEEE11spec_extendB46_, symObjAddr: 0x4774, symBinAddr: 0x22514, symSize: 0x24 }
  - { offset: 0x1F526, size: 0x8, addend: 0x0, symName: __RNvXNtNtCs69QEzRJvHMp_5alloc3vec11spec_extendINtB4_3VecNtCs3vPhoADqSdK_11proc_macro211TokenStreamEINtB2_10SpecExtendBR_INtNtNtCsliVzVx4luf9_4core4iter8adapters12GenericShuntINtNtB1W_3map3MapINtNtNtB20_5slice4iter4IterTRRNtNtCsaxBLFzn74Hr_3syn4data7VariantRNtNtCsehVGFPP7CiK_11clap_derive4item4ItemEENCNvNtNtB4a_7derives10subcommand18gen_has_subcommands1_0EINtNtB20_6result6ResultNtNtB20_7convert10InfallibleNtNtB3A_5error5ErrorEEE11spec_extendB4a_, symObjAddr: 0x4798, symBinAddr: 0x22538, symSize: 0x24 }
  - { offset: 0x1F578, size: 0x8, addend: 0x0, symName: __RNvXNtNtCs69QEzRJvHMp_5alloc3vec11spec_extendINtB4_3VecNtCs3vPhoADqSdK_11proc_macro211TokenStreamEINtB2_10SpecExtendBR_INtNtNtCsliVzVx4luf9_4core4iter8adapters12GenericShuntINtNtB1W_3map3MapINtNtNtB20_5slice4iter4IterTRRNtNtCsaxBLFzn74Hr_3syn4data7VariantRNtNtCsehVGFPP7CiK_11clap_derive4item4ItemEENCNvNtNtB4a_7derives10subcommand20gen_from_arg_matches0EINtNtB20_6result6ResultNtNtB20_7convert10InfallibleNtNtB3A_5error5ErrorEEE11spec_extendB4a_, symObjAddr: 0x47BC, symBinAddr: 0x2255C, symSize: 0x24 }
  - { offset: 0x1F5CA, size: 0x8, addend: 0x0, symName: __RNvXNtNtCs69QEzRJvHMp_5alloc3vec11spec_extendINtB4_3VecNtCs3vPhoADqSdK_11proc_macro211TokenStreamEINtB2_10SpecExtendBR_INtNtNtCsliVzVx4luf9_4core4iter8adapters12GenericShuntINtNtB1W_3map3MapINtNtNtB20_5slice4iter4IterTRRNtNtCsaxBLFzn74Hr_3syn4data7VariantRNtNtCsehVGFPP7CiK_11clap_derive4item4ItemEENCNvNtNtB4a_7derives10subcommand20gen_from_arg_matchess_0EINtNtB20_6result6ResultNtNtB20_7convert10InfallibleNtNtB3A_5error5ErrorEEE11spec_extendB4a_, symObjAddr: 0x47E0, symBinAddr: 0x22580, symSize: 0x24 }
  - { offset: 0x1F61C, size: 0x8, addend: 0x0, symName: __RNvXNtNtCs69QEzRJvHMp_5alloc3vec11spec_extendINtB4_3VecNtCs3vPhoADqSdK_11proc_macro211TokenStreamEINtB2_10SpecExtendBR_INtNtNtCsliVzVx4luf9_4core4iter8adapters12GenericShuntINtNtB1W_3map3MapINtNtNtB20_5slice4iter4IterTRRNtNtCsaxBLFzn74Hr_3syn4data7VariantRNtNtCsehVGFPP7CiK_11clap_derive4item4ItemEENCNvNtNtB4a_7derives10subcommand27gen_update_from_arg_matchess0_0EINtNtB20_6result6ResultNtNtB20_7convert10InfallibleNtNtB3A_5error5ErrorEEE11spec_extendB4a_, symObjAddr: 0x4804, symBinAddr: 0x225A4, symSize: 0x24 }
  - { offset: 0x1F66E, size: 0x8, addend: 0x0, symName: __RNvXNtNtCs69QEzRJvHMp_5alloc3vec11spec_extendINtB4_3VecNtCs3vPhoADqSdK_11proc_macro211TokenStreamEINtB2_10SpecExtendBR_INtNtNtCsliVzVx4luf9_4core4iter8adapters12GenericShuntINtNtB1W_3map3MapINtNtNtB20_5slice4iter4IterTRRNtNtCsaxBLFzn74Hr_3syn4data7VariantRNtNtCsehVGFPP7CiK_11clap_derive4item4ItemEENCNvNtNtB4a_7derives10subcommand27gen_update_from_arg_matchess1_0EINtNtB20_6result6ResultNtNtB20_7convert10InfallibleNtNtB3A_5error5ErrorEEE11spec_extendB4a_, symObjAddr: 0x4828, symBinAddr: 0x225C8, symSize: 0x24 }
  - { offset: 0x1F6C0, size: 0x8, addend: 0x0, symName: __RNvXNtNtCs69QEzRJvHMp_5alloc3vec11spec_extendINtB4_3VecNtNtB6_6string6StringEINtB2_10SpecExtendBR_INtNtNtNtCsliVzVx4luf9_4core4iter7sources7from_fn6FromFnNCNvNtNtCsehVGFPP7CiK_11clap_derive5utils12doc_comments16split_paragraphs0EE11spec_extendB2A_, symObjAddr: 0x484C, symBinAddr: 0x225EC, symSize: 0x24 }
  - { offset: 0x1F712, size: 0x8, addend: 0x0, symName: __RNvXNtNtCs69QEzRJvHMp_5alloc3vec11spec_extendINtB4_3VecNtNtB6_6string6StringEINtB2_10SpecExtendBR_INtNtNtNtCsliVzVx4luf9_4core4iter8adapters3map3MapINtNtNtB1H_3str4iter5SplitcENCNCNvNtNtCsehVGFPP7CiK_11clap_derive5utils12doc_comments19extract_doc_comments1_00EE11spec_extendB2Y_, symObjAddr: 0x4870, symBinAddr: 0x22610, symSize: 0x24 }
  - { offset: 0x1F764, size: 0x8, addend: 0x0, symName: __RNvXNtNtCs69QEzRJvHMp_5alloc3vec11spec_extendINtB4_3VecNtNtB6_6string6StringEINtB2_10SpecExtendBR_INtNtNtNtCsliVzVx4luf9_4core4iter8adapters7flatten7FlatMapINtNtB1D_10skip_while9SkipWhileINtNtB1D_10filter_map9FilterMapINtNtB1D_6filter6FilterINtNtNtB1H_5slice4iter4IterNtNtCsaxBLFzn74Hr_3syn4attr9AttributeENCNvNtNtCsehVGFPP7CiK_11clap_derive5utils12doc_comments19extract_doc_comment0ENCB4W_s_0ENCB4W_s0_0EBH_NCB4W_s1_0EE11spec_extendB52_, symObjAddr: 0x4894, symBinAddr: 0x22634, symSize: 0x24 }
  - { offset: 0x1F7B6, size: 0x8, addend: 0x0, symName: __RNvXNtNtCs69QEzRJvHMp_5alloc3vec11spec_extendINtB4_3VecNtNtCsaxBLFzn74Hr_3syn4expr4ExprEINtB2_10SpecExtendBR_INtNtBV_10punctuated8IntoIterBR_EE11spec_extendCsehVGFPP7CiK_11clap_derive, symObjAddr: 0x48B8, symBinAddr: 0x22658, symSize: 0x24 }
  - { offset: 0x1F808, size: 0x8, addend: 0x0, symName: __RNvXNtNtCs69QEzRJvHMp_5alloc3vec11spec_extendINtB4_3VecRNtCs3vPhoADqSdK_11proc_macro25IdentEINtB2_10SpecExtendBR_INtNtNtNtCsliVzVx4luf9_4core4iter8adapters3map3MapINtNtCsaxBLFzn74Hr_3syn10punctuated4IterNtNtB2G_4data5FieldENCNCNvNtNtCsehVGFPP7CiK_11clap_derive7derives10subcommand27gen_update_from_arg_matchess0_00EE11spec_extendB3J_, symObjAddr: 0x48DC, symBinAddr: 0x2267C, symSize: 0x34 }
  - { offset: 0x1F859, size: 0x8, addend: 0x0, symName: __RNvXNtNtCs69QEzRJvHMp_5alloc3vec11spec_extendINtB4_3VecRNtNtCsehVGFPP7CiK_11clap_derive4item4NameEINtB2_10SpecExtendBR_INtNtNtNtCsliVzVx4luf9_4core4iter8adapters10filter_map9FilterMapINtNtNtB22_5slice4iter4IterTRNtNtCsaxBLFzn74Hr_3syn4data5FieldNtBU_4ItemEENCNvNtNtBW_7derives4args11gen_augment0EE11spec_extendBW_, symObjAddr: 0x4910, symBinAddr: 0x226B0, symSize: 0x34 }
  - { offset: 0x1F8AA, size: 0x8, addend: 0x0, symName: __RNvXNtNtCs69QEzRJvHMp_5alloc3vec11spec_extendINtB4_3VecTRNtNtCsaxBLFzn74Hr_3syn4data5FieldNtNtCsehVGFPP7CiK_11clap_derive4item4ItemEEINtB2_10SpecExtendBR_INtNtNtCsliVzVx4luf9_4core4iter8adapters12GenericShuntINtNtB2v_3map3MapINtNtBX_10punctuated4IterBT_ENCNvNtNtB1u_7derives4args11derive_args0EINtNtB2z_6result6ResultNtNtB2z_7convert10InfallibleNtNtBX_5error5ErrorEEE11spec_extendB1u_, symObjAddr: 0x4944, symBinAddr: 0x226E4, symSize: 0x24 }
  - { offset: 0x1F8FC, size: 0x8, addend: 0x0, symName: __RNvXNtNtCs69QEzRJvHMp_5alloc3vec11spec_extendINtB4_3VecTRNtNtCsaxBLFzn74Hr_3syn4data5FieldNtNtCsehVGFPP7CiK_11clap_derive4item4ItemEEINtB2_10SpecExtendBR_INtNtNtCsliVzVx4luf9_4core4iter8adapters12GenericShuntINtNtB2v_3map3MapINtNtBX_10punctuated4IterBT_ENCNvNtNtB1u_7derives4args19collect_args_fields0EINtNtB2z_6result6ResultNtNtB2z_7convert10InfallibleNtNtBX_5error5ErrorEEE11spec_extendB1u_, symObjAddr: 0x4968, symBinAddr: 0x22708, symSize: 0x24 }
  - { offset: 0x1F94E, size: 0x8, addend: 0x0, symName: __RNvXNtNtCs69QEzRJvHMp_5alloc3vec11spec_extendINtB4_3VecTRNtNtCsaxBLFzn74Hr_3syn4data5FieldNtNtCsehVGFPP7CiK_11clap_derive4item4ItemEEINtB2_10SpecExtendBR_INtNtNtCsliVzVx4luf9_4core4iter8adapters12GenericShuntINtNtB2v_3map3MapINtNtBX_10punctuated4IterBT_ENCNvNtNtB1u_7derives6parser13derive_parser0EINtNtB2z_6result6ResultNtNtB2z_7convert10InfallibleNtNtBX_5error5ErrorEEE11spec_extendB1u_, symObjAddr: 0x498C, symBinAddr: 0x2272C, symSize: 0x24 }
  - { offset: 0x1F9A0, size: 0x8, addend: 0x0, symName: __RNvXNtNtCs69QEzRJvHMp_5alloc3vec11spec_extendINtB4_3VecTRNtNtCsaxBLFzn74Hr_3syn4data7VariantNtNtCsehVGFPP7CiK_11clap_derive4item4ItemEEINtB2_10SpecExtendBR_INtNtNtCsliVzVx4luf9_4core4iter8adapters12GenericShuntINtNtB2x_3map3MapINtNtBX_10punctuated4IterBT_ENCNvNtNtB1w_7derives10subcommand17derive_subcommand0EINtNtB2B_6result6ResultNtNtB2B_7convert10InfallibleNtNtBX_5error5ErrorEEE11spec_extendB1w_, symObjAddr: 0x49B0, symBinAddr: 0x22750, symSize: 0x24 }
  - { offset: 0x1F9F2, size: 0x8, addend: 0x0, symName: __RNvXNtNtCs69QEzRJvHMp_5alloc3vec11spec_extendINtB4_3VecTRNtNtCsaxBLFzn74Hr_3syn4data7VariantNtNtCsehVGFPP7CiK_11clap_derive4item4ItemEEINtB2_10SpecExtendBR_INtNtNtCsliVzVx4luf9_4core4iter8adapters12GenericShuntINtNtB2x_3map3MapINtNtBX_10punctuated4IterBT_ENCNvNtNtB1w_7derives6parser13derive_parsers_0EINtNtB2B_6result6ResultNtNtB2B_7convert10InfallibleNtNtBX_5error5ErrorEEE11spec_extendB1w_, symObjAddr: 0x49D4, symBinAddr: 0x22774, symSize: 0x24 }
  - { offset: 0x1FA4A, size: 0x8, addend: 0x0, symName: __RNvXs_NtNtCs69QEzRJvHMp_5alloc3vec11spec_extendINtB6_3VecNtNtB8_6string6StringEINtB4_10SpecExtendBT_INtNtNtNtCsliVzVx4luf9_4core4iter8adapters3map3MapINtNtNtB1J_5slice4iter4IterBT_ENCINvNtNtCsehVGFPP7CiK_11clap_derive5utils12doc_comments11merge_linesRBT_RSBT_E0EE11spec_extendB32_, symObjAddr: 0x7DBC, symBinAddr: 0x25B5C, symSize: 0x34 }
  - { offset: 0x1FA9B, size: 0x8, addend: 0x0, symName: __RNvXs_NtNtCs69QEzRJvHMp_5alloc3vec11spec_extendINtB6_3VecNtNtB8_6string6StringEINtB4_10SpecExtendBT_INtNtNtNtCsliVzVx4luf9_4core4iter8adapters3map3MapINtNtNtB1J_5slice4iter4IterNtNtCsehVGFPP7CiK_11clap_derive4attr8AttrKindENCNvNtB2T_4item16assert_attr_kind0EE11spec_extendB2T_, symObjAddr: 0x7DF0, symBinAddr: 0x25B90, symSize: 0x24 }
  - { offset: 0x1FAED, size: 0x8, addend: 0x0, symName: __RNvXs_NtNtCs69QEzRJvHMp_5alloc3vec11spec_extendINtB6_3VecNtNtCsaxBLFzn74Hr_3syn4expr4ExprEINtB4_10SpecExtendBT_INtNtCsliVzVx4luf9_4core6option8IntoIterBT_EE11spec_extendCsehVGFPP7CiK_11clap_derive, symObjAddr: 0x7E14, symBinAddr: 0x25BB4, symSize: 0x24 }
  - { offset: 0x1FB3F, size: 0x8, addend: 0x0, symName: __RNvXs_NtNtCs69QEzRJvHMp_5alloc3vec11spec_extendINtB6_3VecNtNtCsaxBLFzn74Hr_3syn4expr4ExprEINtB4_10SpecExtendBT_INtNtNtNtCsliVzVx4luf9_4core4iter8adapters3map3MapINtNtB6_9into_iter8IntoIterTBT_NtNtBX_5token5CommaEENCNvXs4_NtBX_10punctuatedINtB3x_10PunctuatedBT_B34_ENtNtNtB1S_6traits7collect12IntoIterator9into_iter0EE11spec_extendCsehVGFPP7CiK_11clap_derive, symObjAddr: 0x7E38, symBinAddr: 0x25BD8, symSize: 0x24 }
  - { offset: 0x1FB91, size: 0x8, addend: 0x0, symName: __RNvXs_NtNtCs69QEzRJvHMp_5alloc3vec11spec_extendINtB6_3VecNtNtCsehVGFPP7CiK_11clap_derive4attr8ClapAttrEINtB4_10SpecExtendBT_INtNtCsliVzVx4luf9_4core6option8IntoIterBT_EE11spec_extendBX_, symObjAddr: 0x7E5C, symBinAddr: 0x25BFC, symSize: 0x24 }
  - { offset: 0x1FBE3, size: 0x8, addend: 0x0, symName: __RNvXs_NtNtCs69QEzRJvHMp_5alloc3vec11spec_extendINtB6_3VecNtNtCsehVGFPP7CiK_11clap_derive4attr8ClapAttrEINtB4_10SpecExtendBT_INtNtNtNtCsliVzVx4luf9_4core4iter8adapters3map3MapINtNtB6_9into_iter8IntoIterTBT_NtNtCsaxBLFzn74Hr_3syn5token5CommaEENCNvXs4_NtB3l_10punctuatedINtB3Z_10PunctuatedBT_B3h_ENtNtNtB25_6traits7collect12IntoIterator9into_iter0EE11spec_extendBX_, symObjAddr: 0x7E80, symBinAddr: 0x25C20, symSize: 0x24 }
  - { offset: 0x1FC35, size: 0x8, addend: 0x0, symName: __RNvXs_NtNtCs69QEzRJvHMp_5alloc3vec11spec_extendINtB6_3VecRNtCs3vPhoADqSdK_11proc_macro25IdentEINtB4_10SpecExtendBT_INtNtNtNtCsliVzVx4luf9_4core4iter8adapters3map3MapINtNtNtB1Y_5slice4iter4IterTNtBW_11TokenStreamBU_EENCNvNtNtCsehVGFPP7CiK_11clap_derive7derives10value_enum18gen_value_variants0EE11spec_extendB3A_, symObjAddr: 0x7EA4, symBinAddr: 0x25C44, symSize: 0x34 }
  - { offset: 0x1FC92, size: 0x8, addend: 0x0, symName: __RNvXNtNtCs69QEzRJvHMp_5alloc3vec14spec_from_iterINtB4_3VecNtCs3vPhoADqSdK_11proc_macro211TokenStreamEINtB2_12SpecFromIterBU_INtNtNtCsliVzVx4luf9_4core4iter8adapters12GenericShuntINtNtB21_3map3MapINtNtNtB25_5slice4iter4IterTRNtNtCsaxBLFzn74Hr_3syn4data5FieldNtNtCsehVGFPP7CiK_11clap_derive4item4ItemEENCNvNtNtB4b_7derives4args15gen_constructor0EINtNtB25_6result6ResultNtNtB25_7convert10InfallibleNtNtB3E_5error5ErrorEEE9from_iterB4b_, symObjAddr: 0x49F8, symBinAddr: 0x22798, symSize: 0x14 }
  - { offset: 0x1FCD1, size: 0x8, addend: 0x0, symName: __RNvXNtNtCs69QEzRJvHMp_5alloc3vec14spec_from_iterINtB4_3VecNtCs3vPhoADqSdK_11proc_macro211TokenStreamEINtB2_12SpecFromIterBU_INtNtNtCsliVzVx4luf9_4core4iter8adapters12GenericShuntINtNtB21_3map3MapINtNtNtB25_5slice4iter4IterTRRNtNtCsaxBLFzn74Hr_3syn4data7VariantRNtNtCsehVGFPP7CiK_11clap_derive4item4ItemEENCNvNtNtB4f_7derives10subcommand18gen_has_subcommands1_0EINtNtB25_6result6ResultNtNtB25_7convert10InfallibleNtNtB3F_5error5ErrorEEE9from_iterB4f_, symObjAddr: 0x4A0C, symBinAddr: 0x227AC, symSize: 0x14 }
  - { offset: 0x1FD10, size: 0x8, addend: 0x0, symName: __RNvXNtNtCs69QEzRJvHMp_5alloc3vec14spec_from_iterINtB4_3VecNtCs3vPhoADqSdK_11proc_macro211TokenStreamEINtB2_12SpecFromIterBU_INtNtNtCsliVzVx4luf9_4core4iter8adapters12GenericShuntINtNtB21_3map3MapINtNtNtB25_5slice4iter4IterTRRNtNtCsaxBLFzn74Hr_3syn4data7VariantRNtNtCsehVGFPP7CiK_11clap_derive4item4ItemEENCNvNtNtB4f_7derives10subcommand20gen_from_arg_matches0EINtNtB25_6result6ResultNtNtB25_7convert10InfallibleNtNtB3F_5error5ErrorEEE9from_iterB4f_, symObjAddr: 0x4A20, symBinAddr: 0x227C0, symSize: 0x14 }
  - { offset: 0x1FD4F, size: 0x8, addend: 0x0, symName: __RNvXNtNtCs69QEzRJvHMp_5alloc3vec14spec_from_iterINtB4_3VecNtCs3vPhoADqSdK_11proc_macro211TokenStreamEINtB2_12SpecFromIterBU_INtNtNtCsliVzVx4luf9_4core4iter8adapters12GenericShuntINtNtB21_3map3MapINtNtNtB25_5slice4iter4IterTRRNtNtCsaxBLFzn74Hr_3syn4data7VariantRNtNtCsehVGFPP7CiK_11clap_derive4item4ItemEENCNvNtNtB4f_7derives10subcommand20gen_from_arg_matchess_0EINtNtB25_6result6ResultNtNtB25_7convert10InfallibleNtNtB3F_5error5ErrorEEE9from_iterB4f_, symObjAddr: 0x4A34, symBinAddr: 0x227D4, symSize: 0x14 }
  - { offset: 0x1FD8E, size: 0x8, addend: 0x0, symName: __RNvXNtNtCs69QEzRJvHMp_5alloc3vec14spec_from_iterINtB4_3VecNtCs3vPhoADqSdK_11proc_macro211TokenStreamEINtB2_12SpecFromIterBU_INtNtNtCsliVzVx4luf9_4core4iter8adapters12GenericShuntINtNtB21_3map3MapINtNtNtB25_5slice4iter4IterTRRNtNtCsaxBLFzn74Hr_3syn4data7VariantRNtNtCsehVGFPP7CiK_11clap_derive4item4ItemEENCNvNtNtB4f_7derives10subcommand27gen_update_from_arg_matchess0_0EINtNtB25_6result6ResultNtNtB25_7convert10InfallibleNtNtB3F_5error5ErrorEEE9from_iterB4f_, symObjAddr: 0x4A48, symBinAddr: 0x227E8, symSize: 0x14 }
  - { offset: 0x1FDCD, size: 0x8, addend: 0x0, symName: __RNvXNtNtCs69QEzRJvHMp_5alloc3vec14spec_from_iterINtB4_3VecNtCs3vPhoADqSdK_11proc_macro211TokenStreamEINtB2_12SpecFromIterBU_INtNtNtCsliVzVx4luf9_4core4iter8adapters12GenericShuntINtNtB21_3map3MapINtNtNtB25_5slice4iter4IterTRRNtNtCsaxBLFzn74Hr_3syn4data7VariantRNtNtCsehVGFPP7CiK_11clap_derive4item4ItemEENCNvNtNtB4f_7derives10subcommand27gen_update_from_arg_matchess1_0EINtNtB25_6result6ResultNtNtB25_7convert10InfallibleNtNtB3F_5error5ErrorEEE9from_iterB4f_, symObjAddr: 0x4A5C, symBinAddr: 0x227FC, symSize: 0x14 }
  - { offset: 0x1FE0C, size: 0x8, addend: 0x0, symName: __RNvXNtNtCs69QEzRJvHMp_5alloc3vec14spec_from_iterINtB4_3VecNtNtB6_6string6StringEINtB2_12SpecFromIterBU_INtNtNtNtCsliVzVx4luf9_4core4iter7sources7from_fn6FromFnNCNvNtNtCsehVGFPP7CiK_11clap_derive5utils12doc_comments16split_paragraphs0EE9from_iterB2F_, symObjAddr: 0x4A70, symBinAddr: 0x22810, symSize: 0x14 }
  - { offset: 0x1FE4B, size: 0x8, addend: 0x0, symName: __RNvXNtNtCs69QEzRJvHMp_5alloc3vec14spec_from_iterINtB4_3VecNtNtB6_6string6StringEINtB2_12SpecFromIterBU_INtNtNtNtCsliVzVx4luf9_4core4iter8adapters3map3MapINtNtNtB1M_3str4iter5SplitcENCNCNvNtNtCsehVGFPP7CiK_11clap_derive5utils12doc_comments19extract_doc_comments1_00EE9from_iterB33_, symObjAddr: 0x4A84, symBinAddr: 0x22824, symSize: 0x14 }
  - { offset: 0x1FE8A, size: 0x8, addend: 0x0, symName: __RNvXNtNtCs69QEzRJvHMp_5alloc3vec14spec_from_iterINtB4_3VecNtNtB6_6string6StringEINtB2_12SpecFromIterBU_INtNtNtNtCsliVzVx4luf9_4core4iter8adapters3map3MapINtNtNtB1M_5slice4iter4IterBU_ENCINvNtNtCsehVGFPP7CiK_11clap_derive5utils12doc_comments11merge_linesRBU_RSBU_E0EE9from_iterB35_, symObjAddr: 0x4A98, symBinAddr: 0x22838, symSize: 0x2C }
  - { offset: 0x1FEC8, size: 0x8, addend: 0x0, symName: __RNvXNtNtCs69QEzRJvHMp_5alloc3vec14spec_from_iterINtB4_3VecNtNtB6_6string6StringEINtB2_12SpecFromIterBU_INtNtNtNtCsliVzVx4luf9_4core4iter8adapters3map3MapINtNtNtB1M_5slice4iter4IterNtNtCsehVGFPP7CiK_11clap_derive4attr8AttrKindENCNvNtB2W_4item16assert_attr_kind0EE9from_iterB2W_, symObjAddr: 0x4AC4, symBinAddr: 0x22864, symSize: 0x14 }
  - { offset: 0x1FF07, size: 0x8, addend: 0x0, symName: __RNvXNtNtCs69QEzRJvHMp_5alloc3vec14spec_from_iterINtB4_3VecNtNtB6_6string6StringEINtB2_12SpecFromIterBU_INtNtNtNtCsliVzVx4luf9_4core4iter8adapters7flatten7FlatMapINtNtB1I_10skip_while9SkipWhileINtNtB1I_10filter_map9FilterMapINtNtB1I_6filter6FilterINtNtNtB1M_5slice4iter4IterNtNtCsaxBLFzn74Hr_3syn4attr9AttributeENCNvNtNtCsehVGFPP7CiK_11clap_derive5utils12doc_comments19extract_doc_comment0ENCB51_s_0ENCB51_s0_0EBK_NCB51_s1_0EE9from_iterB57_, symObjAddr: 0x4AD8, symBinAddr: 0x22878, symSize: 0x14 }
  - { offset: 0x1FF46, size: 0x8, addend: 0x0, symName: __RNvXNtNtCs69QEzRJvHMp_5alloc3vec14spec_from_iterINtB4_3VecNtNtCsaxBLFzn74Hr_3syn4expr4ExprEINtB2_12SpecFromIterBU_INtNtBY_10punctuated8IntoIterBU_EE9from_iterCsehVGFPP7CiK_11clap_derive, symObjAddr: 0x4AEC, symBinAddr: 0x2288C, symSize: 0x14 }
  - { offset: 0x1FF85, size: 0x8, addend: 0x0, symName: __RNvXNtNtCs69QEzRJvHMp_5alloc3vec14spec_from_iterINtB4_3VecRNtCs3vPhoADqSdK_11proc_macro25IdentEINtB2_12SpecFromIterBU_INtNtNtNtCsliVzVx4luf9_4core4iter8adapters3map3MapINtNtCsaxBLFzn74Hr_3syn10punctuated4IterNtNtB2L_4data5FieldENCNCNvNtNtCsehVGFPP7CiK_11clap_derive7derives10subcommand27gen_update_from_arg_matchess0_00EE9from_iterB3O_, symObjAddr: 0x4B00, symBinAddr: 0x228A0, symSize: 0x2C }
  - { offset: 0x1FFC3, size: 0x8, addend: 0x0, symName: __RNvXNtNtCs69QEzRJvHMp_5alloc3vec14spec_from_iterINtB4_3VecRNtCs3vPhoADqSdK_11proc_macro25IdentEINtB2_12SpecFromIterBU_INtNtNtNtCsliVzVx4luf9_4core4iter8adapters3map3MapINtNtNtB21_5slice4iter4IterTNtBX_11TokenStreamBV_EENCNvNtNtCsehVGFPP7CiK_11clap_derive7derives10value_enum18gen_value_variants0EE9from_iterB3D_, symObjAddr: 0x4B2C, symBinAddr: 0x228CC, symSize: 0x2C }
  - { offset: 0x20001, size: 0x8, addend: 0x0, symName: __RNvXNtNtCs69QEzRJvHMp_5alloc3vec14spec_from_iterINtB4_3VecRNtNtCsehVGFPP7CiK_11clap_derive4item4NameEINtB2_12SpecFromIterBU_INtNtNtNtCsliVzVx4luf9_4core4iter8adapters10filter_map9FilterMapINtNtNtB27_5slice4iter4IterTRNtNtCsaxBLFzn74Hr_3syn4data5FieldNtBX_4ItemEENCNvNtNtBZ_7derives4args11gen_augment0EE9from_iterBZ_, symObjAddr: 0x4B58, symBinAddr: 0x228F8, symSize: 0x2C }
  - { offset: 0x2003F, size: 0x8, addend: 0x0, symName: __RNvXNtNtCs69QEzRJvHMp_5alloc3vec14spec_from_iterINtB4_3VecTRNtNtCsaxBLFzn74Hr_3syn4data5FieldNtNtCsehVGFPP7CiK_11clap_derive4item4ItemEEINtB2_12SpecFromIterBU_INtNtNtCsliVzVx4luf9_4core4iter8adapters12GenericShuntINtNtB2A_3map3MapINtNtB10_10punctuated4IterBW_ENCNvNtNtB1x_7derives4args11derive_args0EINtNtB2E_6result6ResultNtNtB2E_7convert10InfallibleNtNtB10_5error5ErrorEEE9from_iterB1x_, symObjAddr: 0x4B84, symBinAddr: 0x22924, symSize: 0x14 }
  - { offset: 0x2007E, size: 0x8, addend: 0x0, symName: __RNvXNtNtCs69QEzRJvHMp_5alloc3vec14spec_from_iterINtB4_3VecTRNtNtCsaxBLFzn74Hr_3syn4data5FieldNtNtCsehVGFPP7CiK_11clap_derive4item4ItemEEINtB2_12SpecFromIterBU_INtNtNtCsliVzVx4luf9_4core4iter8adapters12GenericShuntINtNtB2A_3map3MapINtNtB10_10punctuated4IterBW_ENCNvNtNtB1x_7derives4args19collect_args_fields0EINtNtB2E_6result6ResultNtNtB2E_7convert10InfallibleNtNtB10_5error5ErrorEEE9from_iterB1x_, symObjAddr: 0x4B98, symBinAddr: 0x22938, symSize: 0x14 }
  - { offset: 0x200BD, size: 0x8, addend: 0x0, symName: __RNvXNtNtCs69QEzRJvHMp_5alloc3vec14spec_from_iterINtB4_3VecTRNtNtCsaxBLFzn74Hr_3syn4data5FieldNtNtCsehVGFPP7CiK_11clap_derive4item4ItemEEINtB2_12SpecFromIterBU_INtNtNtCsliVzVx4luf9_4core4iter8adapters12GenericShuntINtNtB2A_3map3MapINtNtB10_10punctuated4IterBW_ENCNvNtNtB1x_7derives6parser13derive_parser0EINtNtB2E_6result6ResultNtNtB2E_7convert10InfallibleNtNtB10_5error5ErrorEEE9from_iterB1x_, symObjAddr: 0x4BAC, symBinAddr: 0x2294C, symSize: 0x14 }
  - { offset: 0x200FC, size: 0x8, addend: 0x0, symName: __RNvXNtNtCs69QEzRJvHMp_5alloc3vec14spec_from_iterINtB4_3VecTRNtNtCsaxBLFzn74Hr_3syn4data7VariantNtNtCsehVGFPP7CiK_11clap_derive4item4ItemEEINtB2_12SpecFromIterBU_INtNtNtCsliVzVx4luf9_4core4iter8adapters12GenericShuntINtNtB2C_3map3MapINtNtB10_10punctuated4IterBW_ENCNvNtNtB1z_7derives10subcommand17derive_subcommand0EINtNtB2G_6result6ResultNtNtB2G_7convert10InfallibleNtNtB10_5error5ErrorEEE9from_iterB1z_, symObjAddr: 0x4BC0, symBinAddr: 0x22960, symSize: 0x14 }
  - { offset: 0x2013B, size: 0x8, addend: 0x0, symName: __RNvXNtNtCs69QEzRJvHMp_5alloc3vec14spec_from_iterINtB4_3VecTRNtNtCsaxBLFzn74Hr_3syn4data7VariantNtNtCsehVGFPP7CiK_11clap_derive4item4ItemEEINtB2_12SpecFromIterBU_INtNtNtCsliVzVx4luf9_4core4iter8adapters12GenericShuntINtNtB2C_3map3MapINtNtB10_10punctuated4IterBW_ENCNvNtNtB1z_7derives6parser13derive_parsers_0EINtNtB2G_6result6ResultNtNtB2G_7convert10InfallibleNtNtB10_5error5ErrorEEE9from_iterB1z_, symObjAddr: 0x4BD4, symBinAddr: 0x22974, symSize: 0x14 }
  - { offset: 0x20186, size: 0x8, addend: 0x0, symName: __RNvXNtNtCs69QEzRJvHMp_5alloc3vec21spec_from_iter_nestedINtB4_3VecNtCs3vPhoADqSdK_11proc_macro211TokenStreamEINtB2_18SpecFromIterNestedB11_INtNtNtCsliVzVx4luf9_4core4iter8adapters12GenericShuntINtNtB2f_3map3MapINtNtNtB2j_5slice4iter4IterTRNtNtCsaxBLFzn74Hr_3syn4data5FieldNtNtCsehVGFPP7CiK_11clap_derive4item4ItemEENCNvNtNtB4p_7derives4args15gen_constructor0EINtNtB2j_6result6ResultNtNtB2j_7convert10InfallibleNtNtB3S_5error5ErrorEEE9from_iterB4p_, symObjAddr: 0x4BE8, symBinAddr: 0x22988, symSize: 0x250 }
  - { offset: 0x20439, size: 0x8, addend: 0x0, symName: __RNvXNtNtCs69QEzRJvHMp_5alloc3vec21spec_from_iter_nestedINtB4_3VecNtCs3vPhoADqSdK_11proc_macro211TokenStreamEINtB2_18SpecFromIterNestedB11_INtNtNtCsliVzVx4luf9_4core4iter8adapters12GenericShuntINtNtB2f_3map3MapINtNtNtB2j_5slice4iter4IterTRRNtNtCsaxBLFzn74Hr_3syn4data7VariantRNtNtCsehVGFPP7CiK_11clap_derive4item4ItemEENCNvNtNtB4t_7derives10subcommand18gen_has_subcommands1_0EINtNtB2j_6result6ResultNtNtB2j_7convert10InfallibleNtNtB3T_5error5ErrorEEE9from_iterB4t_, symObjAddr: 0x4E38, symBinAddr: 0x22BD8, symSize: 0x250 }
  - { offset: 0x206EC, size: 0x8, addend: 0x0, symName: __RNvXNtNtCs69QEzRJvHMp_5alloc3vec21spec_from_iter_nestedINtB4_3VecNtCs3vPhoADqSdK_11proc_macro211TokenStreamEINtB2_18SpecFromIterNestedB11_INtNtNtCsliVzVx4luf9_4core4iter8adapters12GenericShuntINtNtB2f_3map3MapINtNtNtB2j_5slice4iter4IterTRRNtNtCsaxBLFzn74Hr_3syn4data7VariantRNtNtCsehVGFPP7CiK_11clap_derive4item4ItemEENCNvNtNtB4t_7derives10subcommand20gen_from_arg_matches0EINtNtB2j_6result6ResultNtNtB2j_7convert10InfallibleNtNtB3T_5error5ErrorEEE9from_iterB4t_, symObjAddr: 0x5088, symBinAddr: 0x22E28, symSize: 0x25C }
  - { offset: 0x209A1, size: 0x8, addend: 0x0, symName: __RNvXNtNtCs69QEzRJvHMp_5alloc3vec21spec_from_iter_nestedINtB4_3VecNtCs3vPhoADqSdK_11proc_macro211TokenStreamEINtB2_18SpecFromIterNestedB11_INtNtNtCsliVzVx4luf9_4core4iter8adapters12GenericShuntINtNtB2f_3map3MapINtNtNtB2j_5slice4iter4IterTRRNtNtCsaxBLFzn74Hr_3syn4data7VariantRNtNtCsehVGFPP7CiK_11clap_derive4item4ItemEENCNvNtNtB4t_7derives10subcommand20gen_from_arg_matchess_0EINtNtB2j_6result6ResultNtNtB2j_7convert10InfallibleNtNtB3T_5error5ErrorEEE9from_iterB4t_, symObjAddr: 0x52E4, symBinAddr: 0x23084, symSize: 0x250 }
  - { offset: 0x20C54, size: 0x8, addend: 0x0, symName: __RNvXNtNtCs69QEzRJvHMp_5alloc3vec21spec_from_iter_nestedINtB4_3VecNtCs3vPhoADqSdK_11proc_macro211TokenStreamEINtB2_18SpecFromIterNestedB11_INtNtNtCsliVzVx4luf9_4core4iter8adapters12GenericShuntINtNtB2f_3map3MapINtNtNtB2j_5slice4iter4IterTRRNtNtCsaxBLFzn74Hr_3syn4data7VariantRNtNtCsehVGFPP7CiK_11clap_derive4item4ItemEENCNvNtNtB4t_7derives10subcommand27gen_update_from_arg_matchess0_0EINtNtB2j_6result6ResultNtNtB2j_7convert10InfallibleNtNtB3T_5error5ErrorEEE9from_iterB4t_, symObjAddr: 0x5534, symBinAddr: 0x232D4, symSize: 0x250 }
  - { offset: 0x20F07, size: 0x8, addend: 0x0, symName: __RNvXNtNtCs69QEzRJvHMp_5alloc3vec21spec_from_iter_nestedINtB4_3VecNtCs3vPhoADqSdK_11proc_macro211TokenStreamEINtB2_18SpecFromIterNestedB11_INtNtNtCsliVzVx4luf9_4core4iter8adapters12GenericShuntINtNtB2f_3map3MapINtNtNtB2j_5slice4iter4IterTRRNtNtCsaxBLFzn74Hr_3syn4data7VariantRNtNtCsehVGFPP7CiK_11clap_derive4item4ItemEENCNvNtNtB4t_7derives10subcommand27gen_update_from_arg_matchess1_0EINtNtB2j_6result6ResultNtNtB2j_7convert10InfallibleNtNtB3T_5error5ErrorEEE9from_iterB4t_, symObjAddr: 0x5784, symBinAddr: 0x23524, symSize: 0x250 }
  - { offset: 0x211BA, size: 0x8, addend: 0x0, symName: __RNvXNtNtCs69QEzRJvHMp_5alloc3vec21spec_from_iter_nestedINtB4_3VecNtNtB6_6string6StringEINtB2_18SpecFromIterNestedB11_INtNtNtNtCsliVzVx4luf9_4core4iter7sources7from_fn6FromFnNCNvNtNtCsehVGFPP7CiK_11clap_derive5utils12doc_comments16split_paragraphs0EE9from_iterB2T_, symObjAddr: 0x59D4, symBinAddr: 0x23774, symSize: 0x250 }
  - { offset: 0x2146D, size: 0x8, addend: 0x0, symName: __RNvXNtNtCs69QEzRJvHMp_5alloc3vec21spec_from_iter_nestedINtB4_3VecNtNtB6_6string6StringEINtB2_18SpecFromIterNestedB11_INtNtNtNtCsliVzVx4luf9_4core4iter8adapters3map3MapINtNtNtB20_3str4iter5SplitcENCNCNvNtNtCsehVGFPP7CiK_11clap_derive5utils12doc_comments19extract_doc_comments1_00EE9from_iterB3h_, symObjAddr: 0x5C24, symBinAddr: 0x239C4, symSize: 0x25C }
  - { offset: 0x21722, size: 0x8, addend: 0x0, symName: __RNvXNtNtCs69QEzRJvHMp_5alloc3vec21spec_from_iter_nestedINtB4_3VecNtNtB6_6string6StringEINtB2_18SpecFromIterNestedB11_INtNtNtNtCsliVzVx4luf9_4core4iter8adapters7flatten7FlatMapINtNtB1W_10skip_while9SkipWhileINtNtB1W_10filter_map9FilterMapINtNtB1W_6filter6FilterINtNtNtB20_5slice4iter4IterNtNtCsaxBLFzn74Hr_3syn4attr9AttributeENCNvNtNtCsehVGFPP7CiK_11clap_derive5utils12doc_comments19extract_doc_comment0ENCB5f_s_0ENCB5f_s0_0EBR_NCB5f_s1_0EE9from_iterB5l_, symObjAddr: 0x5E80, symBinAddr: 0x23C20, symSize: 0x26C }
  - { offset: 0x219D7, size: 0x8, addend: 0x0, symName: __RNvXNtNtCs69QEzRJvHMp_5alloc3vec21spec_from_iter_nestedINtB4_3VecNtNtCsaxBLFzn74Hr_3syn4expr4ExprEINtB2_18SpecFromIterNestedB11_INtNtB15_10punctuated8IntoIterB11_EE9from_iterCsehVGFPP7CiK_11clap_derive, symObjAddr: 0x60EC, symBinAddr: 0x23E8C, symSize: 0x270 }
  - { offset: 0x21C8D, size: 0x8, addend: 0x0, symName: __RNvXNtNtCs69QEzRJvHMp_5alloc3vec21spec_from_iter_nestedINtB4_3VecRNtCs3vPhoADqSdK_11proc_macro25IdentEINtB2_18SpecFromIterNestedB11_INtNtNtNtCsliVzVx4luf9_4core4iter8adapters3map3MapINtNtCsaxBLFzn74Hr_3syn10punctuated4IterNtNtB2Z_4data5FieldENCNCNvNtNtCsehVGFPP7CiK_11clap_derive7derives10subcommand27gen_update_from_arg_matchess0_00EE9from_iterB42_, symObjAddr: 0x635C, symBinAddr: 0x240FC, symSize: 0x234 }
  - { offset: 0x21F40, size: 0x8, addend: 0x0, symName: __RNvXNtNtCs69QEzRJvHMp_5alloc3vec21spec_from_iter_nestedINtB4_3VecRNtNtCsehVGFPP7CiK_11clap_derive4item4NameEINtB2_18SpecFromIterNestedB11_INtNtNtNtCsliVzVx4luf9_4core4iter8adapters10filter_map9FilterMapINtNtNtB2l_5slice4iter4IterTRNtNtCsaxBLFzn74Hr_3syn4data5FieldNtB14_4ItemEENCNvNtNtB16_7derives4args11gen_augment0EE9from_iterB16_, symObjAddr: 0x6590, symBinAddr: 0x24330, symSize: 0x224 }
  - { offset: 0x221F3, size: 0x8, addend: 0x0, symName: __RNvXNtNtCs69QEzRJvHMp_5alloc3vec21spec_from_iter_nestedINtB4_3VecTRNtNtCsaxBLFzn74Hr_3syn4data5FieldNtNtCsehVGFPP7CiK_11clap_derive4item4ItemEEINtB2_18SpecFromIterNestedB11_INtNtNtCsliVzVx4luf9_4core4iter8adapters12GenericShuntINtNtB2O_3map3MapINtNtB17_10punctuated4IterB13_ENCNvNtNtB1E_7derives4args11derive_args0EINtNtB2S_6result6ResultNtNtB2S_7convert10InfallibleNtNtB17_5error5ErrorEEE9from_iterB1E_, symObjAddr: 0x67B4, symBinAddr: 0x24554, symSize: 0x274 }
  - { offset: 0x224A9, size: 0x8, addend: 0x0, symName: __RNvXNtNtCs69QEzRJvHMp_5alloc3vec21spec_from_iter_nestedINtB4_3VecTRNtNtCsaxBLFzn74Hr_3syn4data5FieldNtNtCsehVGFPP7CiK_11clap_derive4item4ItemEEINtB2_18SpecFromIterNestedB11_INtNtNtCsliVzVx4luf9_4core4iter8adapters12GenericShuntINtNtB2O_3map3MapINtNtB17_10punctuated4IterB13_ENCNvNtNtB1E_7derives4args19collect_args_fields0EINtNtB2S_6result6ResultNtNtB2S_7convert10InfallibleNtNtB17_5error5ErrorEEE9from_iterB1E_, symObjAddr: 0x6A28, symBinAddr: 0x247C8, symSize: 0x274 }
  - { offset: 0x2275F, size: 0x8, addend: 0x0, symName: __RNvXNtNtCs69QEzRJvHMp_5alloc3vec21spec_from_iter_nestedINtB4_3VecTRNtNtCsaxBLFzn74Hr_3syn4data5FieldNtNtCsehVGFPP7CiK_11clap_derive4item4ItemEEINtB2_18SpecFromIterNestedB11_INtNtNtCsliVzVx4luf9_4core4iter8adapters12GenericShuntINtNtB2O_3map3MapINtNtB17_10punctuated4IterB13_ENCNvNtNtB1E_7derives6parser13derive_parser0EINtNtB2S_6result6ResultNtNtB2S_7convert10InfallibleNtNtB17_5error5ErrorEEE9from_iterB1E_, symObjAddr: 0x6C9C, symBinAddr: 0x24A3C, symSize: 0x274 }
  - { offset: 0x22A15, size: 0x8, addend: 0x0, symName: __RNvXNtNtCs69QEzRJvHMp_5alloc3vec21spec_from_iter_nestedINtB4_3VecTRNtNtCsaxBLFzn74Hr_3syn4data7VariantNtNtCsehVGFPP7CiK_11clap_derive4item4ItemEEINtB2_18SpecFromIterNestedB11_INtNtNtCsliVzVx4luf9_4core4iter8adapters12GenericShuntINtNtB2Q_3map3MapINtNtB17_10punctuated4IterB13_ENCNvNtNtB1G_7derives10subcommand17derive_subcommand0EINtNtB2U_6result6ResultNtNtB2U_7convert10InfallibleNtNtB17_5error5ErrorEEE9from_iterB1G_, symObjAddr: 0x6F10, symBinAddr: 0x24CB0, symSize: 0x274 }
  - { offset: 0x22CCB, size: 0x8, addend: 0x0, symName: __RNvXNtNtCs69QEzRJvHMp_5alloc3vec21spec_from_iter_nestedINtB4_3VecTRNtNtCsaxBLFzn74Hr_3syn4data7VariantNtNtCsehVGFPP7CiK_11clap_derive4item4ItemEEINtB2_18SpecFromIterNestedB11_INtNtNtCsliVzVx4luf9_4core4iter8adapters12GenericShuntINtNtB2Q_3map3MapINtNtB17_10punctuated4IterB13_ENCNvNtNtB1G_7derives6parser13derive_parsers_0EINtNtB2U_6result6ResultNtNtB2U_7convert10InfallibleNtNtB17_5error5ErrorEEE9from_iterB1G_, symObjAddr: 0x7184, symBinAddr: 0x24F24, symSize: 0x274 }
  - { offset: 0x22F87, size: 0x8, addend: 0x0, symName: __RNvXs_NtNtCs69QEzRJvHMp_5alloc3vec21spec_from_iter_nestedINtB6_3VecNtNtB8_6string6StringEINtB4_18SpecFromIterNestedB13_INtNtNtNtCsliVzVx4luf9_4core4iter8adapters3map3MapINtNtNtB22_5slice4iter4IterB13_ENCINvNtNtCsehVGFPP7CiK_11clap_derive5utils12doc_comments11merge_linesRB13_RSB13_E0EE9from_iterB3m_, symObjAddr: 0x7ED8, symBinAddr: 0x25C78, symSize: 0x180 }
  - { offset: 0x23083, size: 0x8, addend: 0x0, symName: __RNvXs_NtNtCs69QEzRJvHMp_5alloc3vec21spec_from_iter_nestedINtB6_3VecNtNtB8_6string6StringEINtB4_18SpecFromIterNestedB13_INtNtNtNtCsliVzVx4luf9_4core4iter8adapters3map3MapINtNtNtB22_5slice4iter4IterNtNtCsehVGFPP7CiK_11clap_derive4attr8AttrKindENCNvNtB3c_4item16assert_attr_kind0EE9from_iterB3c_, symObjAddr: 0x8058, symBinAddr: 0x25DF8, symSize: 0x18C }
  - { offset: 0x23180, size: 0x8, addend: 0x0, symName: __RNvXs_NtNtCs69QEzRJvHMp_5alloc3vec21spec_from_iter_nestedINtB6_3VecRNtCs3vPhoADqSdK_11proc_macro25IdentEINtB4_18SpecFromIterNestedB13_INtNtNtNtCsliVzVx4luf9_4core4iter8adapters3map3MapINtNtNtB2h_5slice4iter4IterTNtB16_11TokenStreamB14_EENCNvNtNtCsehVGFPP7CiK_11clap_derive7derives10value_enum18gen_value_variants0EE9from_iterB3V_, symObjAddr: 0x81E4, symBinAddr: 0x25F84, symSize: 0x180 }
  - { offset: 0x23283, size: 0x8, addend: 0x0, symName: __RNvXs6_NtCs69QEzRJvHMp_5alloc3vecINtB5_3VecINtNtCsliVzVx4luf9_4core6option6OptionNtCs3vPhoADqSdK_11proc_macro211TokenStreamEENtNtNtBK_3ops5deref5Deref5derefCsehVGFPP7CiK_11clap_derive, symObjAddr: 0x75B8, symBinAddr: 0x25358, symSize: 0x70 }
  - { offset: 0x233A6, size: 0x8, addend: 0x0, symName: __RNvXs6_NtCs69QEzRJvHMp_5alloc3vecINtB5_3VecNtCs3vPhoADqSdK_11proc_macro211TokenStreamENtNtNtCsliVzVx4luf9_4core3ops5deref5Deref5derefCsehVGFPP7CiK_11clap_derive, symObjAddr: 0x7628, symBinAddr: 0x253C8, symSize: 0x70 }
  - { offset: 0x234C9, size: 0x8, addend: 0x0, symName: __RNvXs6_NtCs69QEzRJvHMp_5alloc3vecINtB5_3VecNtCs3vPhoADqSdK_11proc_macro25IdentENtNtNtCsliVzVx4luf9_4core3ops5deref5Deref5derefCsehVGFPP7CiK_11clap_derive, symObjAddr: 0x7698, symBinAddr: 0x25438, symSize: 0x70 }
  - { offset: 0x235EC, size: 0x8, addend: 0x0, symName: __RNvXs6_NtCs69QEzRJvHMp_5alloc3vecINtB5_3VecNtNtB7_6string6StringENtNtNtCsliVzVx4luf9_4core3ops5deref5Deref5derefCsehVGFPP7CiK_11clap_derive, symObjAddr: 0x7708, symBinAddr: 0x254A8, symSize: 0x70 }
  - { offset: 0x2370F, size: 0x8, addend: 0x0, symName: __RNvXs6_NtCs69QEzRJvHMp_5alloc3vecINtB5_3VecNtNtCsaxBLFzn74Hr_3syn4expr4ExprENtNtNtCsliVzVx4luf9_4core3ops5deref5Deref5derefCsehVGFPP7CiK_11clap_derive, symObjAddr: 0x7778, symBinAddr: 0x25518, symSize: 0x70 }
  - { offset: 0x23832, size: 0x8, addend: 0x0, symName: __RNvXs6_NtCs69QEzRJvHMp_5alloc3vecINtB5_3VecNtNtCsehVGFPP7CiK_11clap_derive4attr8ClapAttrENtNtNtCsliVzVx4luf9_4core3ops5deref5Deref5derefBJ_, symObjAddr: 0x77E8, symBinAddr: 0x25588, symSize: 0x70 }
  - { offset: 0x23955, size: 0x8, addend: 0x0, symName: __RNvXs6_NtCs69QEzRJvHMp_5alloc3vecINtB5_3VecNtNtCsehVGFPP7CiK_11clap_derive4item11DeprecationENtNtNtCsliVzVx4luf9_4core3ops5deref5Deref5derefBJ_, symObjAddr: 0x7858, symBinAddr: 0x255F8, symSize: 0x70 }
  - { offset: 0x23A78, size: 0x8, addend: 0x0, symName: __RNvXs6_NtCs69QEzRJvHMp_5alloc3vecINtB5_3VecNtNtCsehVGFPP7CiK_11clap_derive4item6MethodENtNtNtCsliVzVx4luf9_4core3ops5deref5Deref5derefBJ_, symObjAddr: 0x78C8, symBinAddr: 0x25668, symSize: 0x70 }
  - { offset: 0x23B9B, size: 0x8, addend: 0x0, symName: __RNvXs6_NtCs69QEzRJvHMp_5alloc3vecINtB5_3VecRNtCs3vPhoADqSdK_11proc_macro25IdentENtNtNtCsliVzVx4luf9_4core3ops5deref5Deref5derefCsehVGFPP7CiK_11clap_derive, symObjAddr: 0x7938, symBinAddr: 0x256D8, symSize: 0x6C }
  - { offset: 0x23CBE, size: 0x8, addend: 0x0, symName: __RNvXs6_NtCs69QEzRJvHMp_5alloc3vecINtB5_3VecRNtNtCsehVGFPP7CiK_11clap_derive4item4NameENtNtNtCsliVzVx4luf9_4core3ops5deref5Deref5derefBK_, symObjAddr: 0x79A4, symBinAddr: 0x25744, symSize: 0x6C }
  - { offset: 0x23DE1, size: 0x8, addend: 0x0, symName: __RNvXs6_NtCs69QEzRJvHMp_5alloc3vecINtB5_3VecTNtCs3vPhoADqSdK_11proc_macro211TokenStreamNtBI_5IdentEENtNtNtCsliVzVx4luf9_4core3ops5deref5Deref5derefCsehVGFPP7CiK_11clap_derive, symObjAddr: 0x7A10, symBinAddr: 0x257B0, symSize: 0x70 }
  - { offset: 0x23F04, size: 0x8, addend: 0x0, symName: __RNvXs6_NtCs69QEzRJvHMp_5alloc3vecINtB5_3VecTRNtNtCsaxBLFzn74Hr_3syn4data5FieldNtNtCsehVGFPP7CiK_11clap_derive4item4ItemEENtNtNtCsliVzVx4luf9_4core3ops5deref5Deref5derefB1i_, symObjAddr: 0x7A80, symBinAddr: 0x25820, symSize: 0x70 }
  - { offset: 0x24027, size: 0x8, addend: 0x0, symName: __RNvXs6_NtCs69QEzRJvHMp_5alloc3vecINtB5_3VecTRNtNtCsaxBLFzn74Hr_3syn4data7VariantNtNtCsehVGFPP7CiK_11clap_derive4item4ItemEENtNtNtCsliVzVx4luf9_4core3ops5deref5Deref5derefB1k_, symObjAddr: 0x7AF0, symBinAddr: 0x25890, symSize: 0x70 }
  - { offset: 0x2414A, size: 0x8, addend: 0x0, symName: __RNvXs6_NtCs69QEzRJvHMp_5alloc3vecINtB5_3VecTRRNtNtCsaxBLFzn74Hr_3syn4data7VariantRNtNtCsehVGFPP7CiK_11clap_derive4item4ItemEENtNtNtCsliVzVx4luf9_4core3ops5deref5Deref5derefB1m_, symObjAddr: 0x7B60, symBinAddr: 0x25900, symSize: 0x70 }
  - { offset: 0x2439F, size: 0x8, addend: 0x0, symName: __RNvXs9_NtCs69QEzRJvHMp_5alloc3vecINtB5_3VecNtNtCsaxBLFzn74Hr_3syn4expr4ExprENtNtCsliVzVx4luf9_4core5clone5Clone5cloneCsehVGFPP7CiK_11clap_derive, symObjAddr: 0x7BD0, symBinAddr: 0x25970, symSize: 0x9C }
  - { offset: 0x24606, size: 0x8, addend: 0x0, symName: __RNvXs9_NtCs69QEzRJvHMp_5alloc3vecINtB5_3VecNtNtCsehVGFPP7CiK_11clap_derive4item11DeprecationENtNtCsliVzVx4luf9_4core5clone5Clone5cloneBJ_, symObjAddr: 0x7C6C, symBinAddr: 0x25A0C, symSize: 0x9C }
  - { offset: 0x2486D, size: 0x8, addend: 0x0, symName: __RNvXs9_NtCs69QEzRJvHMp_5alloc3vecINtB5_3VecNtNtCsehVGFPP7CiK_11clap_derive4item6MethodENtNtCsliVzVx4luf9_4core5clone5Clone5cloneBJ_, symObjAddr: 0x7D08, symBinAddr: 0x25AA8, symSize: 0x9C }
  - { offset: 0x24ADA, size: 0x8, addend: 0x0, symName: __RNvXsb_NtCs69QEzRJvHMp_5alloc3vecINtB5_3VecNtNtB7_6string6StringEINtNtNtCsliVzVx4luf9_4core3ops5index5IndexjE5indexCsehVGFPP7CiK_11clap_derive, symObjAddr: 0x8364, symBinAddr: 0x26104, symSize: 0x90 }
  - { offset: 0x24CDC, size: 0x8, addend: 0x0, symName: __RNvXsb_NtCs69QEzRJvHMp_5alloc3vecINtB5_3VecNtNtCsehVGFPP7CiK_11clap_derive4item6MethodEINtNtNtCsliVzVx4luf9_4core3ops5index5IndexjE5indexBJ_, symObjAddr: 0x83F4, symBinAddr: 0x26194, symSize: 0x90 }
  - { offset: 0x24EDE, size: 0x8, addend: 0x0, symName: __RNvXsb_NtCs69QEzRJvHMp_5alloc3vecINtB5_3VecTNtNtCsaxBLFzn74Hr_3syn4data5FieldNtNtBK_5token5CommaEEINtNtNtCsliVzVx4luf9_4core3ops5index5IndexjE5indexCsehVGFPP7CiK_11clap_derive, symObjAddr: 0x8484, symBinAddr: 0x26224, symSize: 0x90 }
  - { offset: 0x250E6, size: 0x8, addend: 0x0, symName: __RNvXse_NtCs69QEzRJvHMp_5alloc3vecINtB5_3VecNtNtB7_6string6StringENtNtNtNtCsliVzVx4luf9_4core4iter6traits7collect12IntoIterator9into_iterCsehVGFPP7CiK_11clap_derive, symObjAddr: 0x8514, symBinAddr: 0x262B4, symSize: 0xE8 }
  - { offset: 0x25320, size: 0x8, addend: 0x0, symName: __RNvXse_NtCs69QEzRJvHMp_5alloc3vecINtB5_3VecNtNtCsaxBLFzn74Hr_3syn4expr4ExprENtNtNtNtCsliVzVx4luf9_4core4iter6traits7collect12IntoIterator9into_iterCsehVGFPP7CiK_11clap_derive, symObjAddr: 0x85FC, symBinAddr: 0x2639C, symSize: 0xE8 }
  - { offset: 0x2555A, size: 0x8, addend: 0x0, symName: __RNvXse_NtCs69QEzRJvHMp_5alloc3vecINtB5_3VecNtNtCsehVGFPP7CiK_11clap_derive4attr8ClapAttrENtNtNtNtCsliVzVx4luf9_4core4iter6traits7collect12IntoIterator9into_iterBJ_, symObjAddr: 0x86E4, symBinAddr: 0x26484, symSize: 0xE8 }
  - { offset: 0x25794, size: 0x8, addend: 0x0, symName: __RNvXse_NtCs69QEzRJvHMp_5alloc3vecINtB5_3VecTNtNtCsaxBLFzn74Hr_3syn4expr4ExprNtNtBK_5token5CommaEENtNtNtNtCsliVzVx4luf9_4core4iter6traits7collect12IntoIterator9into_iterCsehVGFPP7CiK_11clap_derive, symObjAddr: 0x87CC, symBinAddr: 0x2656C, symSize: 0xE8 }
  - { offset: 0x259CE, size: 0x8, addend: 0x0, symName: __RNvXse_NtCs69QEzRJvHMp_5alloc3vecINtB5_3VecTNtNtCsehVGFPP7CiK_11clap_derive4attr8ClapAttrNtNtCsaxBLFzn74Hr_3syn5token5CommaEENtNtNtNtCsliVzVx4luf9_4core4iter6traits7collect12IntoIterator9into_iterBK_, symObjAddr: 0x88B4, symBinAddr: 0x26654, symSize: 0xE8 }
  - { offset: 0x25C0E, size: 0x8, addend: 0x0, symName: __RNvXsn_NtCs69QEzRJvHMp_5alloc3vecINtB5_3VecINtNtCsliVzVx4luf9_4core6option6OptionNtCs3vPhoADqSdK_11proc_macro211TokenStreamEENtNtNtBK_3ops4drop4Drop4dropCsehVGFPP7CiK_11clap_derive, symObjAddr: 0x8C64, symBinAddr: 0x26A04, symSize: 0x44 }
  - { offset: 0x25CF9, size: 0x8, addend: 0x0, symName: __RNvXsn_NtCs69QEzRJvHMp_5alloc3vecINtB5_3VecNtCs3vPhoADqSdK_11proc_macro211TokenStreamENtNtNtCsliVzVx4luf9_4core3ops4drop4Drop4dropCsehVGFPP7CiK_11clap_derive, symObjAddr: 0x8CA8, symBinAddr: 0x26A48, symSize: 0x44 }
  - { offset: 0x25DE4, size: 0x8, addend: 0x0, symName: __RNvXsn_NtCs69QEzRJvHMp_5alloc3vecINtB5_3VecNtCs3vPhoADqSdK_11proc_macro25IdentENtNtNtCsliVzVx4luf9_4core3ops4drop4Drop4dropCsehVGFPP7CiK_11clap_derive, symObjAddr: 0x8CEC, symBinAddr: 0x26A8C, symSize: 0x44 }
  - { offset: 0x25ECF, size: 0x8, addend: 0x0, symName: __RNvXsn_NtCs69QEzRJvHMp_5alloc3vecINtB5_3VecNtNtB7_6string6StringENtNtNtCsliVzVx4luf9_4core3ops4drop4Drop4dropCsehVGFPP7CiK_11clap_derive, symObjAddr: 0x8D30, symBinAddr: 0x26AD0, symSize: 0x44 }
  - { offset: 0x25FBA, size: 0x8, addend: 0x0, symName: __RNvXsn_NtCs69QEzRJvHMp_5alloc3vecINtB5_3VecNtNtCsaxBLFzn74Hr_3syn4expr4ExprENtNtNtCsliVzVx4luf9_4core3ops4drop4Drop4dropCsehVGFPP7CiK_11clap_derive, symObjAddr: 0x8D74, symBinAddr: 0x26B14, symSize: 0x44 }
  - { offset: 0x260A5, size: 0x8, addend: 0x0, symName: __RNvXsn_NtCs69QEzRJvHMp_5alloc3vecINtB5_3VecNtNtCsehVGFPP7CiK_11clap_derive4attr8ClapAttrENtNtNtCsliVzVx4luf9_4core3ops4drop4Drop4dropBJ_, symObjAddr: 0x8DB8, symBinAddr: 0x26B58, symSize: 0x44 }
  - { offset: 0x26190, size: 0x8, addend: 0x0, symName: __RNvXsn_NtCs69QEzRJvHMp_5alloc3vecINtB5_3VecNtNtCsehVGFPP7CiK_11clap_derive4item11DeprecationENtNtNtCsliVzVx4luf9_4core3ops4drop4Drop4dropBJ_, symObjAddr: 0x8DFC, symBinAddr: 0x26B9C, symSize: 0x44 }
  - { offset: 0x2627B, size: 0x8, addend: 0x0, symName: __RNvXsn_NtCs69QEzRJvHMp_5alloc3vecINtB5_3VecNtNtCsehVGFPP7CiK_11clap_derive4item6MethodENtNtNtCsliVzVx4luf9_4core3ops4drop4Drop4dropBJ_, symObjAddr: 0x8E40, symBinAddr: 0x26BE0, symSize: 0x44 }
  - { offset: 0x26366, size: 0x8, addend: 0x0, symName: __RNvXsn_NtCs69QEzRJvHMp_5alloc3vecINtB5_3VecRNtCs3vPhoADqSdK_11proc_macro25IdentENtNtNtCsliVzVx4luf9_4core3ops4drop4Drop4dropCsehVGFPP7CiK_11clap_derive, symObjAddr: 0x8E84, symBinAddr: 0x26C24, symSize: 0x30 }
  - { offset: 0x26451, size: 0x8, addend: 0x0, symName: __RNvXsn_NtCs69QEzRJvHMp_5alloc3vecINtB5_3VecRNtNtCsehVGFPP7CiK_11clap_derive4item4NameENtNtNtCsliVzVx4luf9_4core3ops4drop4Drop4dropBK_, symObjAddr: 0x8EB4, symBinAddr: 0x26C54, symSize: 0x30 }
  - { offset: 0x2653C, size: 0x8, addend: 0x0, symName: __RNvXsn_NtCs69QEzRJvHMp_5alloc3vecINtB5_3VecTNtCs3vPhoADqSdK_11proc_macro211TokenStreamNtBI_5IdentEENtNtNtCsliVzVx4luf9_4core3ops4drop4Drop4dropCsehVGFPP7CiK_11clap_derive, symObjAddr: 0x8EE4, symBinAddr: 0x26C84, symSize: 0x44 }
  - { offset: 0x26627, size: 0x8, addend: 0x0, symName: __RNvXsn_NtCs69QEzRJvHMp_5alloc3vecINtB5_3VecTNtNtCsehVGFPP7CiK_11clap_derive4attr8ClapAttrNtNtCsaxBLFzn74Hr_3syn5token5CommaEENtNtNtCsliVzVx4luf9_4core3ops4drop4Drop4dropBK_, symObjAddr: 0x8F28, symBinAddr: 0x26CC8, symSize: 0x44 }
  - { offset: 0x26712, size: 0x8, addend: 0x0, symName: __RNvXsn_NtCs69QEzRJvHMp_5alloc3vecINtB5_3VecTRNtNtCsaxBLFzn74Hr_3syn4data5FieldNtNtCsehVGFPP7CiK_11clap_derive4item4ItemEENtNtNtCsliVzVx4luf9_4core3ops4drop4Drop4dropB1i_, symObjAddr: 0x8F6C, symBinAddr: 0x26D0C, symSize: 0x44 }
  - { offset: 0x267FD, size: 0x8, addend: 0x0, symName: __RNvXsn_NtCs69QEzRJvHMp_5alloc3vecINtB5_3VecTRNtNtCsaxBLFzn74Hr_3syn4data7VariantNtNtCsehVGFPP7CiK_11clap_derive4item4ItemEENtNtNtCsliVzVx4luf9_4core3ops4drop4Drop4dropB1k_, symObjAddr: 0x8FB0, symBinAddr: 0x26D50, symSize: 0x44 }
  - { offset: 0x268E8, size: 0x8, addend: 0x0, symName: __RNvXsn_NtCs69QEzRJvHMp_5alloc3vecINtB5_3VecTRRNtNtCsaxBLFzn74Hr_3syn4data7VariantRNtNtCsehVGFPP7CiK_11clap_derive4item4ItemEENtNtNtCsliVzVx4luf9_4core3ops4drop4Drop4dropB1m_, symObjAddr: 0x8FF4, symBinAddr: 0x26D94, symSize: 0x30 }
  - { offset: 0x269D9, size: 0x8, addend: 0x0, symName: __RNvXso_NtCs69QEzRJvHMp_5alloc3vecINtB5_3VecNtCs3vPhoADqSdK_11proc_macro211TokenStreamENtNtCsliVzVx4luf9_4core7default7Default7defaultCsehVGFPP7CiK_11clap_derive, symObjAddr: 0x9024, symBinAddr: 0x26DC4, symSize: 0x14 }
  - { offset: 0x269FB, size: 0x8, addend: 0x0, symName: __RNvXso_NtCs69QEzRJvHMp_5alloc3vecINtB5_3VecNtCs3vPhoADqSdK_11proc_macro211TokenStreamENtNtCsliVzVx4luf9_4core7default7Default7defaultCsehVGFPP7CiK_11clap_derive, symObjAddr: 0x9024, symBinAddr: 0x26DC4, symSize: 0x14 }
  - { offset: 0x26A16, size: 0x8, addend: 0x0, symName: __RNvXso_NtCs69QEzRJvHMp_5alloc3vecINtB5_3VecNtCs3vPhoADqSdK_11proc_macro25IdentENtNtCsliVzVx4luf9_4core7default7Default7defaultCsehVGFPP7CiK_11clap_derive, symObjAddr: 0x9038, symBinAddr: 0x26DD8, symSize: 0x14 }
  - { offset: 0x26A38, size: 0x8, addend: 0x0, symName: __RNvXso_NtCs69QEzRJvHMp_5alloc3vecINtB5_3VecNtCs3vPhoADqSdK_11proc_macro25IdentENtNtCsliVzVx4luf9_4core7default7Default7defaultCsehVGFPP7CiK_11clap_derive, symObjAddr: 0x9038, symBinAddr: 0x26DD8, symSize: 0x14 }
  - { offset: 0x26A53, size: 0x8, addend: 0x0, symName: __RNvXso_NtCs69QEzRJvHMp_5alloc3vecINtB5_3VecTRRNtNtCsaxBLFzn74Hr_3syn4data7VariantRNtNtCsehVGFPP7CiK_11clap_derive4item4ItemEENtNtCsliVzVx4luf9_4core7default7Default7defaultB1m_, symObjAddr: 0x904C, symBinAddr: 0x26DEC, symSize: 0x14 }
  - { offset: 0x26A75, size: 0x8, addend: 0x0, symName: __RNvXso_NtCs69QEzRJvHMp_5alloc3vecINtB5_3VecTRRNtNtCsaxBLFzn74Hr_3syn4data7VariantRNtNtCsehVGFPP7CiK_11clap_derive4item4ItemEENtNtCsliVzVx4luf9_4core7default7Default7defaultB1m_, symObjAddr: 0x904C, symBinAddr: 0x26DEC, symSize: 0x14 }
  - { offset: 0x2D7C9, size: 0x8, addend: 0x0, symName: __RINvMsi_NtCs69QEzRJvHMp_5alloc3vecINtB6_3VecNtCs3vPhoADqSdK_11proc_macro211TokenStreamE16extend_desugaredINtNtNtCsliVzVx4luf9_4core4iter8adapters12GenericShuntINtNtB1I_3map3MapINtNtNtB1M_5slice4iter4IterTRNtNtCsaxBLFzn74Hr_3syn4data5FieldNtNtCsehVGFPP7CiK_11clap_derive4item4ItemEENCNvNtNtB3S_7derives4args15gen_constructor0EINtNtB1M_6result6ResultNtNtB1M_7convert10InfallibleNtNtB3l_5error5ErrorEEEB3S_, symObjAddr: 0x0, symBinAddr: 0x1DDA0, symSize: 0x210 }
  - { offset: 0x2DD98, size: 0x8, addend: 0x0, symName: __RINvMsi_NtCs69QEzRJvHMp_5alloc3vecINtB6_3VecNtCs3vPhoADqSdK_11proc_macro211TokenStreamE16extend_desugaredINtNtNtCsliVzVx4luf9_4core4iter8adapters12GenericShuntINtNtB1I_3map3MapINtNtNtB1M_5slice4iter4IterTRRNtNtCsaxBLFzn74Hr_3syn4data7VariantRNtNtCsehVGFPP7CiK_11clap_derive4item4ItemEENCNvNtNtB3W_7derives10subcommand18gen_has_subcommands1_0EINtNtB1M_6result6ResultNtNtB1M_7convert10InfallibleNtNtB3m_5error5ErrorEEEB3W_, symObjAddr: 0x210, symBinAddr: 0x1DFB0, symSize: 0x210 }
  - { offset: 0x2E315, size: 0x8, addend: 0x0, symName: __RINvMsi_NtCs69QEzRJvHMp_5alloc3vecINtB6_3VecNtCs3vPhoADqSdK_11proc_macro211TokenStreamE16extend_desugaredINtNtNtCsliVzVx4luf9_4core4iter8adapters12GenericShuntINtNtB1I_3map3MapINtNtNtB1M_5slice4iter4IterTRRNtNtCsaxBLFzn74Hr_3syn4data7VariantRNtNtCsehVGFPP7CiK_11clap_derive4item4ItemEENCNvNtNtB3W_7derives10subcommand20gen_from_arg_matches0EINtNtB1M_6result6ResultNtNtB1M_7convert10InfallibleNtNtB3m_5error5ErrorEEEB3W_, symObjAddr: 0x420, symBinAddr: 0x1E1C0, symSize: 0x210 }
  - { offset: 0x2E885, size: 0x8, addend: 0x0, symName: __RINvMsi_NtCs69QEzRJvHMp_5alloc3vecINtB6_3VecNtCs3vPhoADqSdK_11proc_macro211TokenStreamE16extend_desugaredINtNtNtCsliVzVx4luf9_4core4iter8adapters12GenericShuntINtNtB1I_3map3MapINtNtNtB1M_5slice4iter4IterTRRNtNtCsaxBLFzn74Hr_3syn4data7VariantRNtNtCsehVGFPP7CiK_11clap_derive4item4ItemEENCNvNtNtB3W_7derives10subcommand20gen_from_arg_matchess_0EINtNtB1M_6result6ResultNtNtB1M_7convert10InfallibleNtNtB3m_5error5ErrorEEEB3W_, symObjAddr: 0x630, symBinAddr: 0x1E3D0, symSize: 0x210 }
  - { offset: 0x2EDF5, size: 0x8, addend: 0x0, symName: __RINvMsi_NtCs69QEzRJvHMp_5alloc3vecINtB6_3VecNtCs3vPhoADqSdK_11proc_macro211TokenStreamE16extend_desugaredINtNtNtCsliVzVx4luf9_4core4iter8adapters12GenericShuntINtNtB1I_3map3MapINtNtNtB1M_5slice4iter4IterTRRNtNtCsaxBLFzn74Hr_3syn4data7VariantRNtNtCsehVGFPP7CiK_11clap_derive4item4ItemEENCNvNtNtB3W_7derives10subcommand27gen_update_from_arg_matchess0_0EINtNtB1M_6result6ResultNtNtB1M_7convert10InfallibleNtNtB3m_5error5ErrorEEEB3W_, symObjAddr: 0x840, symBinAddr: 0x1E5E0, symSize: 0x210 }
  - { offset: 0x2F365, size: 0x8, addend: 0x0, symName: __RINvMsi_NtCs69QEzRJvHMp_5alloc3vecINtB6_3VecNtCs3vPhoADqSdK_11proc_macro211TokenStreamE16extend_desugaredINtNtNtCsliVzVx4luf9_4core4iter8adapters12GenericShuntINtNtB1I_3map3MapINtNtNtB1M_5slice4iter4IterTRRNtNtCsaxBLFzn74Hr_3syn4data7VariantRNtNtCsehVGFPP7CiK_11clap_derive4item4ItemEENCNvNtNtB3W_7derives10subcommand27gen_update_from_arg_matchess1_0EINtNtB1M_6result6ResultNtNtB1M_7convert10InfallibleNtNtB3m_5error5ErrorEEEB3W_, symObjAddr: 0xA50, symBinAddr: 0x1E7F0, symSize: 0x210 }
  - { offset: 0x2FA06, size: 0x8, addend: 0x0, symName: __RINvMsi_NtCs69QEzRJvHMp_5alloc3vecINtB6_3VecNtNtB8_6string6StringE14extend_trustedINtNtNtNtCsliVzVx4luf9_4core4iter8adapters3map3MapINtNtNtB1r_5slice4iter4IterBG_ENCINvNtNtCsehVGFPP7CiK_11clap_derive5utils12doc_comments11merge_linesRBG_RSBG_E0EEB2K_, symObjAddr: 0xC60, symBinAddr: 0x1EA00, symSize: 0x1F8 }
  - { offset: 0x2FEE2, size: 0x8, addend: 0x0, symName: __RINvMsi_NtCs69QEzRJvHMp_5alloc3vecINtB6_3VecNtNtB8_6string6StringE14extend_trustedINtNtNtNtCsliVzVx4luf9_4core4iter8adapters3map3MapINtNtNtB1r_5slice4iter4IterNtNtCsehVGFPP7CiK_11clap_derive4attr8AttrKindENCNvNtB2B_4item16assert_attr_kind0EEB2B_, symObjAddr: 0xE58, symBinAddr: 0x1EBF8, symSize: 0x204 }
  - { offset: 0x3042C, size: 0x8, addend: 0x0, symName: __RINvMsi_NtCs69QEzRJvHMp_5alloc3vecINtB6_3VecNtNtB8_6string6StringE16extend_desugaredINtNtNtNtCsliVzVx4luf9_4core4iter7sources7from_fn6FromFnNCNvNtNtCsehVGFPP7CiK_11clap_derive5utils12doc_comments16split_paragraphs0EEB2m_, symObjAddr: 0x105C, symBinAddr: 0x1EDFC, symSize: 0x218 }
  - { offset: 0x309AA, size: 0x8, addend: 0x0, symName: __RINvMsi_NtCs69QEzRJvHMp_5alloc3vecINtB6_3VecNtNtB8_6string6StringE16extend_desugaredINtNtNtNtCsliVzVx4luf9_4core4iter8adapters3map3MapINtNtNtB1t_3str4iter5SplitcENCNCNvNtNtCsehVGFPP7CiK_11clap_derive5utils12doc_comments19extract_doc_comments1_00EEB2K_, symObjAddr: 0x1274, symBinAddr: 0x1F014, symSize: 0x218 }
  - { offset: 0x30F28, size: 0x8, addend: 0x0, symName: __RINvMsi_NtCs69QEzRJvHMp_5alloc3vecINtB6_3VecNtNtB8_6string6StringE16extend_desugaredINtNtNtNtCsliVzVx4luf9_4core4iter8adapters7flatten7FlatMapINtNtB1p_10skip_while9SkipWhileINtNtB1p_10filter_map9FilterMapINtNtB1p_6filter6FilterINtNtNtB1t_5slice4iter4IterNtNtCsaxBLFzn74Hr_3syn4attr9AttributeENCNvNtNtCsehVGFPP7CiK_11clap_derive5utils12doc_comments19extract_doc_comment0ENCB4I_s_0ENCB4I_s0_0EBw_NCB4I_s1_0EEB4O_, symObjAddr: 0x148C, symBinAddr: 0x1F22C, symSize: 0x22C }
  - { offset: 0x3146E, size: 0x8, addend: 0x0, symName: __RINvMsi_NtCs69QEzRJvHMp_5alloc3vecINtB6_3VecNtNtCsaxBLFzn74Hr_3syn4expr4ExprE14extend_trustedINtNtCsliVzVx4luf9_4core6option8IntoIterBG_EECsehVGFPP7CiK_11clap_derive, symObjAddr: 0x16B8, symBinAddr: 0x1F458, symSize: 0x22C }
  - { offset: 0x31927, size: 0x8, addend: 0x0, symName: __RINvMsi_NtCs69QEzRJvHMp_5alloc3vecINtB6_3VecNtNtCsaxBLFzn74Hr_3syn4expr4ExprE14extend_trustedINtNtNtNtCsliVzVx4luf9_4core4iter8adapters3map3MapINtNtB6_9into_iter8IntoIterTBG_NtNtBK_5token5CommaEENCNvXs4_NtBK_10punctuatedINtB3f_10PunctuatedBG_B2M_ENtNtNtB1A_6traits7collect12IntoIterator9into_iter0EECsehVGFPP7CiK_11clap_derive, symObjAddr: 0x18E4, symBinAddr: 0x1F684, symSize: 0x210 }
  - { offset: 0x31E4A, size: 0x8, addend: 0x0, symName: __RINvMsi_NtCs69QEzRJvHMp_5alloc3vecINtB6_3VecNtNtCsaxBLFzn74Hr_3syn4expr4ExprE16extend_desugaredINtNtBK_10punctuated8IntoIterBG_EECsehVGFPP7CiK_11clap_derive, symObjAddr: 0x1AF4, symBinAddr: 0x1F894, symSize: 0x240 }
  - { offset: 0x3239D, size: 0x8, addend: 0x0, symName: __RINvMsi_NtCs69QEzRJvHMp_5alloc3vecINtB6_3VecNtNtCsehVGFPP7CiK_11clap_derive4attr8ClapAttrE14extend_trustedINtNtCsliVzVx4luf9_4core6option8IntoIterBG_EEBK_, symObjAddr: 0x1D34, symBinAddr: 0x1FAD4, symSize: 0x22C }
  - { offset: 0x32881, size: 0x8, addend: 0x0, symName: __RINvMsi_NtCs69QEzRJvHMp_5alloc3vecINtB6_3VecNtNtCsehVGFPP7CiK_11clap_derive4attr8ClapAttrE14extend_trustedINtNtNtNtCsliVzVx4luf9_4core4iter8adapters3map3MapINtNtB6_9into_iter8IntoIterTBG_NtNtCsaxBLFzn74Hr_3syn5token5CommaEENCNvXs4_NtB33_10punctuatedINtB3H_10PunctuatedBG_B2Z_ENtNtNtB1N_6traits7collect12IntoIterator9into_iter0EEBK_, symObjAddr: 0x1F60, symBinAddr: 0x1FD00, symSize: 0x210 }
  - { offset: 0x32DB1, size: 0x8, addend: 0x0, symName: __RINvMsi_NtCs69QEzRJvHMp_5alloc3vecINtB6_3VecRNtCs3vPhoADqSdK_11proc_macro25IdentE14extend_trustedINtNtNtNtCsliVzVx4luf9_4core4iter8adapters3map3MapINtNtNtB1G_5slice4iter4IterTNtBJ_11TokenStreamBH_EENCNvNtNtCsehVGFPP7CiK_11clap_derive7derives10value_enum18gen_value_variants0EEB3i_, symObjAddr: 0x2170, symBinAddr: 0x1FF10, symSize: 0x1F8 }
  - { offset: 0x3331A, size: 0x8, addend: 0x0, symName: __RINvMsi_NtCs69QEzRJvHMp_5alloc3vecINtB6_3VecRNtCs3vPhoADqSdK_11proc_macro25IdentE16extend_desugaredINtNtNtNtCsliVzVx4luf9_4core4iter8adapters3map3MapINtNtCsaxBLFzn74Hr_3syn10punctuated4IterNtNtB2s_4data5FieldENCNCNvNtNtCsehVGFPP7CiK_11clap_derive7derives10subcommand27gen_update_from_arg_matchess0_00EEB3v_, symObjAddr: 0x2368, symBinAddr: 0x20108, symSize: 0x1E0 }
  - { offset: 0x338E6, size: 0x8, addend: 0x0, symName: __RINvMsi_NtCs69QEzRJvHMp_5alloc3vecINtB6_3VecRNtNtCsehVGFPP7CiK_11clap_derive4item4NameE16extend_desugaredINtNtNtNtCsliVzVx4luf9_4core4iter8adapters10filter_map9FilterMapINtNtNtB1O_5slice4iter4IterTRNtNtCsaxBLFzn74Hr_3syn4data5FieldNtBJ_4ItemEENCNvNtNtBL_7derives4args11gen_augment0EEBL_, symObjAddr: 0x2548, symBinAddr: 0x202E8, symSize: 0x1C8 }
  - { offset: 0x33E98, size: 0x8, addend: 0x0, symName: __RINvMsi_NtCs69QEzRJvHMp_5alloc3vecINtB6_3VecTRNtNtCsaxBLFzn74Hr_3syn4data5FieldNtNtCsehVGFPP7CiK_11clap_derive4item4ItemEE16extend_desugaredINtNtNtCsliVzVx4luf9_4core4iter8adapters12GenericShuntINtNtB2h_3map3MapINtNtBM_10punctuated4IterBI_ENCNvNtNtB1j_7derives4args11derive_args0EINtNtB2l_6result6ResultNtNtB2l_7convert10InfallibleNtNtBM_5error5ErrorEEEB1j_, symObjAddr: 0x2710, symBinAddr: 0x204B0, symSize: 0x244 }
  - { offset: 0x34409, size: 0x8, addend: 0x0, symName: __RINvMsi_NtCs69QEzRJvHMp_5alloc3vecINtB6_3VecTRNtNtCsaxBLFzn74Hr_3syn4data5FieldNtNtCsehVGFPP7CiK_11clap_derive4item4ItemEE16extend_desugaredINtNtNtCsliVzVx4luf9_4core4iter8adapters12GenericShuntINtNtB2h_3map3MapINtNtBM_10punctuated4IterBI_ENCNvNtNtB1j_7derives4args19collect_args_fields0EINtNtB2l_6result6ResultNtNtB2l_7convert10InfallibleNtNtBM_5error5ErrorEEEB1j_, symObjAddr: 0x2954, symBinAddr: 0x206F4, symSize: 0x244 }
  - { offset: 0x3497A, size: 0x8, addend: 0x0, symName: __RINvMsi_NtCs69QEzRJvHMp_5alloc3vecINtB6_3VecTRNtNtCsaxBLFzn74Hr_3syn4data5FieldNtNtCsehVGFPP7CiK_11clap_derive4item4ItemEE16extend_desugaredINtNtNtCsliVzVx4luf9_4core4iter8adapters12GenericShuntINtNtB2h_3map3MapINtNtBM_10punctuated4IterBI_ENCNvNtNtB1j_7derives6parser13derive_parser0EINtNtB2l_6result6ResultNtNtB2l_7convert10InfallibleNtNtBM_5error5ErrorEEEB1j_, symObjAddr: 0x2B98, symBinAddr: 0x20938, symSize: 0x244 }
  - { offset: 0x34F86, size: 0x8, addend: 0x0, symName: __RINvMsi_NtCs69QEzRJvHMp_5alloc3vecINtB6_3VecTRNtNtCsaxBLFzn74Hr_3syn4data7VariantNtNtCsehVGFPP7CiK_11clap_derive4item4ItemEE16extend_desugaredINtNtNtCsliVzVx4luf9_4core4iter8adapters12GenericShuntINtNtB2j_3map3MapINtNtBM_10punctuated4IterBI_ENCNvNtNtB1l_7derives10subcommand17derive_subcommand0EINtNtB2n_6result6ResultNtNtB2n_7convert10InfallibleNtNtBM_5error5ErrorEEEB1l_, symObjAddr: 0x2DDC, symBinAddr: 0x20B7C, symSize: 0x244 }
  - { offset: 0x354F7, size: 0x8, addend: 0x0, symName: __RINvMsi_NtCs69QEzRJvHMp_5alloc3vecINtB6_3VecTRNtNtCsaxBLFzn74Hr_3syn4data7VariantNtNtCsehVGFPP7CiK_11clap_derive4item4ItemEE16extend_desugaredINtNtNtCsliVzVx4luf9_4core4iter8adapters12GenericShuntINtNtB2j_3map3MapINtNtBM_10punctuated4IterBI_ENCNvNtNtB1l_7derives6parser13derive_parsers_0EINtNtB2n_6result6ResultNtNtB2n_7convert10InfallibleNtNtBM_5error5ErrorEEEB1l_, symObjAddr: 0x3020, symBinAddr: 0x20DC0, symSize: 0x244 }
  - { offset: 0x359EE, size: 0x8, addend: 0x0, symName: __RNvMNtCs69QEzRJvHMp_5alloc3vecINtB2_3VecINtNtCsliVzVx4luf9_4core6option6OptionNtCs3vPhoADqSdK_11proc_macro211TokenStreamEE3newCsehVGFPP7CiK_11clap_derive, symObjAddr: 0x3B10, symBinAddr: 0x218B0, symSize: 0x14 }
  - { offset: 0x35A0B, size: 0x8, addend: 0x0, symName: __RNvMNtCs69QEzRJvHMp_5alloc3vecINtB2_3VecNtCs3vPhoADqSdK_11proc_macro211TokenStreamE3newCsehVGFPP7CiK_11clap_derive, symObjAddr: 0x3B24, symBinAddr: 0x218C4, symSize: 0x14 }
  - { offset: 0x35A5B, size: 0x8, addend: 0x0, symName: __RNvMNtCs69QEzRJvHMp_5alloc3vecINtB2_3VecNtNtCsaxBLFzn74Hr_3syn4expr4ExprE13with_capacityCsehVGFPP7CiK_11clap_derive, symObjAddr: 0x3B38, symBinAddr: 0x218D8, symSize: 0x34 }
  - { offset: 0x35AEE, size: 0x8, addend: 0x0, symName: __RNvMNtCs69QEzRJvHMp_5alloc3vecINtB2_3VecNtNtCsehVGFPP7CiK_11clap_derive4attr8ClapAttrE13with_capacityBG_, symObjAddr: 0x3B6C, symBinAddr: 0x2190C, symSize: 0x34 }
  - { offset: 0x35B4E, size: 0x8, addend: 0x0, symName: __RNvMNtCs69QEzRJvHMp_5alloc3vecINtB2_3VecNtNtCsehVGFPP7CiK_11clap_derive4attr8ClapAttrE3newBG_, symObjAddr: 0x3BA0, symBinAddr: 0x21940, symSize: 0x14 }
  - { offset: 0x35B6B, size: 0x8, addend: 0x0, symName: __RNvMNtCs69QEzRJvHMp_5alloc3vecINtB2_3VecNtNtCsehVGFPP7CiK_11clap_derive4item11DeprecationE3newBG_, symObjAddr: 0x3BB4, symBinAddr: 0x21954, symSize: 0x14 }
  - { offset: 0x35B88, size: 0x8, addend: 0x0, symName: __RNvMNtCs69QEzRJvHMp_5alloc3vecINtB2_3VecNtNtCsehVGFPP7CiK_11clap_derive4item6MethodE3newBG_, symObjAddr: 0x3BC8, symBinAddr: 0x21968, symSize: 0x14 }
  - { offset: 0x35BA5, size: 0x8, addend: 0x0, symName: __RNvMNtCs69QEzRJvHMp_5alloc3vecINtB2_3VecTNtCs3vPhoADqSdK_11proc_macro211TokenStreamNtBF_5IdentEE3newCsehVGFPP7CiK_11clap_derive, symObjAddr: 0x3BDC, symBinAddr: 0x2197C, symSize: 0x14 }
  - { offset: 0x35BC2, size: 0x8, addend: 0x0, symName: __RNvMNtCs69QEzRJvHMp_5alloc3vecINtB2_3VecTNtNtCsehVGFPP7CiK_11clap_derive4attr8ClapAttrNtNtCsaxBLFzn74Hr_3syn5token5CommaEE3newBH_, symObjAddr: 0x3BF0, symBinAddr: 0x21990, symSize: 0x14 }
  - { offset: 0x35BDF, size: 0x8, addend: 0x0, symName: __RNvMNtCs69QEzRJvHMp_5alloc3vecINtB2_3VecTRNtNtCsaxBLFzn74Hr_3syn4data7VariantNtNtCsehVGFPP7CiK_11clap_derive4item4ItemEE3newB1h_, symObjAddr: 0x3C04, symBinAddr: 0x219A4, symSize: 0x14 }
  - { offset: 0x35BFC, size: 0x8, addend: 0x0, symName: __RNvMNtCs69QEzRJvHMp_5alloc3vecINtB2_3VecTRRNtNtCsaxBLFzn74Hr_3syn4data7VariantRNtNtCsehVGFPP7CiK_11clap_derive4item4ItemEE3newB1j_, symObjAddr: 0x3C18, symBinAddr: 0x219B8, symSize: 0x14 }
  - { offset: 0x35CF1, size: 0x8, addend: 0x0, symName: __RNvMs_NtCs69QEzRJvHMp_5alloc3vecINtB4_3VecINtNtCsliVzVx4luf9_4core6option6OptionNtCs3vPhoADqSdK_11proc_macro211TokenStreamEE4pushCsehVGFPP7CiK_11clap_derive, symObjAddr: 0x3C2C, symBinAddr: 0x219CC, symSize: 0xF0 }
  - { offset: 0x35F60, size: 0x8, addend: 0x0, symName: __RNvMs_NtCs69QEzRJvHMp_5alloc3vecINtB4_3VecNtCs3vPhoADqSdK_11proc_macro211TokenStreamE4pushCsehVGFPP7CiK_11clap_derive, symObjAddr: 0x3D1C, symBinAddr: 0x21ABC, symSize: 0xF0 }
  - { offset: 0x36203, size: 0x8, addend: 0x0, symName: __RNvMs_NtCs69QEzRJvHMp_5alloc3vecINtB4_3VecNtCs3vPhoADqSdK_11proc_macro25IdentE4pushCsehVGFPP7CiK_11clap_derive, symObjAddr: 0x3E0C, symBinAddr: 0x21BAC, symSize: 0xF8 }
  - { offset: 0x364C0, size: 0x8, addend: 0x0, symName: __RNvMs_NtCs69QEzRJvHMp_5alloc3vecINtB4_3VecNtNtB6_6string6StringE3popCsehVGFPP7CiK_11clap_derive, symObjAddr: 0x3F04, symBinAddr: 0x21CA4, symSize: 0xF8 }
  - { offset: 0x366BB, size: 0x8, addend: 0x0, symName: __RNvMs_NtCs69QEzRJvHMp_5alloc3vecINtB4_3VecNtNtB6_6string6StringE8is_emptyCsehVGFPP7CiK_11clap_derive, symObjAddr: 0x3FFC, symBinAddr: 0x21D9C, symSize: 0x20 }
  - { offset: 0x367CD, size: 0x8, addend: 0x0, symName: __RNvMs_NtCs69QEzRJvHMp_5alloc3vecINtB4_3VecNtNtCsehVGFPP7CiK_11clap_derive4attr8ClapAttrE4pushBI_, symObjAddr: 0x401C, symBinAddr: 0x21DBC, symSize: 0x110 }
  - { offset: 0x36A67, size: 0x8, addend: 0x0, symName: __RNvMs_NtCs69QEzRJvHMp_5alloc3vecINtB4_3VecNtNtCsehVGFPP7CiK_11clap_derive4item11DeprecationE4pushBI_, symObjAddr: 0x412C, symBinAddr: 0x21ECC, symSize: 0x100 }
  - { offset: 0x36CFD, size: 0x8, addend: 0x0, symName: __RNvMs_NtCs69QEzRJvHMp_5alloc3vecINtB4_3VecNtNtCsehVGFPP7CiK_11clap_derive4item6MethodE4pushBI_, symObjAddr: 0x422C, symBinAddr: 0x21FCC, symSize: 0x108 }
  - { offset: 0x36EBC, size: 0x8, addend: 0x0, symName: __RNvMs_NtCs69QEzRJvHMp_5alloc3vecINtB4_3VecRNtNtCsehVGFPP7CiK_11clap_derive4item4NameE3lenBJ_, symObjAddr: 0x4334, symBinAddr: 0x220D4, symSize: 0x18 }
  - { offset: 0x36FC9, size: 0x8, addend: 0x0, symName: __RNvMs_NtCs69QEzRJvHMp_5alloc3vecINtB4_3VecTNtCs3vPhoADqSdK_11proc_macro211TokenStreamNtBH_5IdentEE4pushCsehVGFPP7CiK_11clap_derive, symObjAddr: 0x434C, symBinAddr: 0x220EC, symSize: 0x108 }
  - { offset: 0x37195, size: 0x8, addend: 0x0, symName: __RNvMs_NtCs69QEzRJvHMp_5alloc3vecINtB4_3VecTNtNtCsehVGFPP7CiK_11clap_derive4attr8ClapAttrNtNtCsaxBLFzn74Hr_3syn5token5CommaEE3lenBJ_, symObjAddr: 0x4454, symBinAddr: 0x221F4, symSize: 0x18 }
  - { offset: 0x372A2, size: 0x8, addend: 0x0, symName: __RNvMs_NtCs69QEzRJvHMp_5alloc3vecINtB4_3VecTNtNtCsehVGFPP7CiK_11clap_derive4attr8ClapAttrNtNtCsaxBLFzn74Hr_3syn5token5CommaEE4pushBJ_, symObjAddr: 0x446C, symBinAddr: 0x2220C, symSize: 0x110 }
  - { offset: 0x37514, size: 0x8, addend: 0x0, symName: __RNvMs_NtCs69QEzRJvHMp_5alloc3vecINtB4_3VecTRNtNtCsaxBLFzn74Hr_3syn4data7VariantNtNtCsehVGFPP7CiK_11clap_derive4item4ItemEE4pushB1j_, symObjAddr: 0x457C, symBinAddr: 0x2231C, symSize: 0x110 }
  - { offset: 0x377AD, size: 0x8, addend: 0x0, symName: __RNvMs_NtCs69QEzRJvHMp_5alloc3vecINtB4_3VecTRRNtNtCsaxBLFzn74Hr_3syn4data7VariantRNtNtCsehVGFPP7CiK_11clap_derive4item4ItemEE4pushB1l_, symObjAddr: 0x468C, symBinAddr: 0x2242C, symSize: 0xE8 }
  - { offset: 0x391AB, size: 0x8, addend: 0x0, symName: __RNvXs3_NtNtCs5Bhy1SxosHa_5quote9___private3extINtNtCs69QEzRJvHMp_5alloc3vec3VecINtNtCsliVzVx4luf9_4core6option6OptionNtCs3vPhoADqSdK_11proc_macro211TokenStreamEENtB5_16RepAsIteratorExt15quote_into_iterCsehVGFPP7CiK_11clap_derive, symObjAddr: 0x73F8, symBinAddr: 0x25198, symSize: 0x38 }
  - { offset: 0x391E0, size: 0x8, addend: 0x0, symName: __RNvXs3_NtNtCs5Bhy1SxosHa_5quote9___private3extINtNtCs69QEzRJvHMp_5alloc3vec3VecNtCs3vPhoADqSdK_11proc_macro211TokenStreamENtB5_16RepAsIteratorExt15quote_into_iterCsehVGFPP7CiK_11clap_derive, symObjAddr: 0x7430, symBinAddr: 0x251D0, symSize: 0x38 }
  - { offset: 0x39215, size: 0x8, addend: 0x0, symName: __RNvXs3_NtNtCs5Bhy1SxosHa_5quote9___private3extINtNtCs69QEzRJvHMp_5alloc3vec3VecNtCs3vPhoADqSdK_11proc_macro25IdentENtB5_16RepAsIteratorExt15quote_into_iterCsehVGFPP7CiK_11clap_derive, symObjAddr: 0x7468, symBinAddr: 0x25208, symSize: 0x38 }
  - { offset: 0x3924A, size: 0x8, addend: 0x0, symName: __RNvXs3_NtNtCs5Bhy1SxosHa_5quote9___private3extINtNtCs69QEzRJvHMp_5alloc3vec3VecNtNtCsaxBLFzn74Hr_3syn4expr4ExprENtB5_16RepAsIteratorExt15quote_into_iterCsehVGFPP7CiK_11clap_derive, symObjAddr: 0x74A0, symBinAddr: 0x25240, symSize: 0x38 }
  - { offset: 0x3927F, size: 0x8, addend: 0x0, symName: __RNvXs3_NtNtCs5Bhy1SxosHa_5quote9___private3extINtNtCs69QEzRJvHMp_5alloc3vec3VecNtNtCsehVGFPP7CiK_11clap_derive4item11DeprecationENtB5_16RepAsIteratorExt15quote_into_iterB1j_, symObjAddr: 0x74D8, symBinAddr: 0x25278, symSize: 0x38 }
  - { offset: 0x392B4, size: 0x8, addend: 0x0, symName: __RNvXs3_NtNtCs5Bhy1SxosHa_5quote9___private3extINtNtCs69QEzRJvHMp_5alloc3vec3VecNtNtCsehVGFPP7CiK_11clap_derive4item6MethodENtB5_16RepAsIteratorExt15quote_into_iterB1j_, symObjAddr: 0x7510, symBinAddr: 0x252B0, symSize: 0x38 }
  - { offset: 0x392E9, size: 0x8, addend: 0x0, symName: __RNvXs3_NtNtCs5Bhy1SxosHa_5quote9___private3extINtNtCs69QEzRJvHMp_5alloc3vec3VecRNtCs3vPhoADqSdK_11proc_macro25IdentENtB5_16RepAsIteratorExt15quote_into_iterCsehVGFPP7CiK_11clap_derive, symObjAddr: 0x7548, symBinAddr: 0x252E8, symSize: 0x38 }
  - { offset: 0x3931E, size: 0x8, addend: 0x0, symName: __RNvXs3_NtNtCs5Bhy1SxosHa_5quote9___private3extINtNtCs69QEzRJvHMp_5alloc3vec3VecRNtNtCsehVGFPP7CiK_11clap_derive4item4NameENtB5_16RepAsIteratorExt15quote_into_iterB1k_, symObjAddr: 0x7580, symBinAddr: 0x25320, symSize: 0x38 }
  - { offset: 0x3B618, size: 0x8, addend: 0x0, symName: __RNvXs1_NtNtNtCsliVzVx4luf9_4core3ops8function5implsQNCNvNtNtCsehVGFPP7CiK_11clap_derive7derives4args11gen_augment0INtB7_5FnMutTRTRNtNtCsaxBLFzn74Hr_3syn4data5FieldNtNtBW_4item4ItemEEE8call_mutBW_, symObjAddr: 0x0, symBinAddr: 0x26E00, symSize: 0x30 }
  - { offset: 0x3B790, size: 0x8, addend: 0x0, symName: __RNvXs1_NtNtNtCsliVzVx4luf9_4core3ops8function5implsQNCNvNtNtCsehVGFPP7CiK_11clap_derive7derives4args11gen_augment0INtB7_5FnMutTRTRNtNtCsaxBLFzn74Hr_3syn4data5FieldNtNtBW_4item4ItemEEE8call_mutBW_, symObjAddr: 0x0, symBinAddr: 0x26E00, symSize: 0x30 }
  - { offset: 0x3F753, size: 0x8, addend: 0x0, symName: __RNvNtNtCsehVGFPP7CiK_11clap_derive7derives4args11derive_args, symObjAddr: 0x30, symBinAddr: 0x26E30, symSize: 0x650 }
  - { offset: 0x3F991, size: 0x8, addend: 0x0, symName: __RNCNvNtNtCsehVGFPP7CiK_11clap_derive7derives4args11derive_args0B7_, symObjAddr: 0x680, symBinAddr: 0x27480, symSize: 0x144 }
  - { offset: 0x3FA0B, size: 0x8, addend: 0x0, symName: __RNvNtNtCsehVGFPP7CiK_11clap_derive7derives4args14gen_for_struct, symObjAddr: 0x7C4, symBinAddr: 0x275C4, symSize: 0x2F0C }
  - { offset: 0x3FFEC, size: 0x8, addend: 0x0, symName: __RNvNtNtCsehVGFPP7CiK_11clap_derive7derives4args11gen_augment, symObjAddr: 0x36D0, symBinAddr: 0x2A4D0, symSize: 0x458C }
  - { offset: 0x40DF6, size: 0x8, addend: 0x0, symName: __RNCNvNtNtCsehVGFPP7CiK_11clap_derive7derives4args11gen_augment0B7_, symObjAddr: 0x7C5C, symBinAddr: 0x2EA5C, symSize: 0x140 }
  - { offset: 0x40E67, size: 0x8, addend: 0x0, symName: __RNCNvNtNtCsehVGFPP7CiK_11clap_derive7derives4args11gen_augments_0B7_, symObjAddr: 0x7D9C, symBinAddr: 0x2EB9C, symSize: 0x104 }
  - { offset: 0x40EE7, size: 0x8, addend: 0x0, symName: __RNvNtNtCsehVGFPP7CiK_11clap_derive7derives4args15gen_constructor, symObjAddr: 0x7EA0, symBinAddr: 0x2ECA0, symSize: 0x2F4 }
  - { offset: 0x4103C, size: 0x8, addend: 0x0, symName: __RNCNvNtNtCsehVGFPP7CiK_11clap_derive7derives4args15gen_constructor0B7_, symObjAddr: 0x8194, symBinAddr: 0x2EF94, symSize: 0x2148 }
  - { offset: 0x418D0, size: 0x8, addend: 0x0, symName: __RNvNtNtCsehVGFPP7CiK_11clap_derive7derives4args11gen_updater, symObjAddr: 0xA2DC, symBinAddr: 0x310DC, symSize: 0x2048 }
  - { offset: 0x42092, size: 0x8, addend: 0x0, symName: __RNvNtNtCsehVGFPP7CiK_11clap_derive7derives4args11gen_parsers, symObjAddr: 0xC324, symBinAddr: 0x33124, symSize: 0x2D14 }
  - { offset: 0x42A72, size: 0x8, addend: 0x0, symName: __RNvNtNtCsehVGFPP7CiK_11clap_derive7derives4args14raw_deprecated, symObjAddr: 0xF038, symBinAddr: 0x35E38, symSize: 0x174 }
  - { offset: 0x42AD4, size: 0x8, addend: 0x0, symName: __RNvNtNtCsehVGFPP7CiK_11clap_derive7derives4args19collect_args_fields, symObjAddr: 0xF1AC, symBinAddr: 0x35FAC, symSize: 0x64 }
  - { offset: 0x42B16, size: 0x8, addend: 0x0, symName: __RNCNvNtNtCsehVGFPP7CiK_11clap_derive7derives4args19collect_args_fields0B7_, symObjAddr: 0xF210, symBinAddr: 0x36010, symSize: 0x144 }
  - { offset: 0x49322, size: 0x8, addend: 0x0, symName: __RNvXs2_NtNtNtCsliVzVx4luf9_4core3ops8function5implsQNCNCNvNtNtCsehVGFPP7CiK_11clap_derive7derives10subcommand27gen_update_from_arg_matchess0_00INtB7_6FnOnceTRNtNtCsaxBLFzn74Hr_3syn4data5FieldEE9call_onceBY_, symObjAddr: 0x0, symBinAddr: 0x36154, symSize: 0x2C }
  - { offset: 0x494DB, size: 0x8, addend: 0x0, symName: __RNvXs2_NtNtNtCsliVzVx4luf9_4core3ops8function5implsQNCNCNvNtNtCsehVGFPP7CiK_11clap_derive7derives10subcommand27gen_update_from_arg_matchess0_00INtB7_6FnOnceTRNtNtCsaxBLFzn74Hr_3syn4data5FieldEE9call_onceBY_, symObjAddr: 0x0, symBinAddr: 0x36154, symSize: 0x2C }
  - { offset: 0x4952A, size: 0x8, addend: 0x0, symName: __RNvXs2_NtNtNtCsliVzVx4luf9_4core3ops8function5implsQNCNvNtNtCsehVGFPP7CiK_11clap_derive7derives10subcommand18gen_has_subcommands0_0INtB7_6FnOnceTRTRRNtNtCsaxBLFzn74Hr_3syn4data7VariantRNtNtBW_4item4ItemEEE9call_onceBW_, symObjAddr: 0x2C, symBinAddr: 0x36180, symSize: 0x2C }
  - { offset: 0x4D5FC, size: 0x8, addend: 0x0, symName: __RNvNtNtCsehVGFPP7CiK_11clap_derive7derives10subcommand17derive_subcommand, symObjAddr: 0x58, symBinAddr: 0x361AC, symSize: 0x344 }
  - { offset: 0x4D76A, size: 0x8, addend: 0x0, symName: __RNCNvNtNtCsehVGFPP7CiK_11clap_derive7derives10subcommand17derive_subcommand0B7_, symObjAddr: 0x39C, symBinAddr: 0x364F0, symSize: 0x144 }
  - { offset: 0x4D7E4, size: 0x8, addend: 0x0, symName: __RNvNtNtCsehVGFPP7CiK_11clap_derive7derives10subcommand12gen_for_enum, symObjAddr: 0x4E0, symBinAddr: 0x36634, symSize: 0x2470 }
  - { offset: 0x4DCE9, size: 0x8, addend: 0x0, symName: __RNvNtNtCsehVGFPP7CiK_11clap_derive7derives10subcommand11gen_augment, symObjAddr: 0x2950, symBinAddr: 0x38AA4, symSize: 0x3664 }
  - { offset: 0x4E8D6, size: 0x8, addend: 0x0, symName: __RNCNvNtNtCsehVGFPP7CiK_11clap_derive7derives10subcommand11gen_augment0B7_, symObjAddr: 0x5FB4, symBinAddr: 0x3C108, symSize: 0xE4 }
  - { offset: 0x4E938, size: 0x8, addend: 0x0, symName: __RNvNtNtCsehVGFPP7CiK_11clap_derive7derives10subcommand18gen_has_subcommand, symObjAddr: 0x6098, symBinAddr: 0x3C1EC, symSize: 0x5B4 }
  - { offset: 0x4EB92, size: 0x8, addend: 0x0, symName: __RNCNvNtNtCsehVGFPP7CiK_11clap_derive7derives10subcommand18gen_has_subcommand0B7_, symObjAddr: 0x664C, symBinAddr: 0x3C7A0, symSize: 0x170 }
  - { offset: 0x4EC0A, size: 0x8, addend: 0x0, symName: __RNCNvNtNtCsehVGFPP7CiK_11clap_derive7derives10subcommand18gen_has_subcommands_0B7_, symObjAddr: 0x67BC, symBinAddr: 0x3C910, symSize: 0xF8 }
  - { offset: 0x4EC6B, size: 0x8, addend: 0x0, symName: __RNCNvNtNtCsehVGFPP7CiK_11clap_derive7derives10subcommand18gen_has_subcommands0_0B7_, symObjAddr: 0x68B4, symBinAddr: 0x3CA08, symSize: 0x1A0 }
  - { offset: 0x4ED09, size: 0x8, addend: 0x0, symName: __RNCNvNtNtCsehVGFPP7CiK_11clap_derive7derives10subcommand18gen_has_subcommands1_0B7_, symObjAddr: 0x6A54, symBinAddr: 0x3CBA8, symSize: 0x398 }
  - { offset: 0x4EE38, size: 0x8, addend: 0x0, symName: __RNvNtNtCsehVGFPP7CiK_11clap_derive7derives10subcommand20gen_from_arg_matches, symObjAddr: 0x6DEC, symBinAddr: 0x3CF40, symSize: 0x2A80 }
  - { offset: 0x4F5D6, size: 0x8, addend: 0x0, symName: __RNCNvNtNtCsehVGFPP7CiK_11clap_derive7derives10subcommand20gen_from_arg_matches0B7_, symObjAddr: 0x986C, symBinAddr: 0x3F9C0, symSize: 0x97C }
  - { offset: 0x4F8F3, size: 0x8, addend: 0x0, symName: __RNCNvNtNtCsehVGFPP7CiK_11clap_derive7derives10subcommand20gen_from_arg_matchess_0B7_, symObjAddr: 0xA1E8, symBinAddr: 0x4033C, symSize: 0x820 }
  - { offset: 0x4FA86, size: 0x8, addend: 0x0, symName: __RNvNtNtCsehVGFPP7CiK_11clap_derive7derives10subcommand27gen_update_from_arg_matches, symObjAddr: 0xAA08, symBinAddr: 0x40B5C, symSize: 0xE38 }
  - { offset: 0x4FD90, size: 0x8, addend: 0x0, symName: __RNCNvNtNtCsehVGFPP7CiK_11clap_derive7derives10subcommand27gen_update_from_arg_matches0B7_, symObjAddr: 0xB840, symBinAddr: 0x41994, symSize: 0x130 }
  - { offset: 0x4FE01, size: 0x8, addend: 0x0, symName: __RNCNvNtNtCsehVGFPP7CiK_11clap_derive7derives10subcommand27gen_update_from_arg_matchess_0B7_, symObjAddr: 0xB970, symBinAddr: 0x41AC4, symSize: 0xF8 }
  - { offset: 0x4FE62, size: 0x8, addend: 0x0, symName: __RNCNvNtNtCsehVGFPP7CiK_11clap_derive7derives10subcommand27gen_update_from_arg_matchess0_0B7_, symObjAddr: 0xBA68, symBinAddr: 0x41BBC, symSize: 0xEA8 }
  - { offset: 0x50273, size: 0x8, addend: 0x0, symName: __RNCNCNvNtNtCsehVGFPP7CiK_11clap_derive7derives10subcommand27gen_update_from_arg_matchess0_00B9_, symObjAddr: 0xC910, symBinAddr: 0x42A64, symSize: 0x5C }
  - { offset: 0x502D2, size: 0x8, addend: 0x0, symName: __RNCNvNtNtCsehVGFPP7CiK_11clap_derive7derives10subcommand27gen_update_from_arg_matchess1_0B7_, symObjAddr: 0xC96C, symBinAddr: 0x42AC0, symSize: 0x780 }
  - { offset: 0x56E7E, size: 0x8, addend: 0x0, symName: __RINvXs2U_NtNtCsliVzVx4luf9_4core5slice4iterINtB7_4IterNtNtCs69QEzRJvHMp_5alloc6string6StringENtNtNtNtBb_4iter6traits8iterator8Iterator4folduNCINvNtNtB1z_8adapters3map8map_foldRBQ_BQ_uNCINvNtNtCsehVGFPP7CiK_11clap_derive5utils12doc_comments11merge_linesB2N_RSBQ_E0NCINvNvB1t_8for_each4callBQ_NCINvMsi_NtBU_3vecINtB4O_3VecBQ_E14extend_trustedINtB2j_3MapBF_B2V_EE0E0E0EB34_, symObjAddr: 0x0, symBinAddr: 0x43240, symSize: 0x200 }
  - { offset: 0x5B07A, size: 0x8, addend: 0x0, symName: __RINvXs2U_NtNtCsliVzVx4luf9_4core5slice4iterINtB7_4IterNtNtCs69QEzRJvHMp_5alloc6string6StringENtNtNtNtBb_4iter6traits8iterator8Iterator4folduNCINvNtNtB1z_8adapters3map8map_foldRBQ_BQ_uNCINvNtNtCsehVGFPP7CiK_11clap_derive5utils12doc_comments11merge_linesB2N_RSBQ_E0NCINvNvB1t_8for_each4callBQ_NCINvMsi_NtBU_3vecINtB4O_3VecBQ_E14extend_trustedINtB2j_3MapBF_B2V_EE0E0E0EB34_, symObjAddr: 0x0, symBinAddr: 0x43240, symSize: 0x200 }
  - { offset: 0x5B2A7, size: 0x8, addend: 0x0, symName: __RINvXs2U_NtNtCsliVzVx4luf9_4core5slice4iterINtB7_4IterNtNtCs69QEzRJvHMp_5alloc6string6StringENtNtNtNtBb_4iter6traits8iterator8Iterator8positionNCNCNvNtNtCsehVGFPP7CiK_11clap_derive5utils12doc_comments16split_paragraphs00EB2r_, symObjAddr: 0x200, symBinAddr: 0x43440, symSize: 0x1C4 }
  - { offset: 0x5B409, size: 0x8, addend: 0x0, symName: __RINvXs2U_NtNtCsliVzVx4luf9_4core5slice4iterINtB7_4IterNtNtCs69QEzRJvHMp_5alloc6string6StringENtNtNtNtBb_4iter6traits8iterator8Iterator8positionNCNCNvNtNtCsehVGFPP7CiK_11clap_derive5utils12doc_comments16split_paragraphs0s_0EB2r_, symObjAddr: 0x3C4, symBinAddr: 0x43604, symSize: 0x1C4 }
  - { offset: 0x5B56B, size: 0x8, addend: 0x0, symName: __RINvXs2U_NtNtCsliVzVx4luf9_4core5slice4iterINtB7_4IterNtNtCs69QEzRJvHMp_5alloc6string6StringENtNtNtNtBb_4iter6traits8iterator8Iterator8positionNCNvNtNtCsehVGFPP7CiK_11clap_derive5utils12doc_comments18format_doc_comment0EB2p_, symObjAddr: 0x588, symBinAddr: 0x437C8, symSize: 0x1C4 }
  - { offset: 0x5B6CD, size: 0x8, addend: 0x0, symName: __RINvXs2U_NtNtCsliVzVx4luf9_4core5slice4iterINtB7_4IterNtNtCsehVGFPP7CiK_11clap_derive4attr8AttrKindENtNtNtNtBb_4iter6traits8iterator8Iterator3anyNCNvXs8_NtB9_3cmpBQ_NtB2r_13SliceContains14slice_contains0EBU_, symObjAddr: 0x74C, symBinAddr: 0x4398C, symSize: 0xB4 }
  - { offset: 0x5B732, size: 0x8, addend: 0x0, symName: __RINvXs2U_NtNtCsliVzVx4luf9_4core5slice4iterINtB7_4IterNtNtCsehVGFPP7CiK_11clap_derive4attr8AttrKindENtNtNtNtBb_4iter6traits8iterator8Iterator4folduNCINvNtNtB1G_8adapters3map8map_foldRBQ_NtNtCs69QEzRJvHMp_5alloc6string6StringuNCNvNtBU_4item16assert_attr_kind0NCINvNvB1A_8for_each4callB2Y_NCINvMsi_NtB32_3vecINtB4K_3VecB2Y_E14extend_trustedINtB2q_3MapBF_B3B_EE0E0E0EBU_, symObjAddr: 0x800, symBinAddr: 0x43A40, symSize: 0x1F8 }
  - { offset: 0x5B95F, size: 0x8, addend: 0x0, symName: __RINvXs2U_NtNtCsliVzVx4luf9_4core5slice4iterINtB7_4IterNtNtCsehVGFPP7CiK_11clap_derive4attr8ClapAttrENtNtNtNtBb_4iter6traits8iterator8Iterator3anyNCNvMNtBU_4itemNtB2o_4Item10push_attrs0EBU_, symObjAddr: 0x9F8, symBinAddr: 0x43C38, symSize: 0xB0 }
  - { offset: 0x5B9C4, size: 0x8, addend: 0x0, symName: __RINvXs2U_NtNtCsliVzVx4luf9_4core5slice4iterINtB7_4IterNtNtCsehVGFPP7CiK_11clap_derive4attr8ClapAttrENtNtNtNtBb_4iter6traits8iterator8Iterator3anyNCNvMNtBU_4itemNtB2o_4Item10push_attrss0_0EBU_, symObjAddr: 0xAA8, symBinAddr: 0x43CE8, symSize: 0xB0 }
  - { offset: 0x5BA29, size: 0x8, addend: 0x0, symName: __RINvXs2U_NtNtCsliVzVx4luf9_4core5slice4iterINtB7_4IterNtNtCsehVGFPP7CiK_11clap_derive4attr8ClapAttrENtNtNtNtBb_4iter6traits8iterator8Iterator3anyNCNvMNtBU_4itemNtB2o_4Item10push_attrss1_0EBU_, symObjAddr: 0xB58, symBinAddr: 0x43D98, symSize: 0xB0 }
  - { offset: 0x5BA8E, size: 0x8, addend: 0x0, symName: __RINvXs2U_NtNtCsliVzVx4luf9_4core5slice4iterINtB7_4IterNtNtCsehVGFPP7CiK_11clap_derive4attr8ClapAttrENtNtNtNtBb_4iter6traits8iterator8Iterator3anyNCNvMNtBU_4itemNtB2o_4Item10push_attrss_0EBU_, symObjAddr: 0xC08, symBinAddr: 0x43E48, symSize: 0xB0 }
  - { offset: 0x5BAF3, size: 0x8, addend: 0x0, symName: __RINvXs2U_NtNtCsliVzVx4luf9_4core5slice4iterINtB7_4IterNtNtCsehVGFPP7CiK_11clap_derive4item6MethodENtNtNtNtBb_4iter6traits8iterator8Iterator3anyNCNvMBS_NtBS_4Item20has_explicit_methods0EBU_, symObjAddr: 0xCB8, symBinAddr: 0x43EF8, symSize: 0xB0 }
  - { offset: 0x5BB58, size: 0x8, addend: 0x0, symName: __RINvXs2U_NtNtCsliVzVx4luf9_4core5slice4iterINtB7_4IterNtNtCsehVGFPP7CiK_11clap_derive4item6MethodENtNtNtNtBb_4iter6traits8iterator8Iterator4findNCNvMBS_NtBS_4Item19find_default_method0EBU_, symObjAddr: 0xD68, symBinAddr: 0x43FA8, symSize: 0xB0 }
  - { offset: 0x5BBBD, size: 0x8, addend: 0x0, symName: __RINvXs2U_NtNtCsliVzVx4luf9_4core5slice4iterINtB7_4IterTNtCs3vPhoADqSdK_11proc_macro211TokenStreamNtBT_5IdentEENtNtNtNtBb_4iter6traits8iterator8Iterator4folduNCINvNtNtB1Q_8adapters3map8map_foldRBQ_BQ_uNvYBQ_NtNtBb_5clone5Clone5cloneNCINvNvNtB1O_7collect20default_extend_tuple6extendBR_B1x_INtNtCs69QEzRJvHMp_5alloc3vec3VecBR_EIB4D_B1x_EE0E0ECsehVGFPP7CiK_11clap_derive, symObjAddr: 0xE18, symBinAddr: 0x44058, symSize: 0x1D8 }
  - { offset: 0x5BDEA, size: 0x8, addend: 0x0, symName: __RINvXs2U_NtNtCsliVzVx4luf9_4core5slice4iterINtB7_4IterTNtCs3vPhoADqSdK_11proc_macro211TokenStreamNtBT_5IdentEENtNtNtNtBb_4iter6traits8iterator8Iterator4folduNCINvNtNtB1Q_8adapters3map8map_foldRBQ_BQ_uNvYBQ_NtNtBb_5clone5Clone5cloneNCINvNvXs3_NtB1O_7collectpINtB3S_15SpecTupleExtendppE6extend6extendBR_B1x_INtNtCs69QEzRJvHMp_5alloc3vec3VecBR_EIB4U_B1x_EE0E0ECsehVGFPP7CiK_11clap_derive, symObjAddr: 0xFF0, symBinAddr: 0x44230, symSize: 0x1D8 }
  - { offset: 0x5C017, size: 0x8, addend: 0x0, symName: __RINvXs2U_NtNtCsliVzVx4luf9_4core5slice4iterINtB7_4IterTNtCs3vPhoADqSdK_11proc_macro211TokenStreamNtBT_5IdentEENtNtNtNtBb_4iter6traits8iterator8Iterator4folduNCINvNtNtB1Q_8adapters3map8map_foldRBQ_RB1x_uNCNvNtNtCsehVGFPP7CiK_11clap_derive7derives10value_enum18gen_value_variants0NCINvNvB1K_8for_each4callB38_NCINvMsi_NtCs69QEzRJvHMp_5alloc3vecINtB54_3VecB38_E14extend_trustedINtB2A_3MapBF_B3e_EE0E0E0EB3m_, symObjAddr: 0x11C8, symBinAddr: 0x44408, symSize: 0x200 }
  - { offset: 0x5C244, size: 0x8, addend: 0x0, symName: __RINvXs2U_NtNtCsliVzVx4luf9_4core5slice4iterINtB7_4IterTRNtNtCsaxBLFzn74Hr_3syn4data5FieldNtNtCsehVGFPP7CiK_11clap_derive4item4ItemEENtNtNtNtBb_4iter6traits8iterator8Iterator4foldjNCINvNtNtB2c_8adapters3map8map_foldRBQ_jjNCINvNvXs1_NtB2Y_6filterINtB3H_6FilterppEB26_5count8to_usizeB3q_NCNvNtNtB1t_7derives4args11gen_augments_0E0NCINvXsK_NtB2a_5accumjNtB5o_3Sum3sumINtB2W_3MapBF_B3w_EE0E0EB1t_, symObjAddr: 0x13C8, symBinAddr: 0x44608, symSize: 0x204 }
  - { offset: 0x5C478, size: 0x8, addend: 0x0, symName: __RINvXs2U_NtNtCsliVzVx4luf9_4core5slice4iterINtB7_4IterTRNtNtCsaxBLFzn74Hr_3syn4data5FieldNtNtCsehVGFPP7CiK_11clap_derive4item4ItemEENtNtNtNtBb_4iter6traits8iterator8Iterator8find_mapRNtB1r_4NameQNCNvNtNtB1t_7derives4args11gen_augment0EB1t_, symObjAddr: 0x15CC, symBinAddr: 0x4480C, symSize: 0xCC }
  - { offset: 0x5C4FC, size: 0x8, addend: 0x0, symName: __RINvXs2U_NtNtCsliVzVx4luf9_4core5slice4iterINtB7_4IterTRNtNtCsaxBLFzn74Hr_3syn4data7VariantNtNtCsehVGFPP7CiK_11clap_derive4item4ItemEENtNtNtNtBb_4iter6traits8iterator8Iterator4folduNCINvNtNtB2e_8adapters10filter_map15filter_map_foldRBQ_TRBR_RB1r_EuNCNvNtNtB1v_7derives10subcommand18gen_has_subcommand0NCINvNvB28_9partition6extendB3M_INtNtCs69QEzRJvHMp_5alloc3vec3VecB3M_ENCB40_s_0E0E0EB1v_, symObjAddr: 0x1698, symBinAddr: 0x448D8, symSize: 0x1D4 }
  - { offset: 0x5C729, size: 0x8, addend: 0x0, symName: __RINvXs2U_NtNtCsliVzVx4luf9_4core5slice4iterINtB7_4IterTRNtNtCsaxBLFzn74Hr_3syn4data7VariantNtNtCsehVGFPP7CiK_11clap_derive4item4ItemEENtNtNtNtBb_4iter6traits8iterator8Iterator4folduNCINvNtNtB2e_8adapters10filter_map15filter_map_foldRBQ_TRBR_RB1r_EuNCNvNtNtB1v_7derives10subcommand27gen_update_from_arg_matches0NCINvNvB28_9partition6extendB3M_INtNtCs69QEzRJvHMp_5alloc3vec3VecB3M_ENCB40_s_0E0E0EB1v_, symObjAddr: 0x186C, symBinAddr: 0x44AAC, symSize: 0x1D8 }
  - { offset: 0x5C956, size: 0x8, addend: 0x0, symName: __RNvXs2U_NtNtCsliVzVx4luf9_4core5slice4iterINtB6_4IterINtNtBa_6option6OptionNtCs3vPhoADqSdK_11proc_macro211TokenStreamEENtNtNtNtBa_4iter6traits8iterator8Iterator4nextCsehVGFPP7CiK_11clap_derive, symObjAddr: 0x2BB0, symBinAddr: 0x45DF0, symSize: 0xCC }
  - { offset: 0x5CB11, size: 0x8, addend: 0x0, symName: __RNvXs2U_NtNtCsliVzVx4luf9_4core5slice4iterINtB6_4IterNtCs3vPhoADqSdK_11proc_macro211TokenStreamENtNtNtNtBa_4iter6traits8iterator8Iterator4nextCsehVGFPP7CiK_11clap_derive, symObjAddr: 0x2C7C, symBinAddr: 0x45EBC, symSize: 0xCC }
  - { offset: 0x5CCCC, size: 0x8, addend: 0x0, symName: __RNvXs2U_NtNtCsliVzVx4luf9_4core5slice4iterINtB6_4IterNtCs3vPhoADqSdK_11proc_macro25IdentENtNtNtNtBa_4iter6traits8iterator8Iterator4nextCsehVGFPP7CiK_11clap_derive, symObjAddr: 0x2D48, symBinAddr: 0x45F88, symSize: 0xCC }
  - { offset: 0x5CE87, size: 0x8, addend: 0x0, symName: __RNvXs2U_NtNtCsliVzVx4luf9_4core5slice4iterINtB6_4IterNtNtCs69QEzRJvHMp_5alloc6string6StringENtNtNtNtBa_4iter6traits8iterator8Iterator4nextCsehVGFPP7CiK_11clap_derive, symObjAddr: 0x2E14, symBinAddr: 0x46054, symSize: 0xCC }
  - { offset: 0x5D042, size: 0x8, addend: 0x0, symName: __RNvXs2U_NtNtCsliVzVx4luf9_4core5slice4iterINtB6_4IterNtNtCs69QEzRJvHMp_5alloc6string6StringENtNtNtNtBa_4iter6traits8iterator8Iterator9size_hintCsehVGFPP7CiK_11clap_derive, symObjAddr: 0x2EE0, symBinAddr: 0x46120, symSize: 0xC0 }
  - { offset: 0x5D143, size: 0x8, addend: 0x0, symName: __RNvXs2U_NtNtCsliVzVx4luf9_4core5slice4iterINtB6_4IterNtNtCsaxBLFzn74Hr_3syn4attr9AttributeENtNtNtNtBa_4iter6traits8iterator8Iterator9size_hintCsehVGFPP7CiK_11clap_derive, symObjAddr: 0x2FA0, symBinAddr: 0x461E0, symSize: 0xC0 }
  - { offset: 0x5D244, size: 0x8, addend: 0x0, symName: __RNvXs2U_NtNtCsliVzVx4luf9_4core5slice4iterINtB6_4IterNtNtCsaxBLFzn74Hr_3syn4expr4ExprENtNtNtNtBa_4iter6traits8iterator8Iterator4nextCsehVGFPP7CiK_11clap_derive, symObjAddr: 0x3060, symBinAddr: 0x462A0, symSize: 0xCC }
  - { offset: 0x5D3FF, size: 0x8, addend: 0x0, symName: __RNvXs2U_NtNtCsliVzVx4luf9_4core5slice4iterINtB6_4IterNtNtCsehVGFPP7CiK_11clap_derive4attr8AttrKindENtNtNtNtBa_4iter6traits8iterator8Iterator4nextBT_, symObjAddr: 0x312C, symBinAddr: 0x4636C, symSize: 0xCC }
  - { offset: 0x5D5BA, size: 0x8, addend: 0x0, symName: __RNvXs2U_NtNtCsliVzVx4luf9_4core5slice4iterINtB6_4IterNtNtCsehVGFPP7CiK_11clap_derive4attr8AttrKindENtNtNtNtBa_4iter6traits8iterator8Iterator9size_hintBT_, symObjAddr: 0x31F8, symBinAddr: 0x46438, symSize: 0xC0 }
  - { offset: 0x5D6BB, size: 0x8, addend: 0x0, symName: __RNvXs2U_NtNtCsliVzVx4luf9_4core5slice4iterINtB6_4IterNtNtCsehVGFPP7CiK_11clap_derive4attr8ClapAttrENtNtNtNtBa_4iter6traits8iterator8Iterator4nextBT_, symObjAddr: 0x32B8, symBinAddr: 0x464F8, symSize: 0xCC }
  - { offset: 0x5D876, size: 0x8, addend: 0x0, symName: __RNvXs2U_NtNtCsliVzVx4luf9_4core5slice4iterINtB6_4IterNtNtCsehVGFPP7CiK_11clap_derive4item11DeprecationENtNtNtNtBa_4iter6traits8iterator8Iterator4nextBT_, symObjAddr: 0x3384, symBinAddr: 0x465C4, symSize: 0xCC }
  - { offset: 0x5DA31, size: 0x8, addend: 0x0, symName: __RNvXs2U_NtNtCsliVzVx4luf9_4core5slice4iterINtB6_4IterNtNtCsehVGFPP7CiK_11clap_derive4item6MethodENtNtNtNtBa_4iter6traits8iterator8Iterator4nextBT_, symObjAddr: 0x3450, symBinAddr: 0x46690, symSize: 0xCC }
  - { offset: 0x5DBEC, size: 0x8, addend: 0x0, symName: __RNvXs2U_NtNtCsliVzVx4luf9_4core5slice4iterINtB6_4IterRNtCs3vPhoADqSdK_11proc_macro25IdentENtNtNtNtBa_4iter6traits8iterator8Iterator4nextCsehVGFPP7CiK_11clap_derive, symObjAddr: 0x351C, symBinAddr: 0x4675C, symSize: 0xCC }
  - { offset: 0x5DDA7, size: 0x8, addend: 0x0, symName: __RNvXs2U_NtNtCsliVzVx4luf9_4core5slice4iterINtB6_4IterRNtNtCsehVGFPP7CiK_11clap_derive4item4NameENtNtNtNtBa_4iter6traits8iterator8Iterator4nextBU_, symObjAddr: 0x35E8, symBinAddr: 0x46828, symSize: 0xCC }
  - { offset: 0x5DF62, size: 0x8, addend: 0x0, symName: __RNvXs2U_NtNtCsliVzVx4luf9_4core5slice4iterINtB6_4IterTNtCs3vPhoADqSdK_11proc_macro211TokenStreamNtBS_5IdentEENtNtNtNtBa_4iter6traits8iterator8Iterator9size_hintCsehVGFPP7CiK_11clap_derive, symObjAddr: 0x36B4, symBinAddr: 0x468F4, symSize: 0xC0 }
  - { offset: 0x5E063, size: 0x8, addend: 0x0, symName: __RNvXs2U_NtNtCsliVzVx4luf9_4core5slice4iterINtB6_4IterTRNtNtCsaxBLFzn74Hr_3syn4data5FieldNtNtCsehVGFPP7CiK_11clap_derive4item4ItemEENtNtNtNtBa_4iter6traits8iterator8Iterator4nextB1s_, symObjAddr: 0x3774, symBinAddr: 0x469B4, symSize: 0xCC }
  - { offset: 0x5E21E, size: 0x8, addend: 0x0, symName: __RNvXs2U_NtNtCsliVzVx4luf9_4core5slice4iterINtB6_4IterTRNtNtCsaxBLFzn74Hr_3syn4data5FieldNtNtCsehVGFPP7CiK_11clap_derive4item4ItemEENtNtNtNtBa_4iter6traits8iterator8Iterator9size_hintB1s_, symObjAddr: 0x3840, symBinAddr: 0x46A80, symSize: 0xC0 }
  - { offset: 0x5E31F, size: 0x8, addend: 0x0, symName: __RNvXs2U_NtNtCsliVzVx4luf9_4core5slice4iterINtB6_4IterTRNtNtCsaxBLFzn74Hr_3syn4data7VariantNtNtCsehVGFPP7CiK_11clap_derive4item4ItemEENtNtNtNtBa_4iter6traits8iterator8Iterator4nextB1u_, symObjAddr: 0x3900, symBinAddr: 0x46B40, symSize: 0xCC }
  - { offset: 0x5E4DA, size: 0x8, addend: 0x0, symName: __RNvXs2U_NtNtCsliVzVx4luf9_4core5slice4iterINtB6_4IterTRRNtNtCsaxBLFzn74Hr_3syn4data7VariantRNtNtCsehVGFPP7CiK_11clap_derive4item4ItemEENtNtNtNtBa_4iter6traits8iterator8Iterator4nextB1w_, symObjAddr: 0x39CC, symBinAddr: 0x46C0C, symSize: 0xCC }
  - { offset: 0x5E695, size: 0x8, addend: 0x0, symName: __RNvXs2U_NtNtCsliVzVx4luf9_4core5slice4iterINtB6_4IterTRRNtNtCsaxBLFzn74Hr_3syn4data7VariantRNtNtCsehVGFPP7CiK_11clap_derive4item4ItemEENtNtNtNtBa_4iter6traits8iterator8Iterator9size_hintB1w_, symObjAddr: 0x3A98, symBinAddr: 0x46CD8, symSize: 0xC0 }
  - { offset: 0x5F12D, size: 0x8, addend: 0x0, symName: __RNvXs2V_NtNtCsliVzVx4luf9_4core5slice4iterINtB6_4IterTNtNtCsaxBLFzn74Hr_3syn4data7VariantNtNtBU_5token5CommaEENtNtNtNtBa_4iter6traits12double_ended19DoubleEndedIterator9next_backCsehVGFPP7CiK_11clap_derive, symObjAddr: 0x3B58, symBinAddr: 0x46D98, symSize: 0x114 }
  - { offset: 0x5F318, size: 0x8, addend: 0x0, symName: __RNvXs2V_NtNtCsliVzVx4luf9_4core5slice4iterINtB6_4IterTNtNtCsaxBLFzn74Hr_3syn4path15GenericArgumentNtNtBU_5token5CommaEENtNtNtNtBa_4iter6traits12double_ended19DoubleEndedIterator9next_backCsehVGFPP7CiK_11clap_derive, symObjAddr: 0x3C6C, symBinAddr: 0x46EAC, symSize: 0x114 }
  - { offset: 0x5F580, size: 0x8, addend: 0x0, symName: __RNvXs5_NtNtCsliVzVx4luf9_4core5slice4iterINtB5_4IterTNtNtCsaxBLFzn74Hr_3syn4data7VariantNtNtBT_5token5CommaEENtNtB9_5clone5Clone5cloneCsehVGFPP7CiK_11clap_derive, symObjAddr: 0x3D80, symBinAddr: 0x46FC0, symSize: 0x20 }
  - { offset: 0x5F5B5, size: 0x8, addend: 0x0, symName: __RNvXs5_NtNtCsliVzVx4luf9_4core5slice4iterINtB5_4IterTNtNtCsaxBLFzn74Hr_3syn4path15GenericArgumentNtNtBT_5token5CommaEENtNtB9_5clone5Clone5cloneCsehVGFPP7CiK_11clap_derive, symObjAddr: 0x3DA0, symBinAddr: 0x46FE0, symSize: 0x20 }
  - { offset: 0x61B5A, size: 0x8, addend: 0x0, symName: __RINvYINtNtNtCsliVzVx4luf9_4core5slice4iter4IterNtNtCs69QEzRJvHMp_5alloc6string6StringENtNtNtNtBa_4iter6traits8iterator8Iterator3mapBJ_NCINvNtNtCsehVGFPP7CiK_11clap_derive5utils12doc_comments11merge_linesRBJ_RSBJ_E0EB2h_, symObjAddr: 0x1A44, symBinAddr: 0x44C84, symSize: 0x1C }
  - { offset: 0x61BB2, size: 0x8, addend: 0x0, symName: __RINvYINtNtNtCsliVzVx4luf9_4core5slice4iter4IterNtNtCs69QEzRJvHMp_5alloc6string6StringENtNtNtNtBa_4iter6traits8iterator8Iterator8try_foldjNCINvNtNtB1s_8adapters3map12map_try_foldRBJ_jjINtNtBa_6option6OptionjENCNCINvNtBN_3str17join_generic_copyehBJ_E00NvMs9_NtBa_3numj11checked_addE0B2V_ECsehVGFPP7CiK_11clap_derive, symObjAddr: 0x1A60, symBinAddr: 0x44CA0, symSize: 0x180 }
  - { offset: 0x61C6D, size: 0x8, addend: 0x0, symName: __RINvYINtNtNtCsliVzVx4luf9_4core5slice4iter4IterNtNtCsaxBLFzn74Hr_3syn4attr9AttributeENtNtNtNtBa_4iter6traits8iterator8Iterator6filterNCNvNtNtCsehVGFPP7CiK_11clap_derive5utils12doc_comments19extract_doc_comment0EB2f_, symObjAddr: 0x1BE0, symBinAddr: 0x44E20, symSize: 0x1C }
  - { offset: 0x61CBC, size: 0x8, addend: 0x0, symName: __RINvYINtNtNtCsliVzVx4luf9_4core5slice4iter4IterNtNtCsaxBLFzn74Hr_3syn4attr9AttributeENtNtNtNtBa_4iter6traits8iterator8Iterator8try_folduNCINvNtNtB1r_8adapters6filter15filter_try_foldRBJ_uINtNtNtBa_3ops12control_flow11ControlFlowNtNtCs69QEzRJvHMp_5alloc6string6StringENCNvNtNtCsehVGFPP7CiK_11clap_derive5utils12doc_comments19extract_doc_comment0NCINvNtB2h_10filter_map19filter_map_try_foldB2U_B3E_uB2Z_NCB4j_s_0NCINvNvB1l_4find5checkB3E_NCINvNvXs0_NtB2h_10skip_whileINtB7b_9SkipWhileppEB1l_4next5checkB3E_NCB4j_s0_0E0E0E0E0B2Z_EB4p_, symObjAddr: 0x1BFC, symBinAddr: 0x44E3C, symSize: 0x13C }
  - { offset: 0x61D77, size: 0x8, addend: 0x0, symName: __RINvYINtNtNtCsliVzVx4luf9_4core5slice4iter4IterNtNtCsehVGFPP7CiK_11clap_derive4attr8AttrKindENtNtNtNtBa_4iter6traits8iterator8Iterator3mapNtNtCs69QEzRJvHMp_5alloc6string6StringNCNvNtBN_4item16assert_attr_kind0EBN_, symObjAddr: 0x1D38, symBinAddr: 0x44F78, symSize: 0x30 }
  - { offset: 0x61E03, size: 0x8, addend: 0x0, symName: __RINvYINtNtNtCsliVzVx4luf9_4core5slice4iter4IterTNtCs3vPhoADqSdK_11proc_macro211TokenStreamNtBM_5IdentEENtNtNtNtBa_4iter6traits8iterator8Iterator3mapBJ_NvYBJ_NtNtBa_5clone5Clone5cloneECsehVGFPP7CiK_11clap_derive, symObjAddr: 0x1D68, symBinAddr: 0x44FA8, symSize: 0x1C }
  - { offset: 0x61E5B, size: 0x8, addend: 0x0, symName: __RINvYINtNtNtCsliVzVx4luf9_4core5slice4iter4IterTNtCs3vPhoADqSdK_11proc_macro211TokenStreamNtBM_5IdentEENtNtNtNtBa_4iter6traits8iterator8Iterator3mapRB1q_NCNvNtNtCsehVGFPP7CiK_11clap_derive7derives10value_enum18gen_value_variants0EB2z_, symObjAddr: 0x1D84, symBinAddr: 0x44FC4, symSize: 0x1C }
  - { offset: 0x61EB3, size: 0x8, addend: 0x0, symName: __RINvYINtNtNtCsliVzVx4luf9_4core5slice4iter4IterTNtCs3vPhoADqSdK_11proc_macro211TokenStreamNtBM_5IdentEENtNtNtNtBa_4iter6traits8iterator8Iterator6clonedBJ_ECsehVGFPP7CiK_11clap_derive, symObjAddr: 0x1DA0, symBinAddr: 0x44FE0, symSize: 0x1C }
  - { offset: 0x61EF3, size: 0x8, addend: 0x0, symName: __RINvYINtNtNtCsliVzVx4luf9_4core5slice4iter4IterTRNtNtCsaxBLFzn74Hr_3syn4data5FieldNtNtCsehVGFPP7CiK_11clap_derive4item4ItemEENtNtNtNtBa_4iter6traits8iterator8Iterator10filter_mapRNtB1k_4NameNCNvNtNtB1m_7derives4args11gen_augment0EB1m_, symObjAddr: 0x1DBC, symBinAddr: 0x44FFC, symSize: 0x1C }
  - { offset: 0x61F4B, size: 0x8, addend: 0x0, symName: __RINvYINtNtNtCsliVzVx4luf9_4core5slice4iter4IterTRNtNtCsaxBLFzn74Hr_3syn4data5FieldNtNtCsehVGFPP7CiK_11clap_derive4item4ItemEENtNtNtNtBa_4iter6traits8iterator8Iterator3mapINtNtBa_6result6ResultNtCs3vPhoADqSdK_11proc_macro211TokenStreamNtNtBP_5error5ErrorENCNvNtNtB1m_7derives4args15gen_constructor0EB1m_, symObjAddr: 0x1DD8, symBinAddr: 0x45018, symSize: 0x1C }
  - { offset: 0x61FA3, size: 0x8, addend: 0x0, symName: __RINvYINtNtNtCsliVzVx4luf9_4core5slice4iter4IterTRNtNtCsaxBLFzn74Hr_3syn4data5FieldNtNtCsehVGFPP7CiK_11clap_derive4item4ItemEENtNtNtNtBa_4iter6traits8iterator8Iterator3mapjNCINvNvXs1_NtNtB25_8adapters6filterINtB2U_6FilterppEB1Z_5count8to_usizeRBJ_NCNvNtNtB1m_7derives4args11gen_augments_0E0EB1m_, symObjAddr: 0x1DF4, symBinAddr: 0x45034, symSize: 0x1C }
  - { offset: 0x61FFB, size: 0x8, addend: 0x0, symName: __RINvYINtNtNtCsliVzVx4luf9_4core5slice4iter4IterTRNtNtCsaxBLFzn74Hr_3syn4data5FieldNtNtCsehVGFPP7CiK_11clap_derive4item4ItemEENtNtNtNtBa_4iter6traits8iterator8Iterator6filterNCNvNtNtB1m_7derives4args11gen_augments_0EB1m_, symObjAddr: 0x1E10, symBinAddr: 0x45050, symSize: 0x1C }
  - { offset: 0x6204A, size: 0x8, addend: 0x0, symName: __RINvYINtNtNtCsliVzVx4luf9_4core5slice4iter4IterTRNtNtCsaxBLFzn74Hr_3syn4data5FieldNtNtCsehVGFPP7CiK_11clap_derive4item4ItemEENtNtNtNtBa_4iter6traits8iterator8Iterator8try_folduNCINvNtNtB25_8adapters3map12map_try_foldRBJ_INtNtBa_6result6ResultNtCs3vPhoADqSdK_11proc_macro211TokenStreamNtNtBP_5error5ErrorEuINtNtNtBa_3ops12control_flow11ControlFlowIB4U_B3S_EENCNvNtNtB1m_7derives4args15gen_constructor0NCINvXB2V_INtB2V_12GenericShuntINtB2T_3MapB3_B5J_EIB3x_NtNtBa_7convert10InfallibleB4y_EEB1Z_8try_folduNCINvNvB1Z_12try_for_each4callB3S_B5y_NcNtB5y_5Break0E0B5y_E0E0B4T_EB1m_, symObjAddr: 0x1E2C, symBinAddr: 0x4506C, symSize: 0x140 }
  - { offset: 0x62105, size: 0x8, addend: 0x0, symName: __RINvYINtNtNtCsliVzVx4luf9_4core5slice4iter4IterTRNtNtCsaxBLFzn74Hr_3syn4data7VariantNtNtCsehVGFPP7CiK_11clap_derive4item4ItemEENtNtNtNtBa_4iter6traits8iterator8Iterator10filter_mapTRBK_RB1k_ENCNvNtNtB1o_7derives10subcommand18gen_has_subcommand0EB1o_, symObjAddr: 0x1F6C, symBinAddr: 0x451AC, symSize: 0x30 }
  - { offset: 0x62191, size: 0x8, addend: 0x0, symName: __RINvYINtNtNtCsliVzVx4luf9_4core5slice4iter4IterTRNtNtCsaxBLFzn74Hr_3syn4data7VariantNtNtCsehVGFPP7CiK_11clap_derive4item4ItemEENtNtNtNtBa_4iter6traits8iterator8Iterator10filter_mapTRBK_RB1k_ENCNvNtNtB1o_7derives10subcommand27gen_update_from_arg_matches0EB1o_, symObjAddr: 0x1F9C, symBinAddr: 0x451DC, symSize: 0x1C }
  - { offset: 0x621E9, size: 0x8, addend: 0x0, symName: __RINvYINtNtNtCsliVzVx4luf9_4core5slice4iter4IterTRRNtNtCsaxBLFzn74Hr_3syn4data7VariantRNtNtCsehVGFPP7CiK_11clap_derive4item4ItemEENtNtNtNtBa_4iter6traits8iterator8Iterator3mapINtNtBa_6result6ResultNtCs3vPhoADqSdK_11proc_macro211TokenStreamNtNtBQ_5error5ErrorENCNvNtNtB1q_7derives10subcommand18gen_has_subcommands1_0EB1q_, symObjAddr: 0x1FB8, symBinAddr: 0x451F8, symSize: 0x1C }
  - { offset: 0x62241, size: 0x8, addend: 0x0, symName: __RINvYINtNtNtCsliVzVx4luf9_4core5slice4iter4IterTRRNtNtCsaxBLFzn74Hr_3syn4data7VariantRNtNtCsehVGFPP7CiK_11clap_derive4item4ItemEENtNtNtNtBa_4iter6traits8iterator8Iterator3mapINtNtBa_6result6ResultNtCs3vPhoADqSdK_11proc_macro211TokenStreamNtNtBQ_5error5ErrorENCNvNtNtB1q_7derives10subcommand20gen_from_arg_matches0EB1q_, symObjAddr: 0x1FD4, symBinAddr: 0x45214, symSize: 0x3C }
  - { offset: 0x622CD, size: 0x8, addend: 0x0, symName: __RINvYINtNtNtCsliVzVx4luf9_4core5slice4iter4IterTRRNtNtCsaxBLFzn74Hr_3syn4data7VariantRNtNtCsehVGFPP7CiK_11clap_derive4item4ItemEENtNtNtNtBa_4iter6traits8iterator8Iterator3mapINtNtBa_6result6ResultNtCs3vPhoADqSdK_11proc_macro211TokenStreamNtNtBQ_5error5ErrorENCNvNtNtB1q_7derives10subcommand20gen_from_arg_matchess_0EB1q_, symObjAddr: 0x2010, symBinAddr: 0x45250, symSize: 0x1C }
  - { offset: 0x62325, size: 0x8, addend: 0x0, symName: __RINvYINtNtNtCsliVzVx4luf9_4core5slice4iter4IterTRRNtNtCsaxBLFzn74Hr_3syn4data7VariantRNtNtCsehVGFPP7CiK_11clap_derive4item4ItemEENtNtNtNtBa_4iter6traits8iterator8Iterator3mapINtNtBa_6result6ResultNtCs3vPhoADqSdK_11proc_macro211TokenStreamNtNtBQ_5error5ErrorENCNvNtNtB1q_7derives10subcommand27gen_update_from_arg_matchess0_0EB1q_, symObjAddr: 0x202C, symBinAddr: 0x4526C, symSize: 0x1C }
  - { offset: 0x6237D, size: 0x8, addend: 0x0, symName: __RINvYINtNtNtCsliVzVx4luf9_4core5slice4iter4IterTRRNtNtCsaxBLFzn74Hr_3syn4data7VariantRNtNtCsehVGFPP7CiK_11clap_derive4item4ItemEENtNtNtNtBa_4iter6traits8iterator8Iterator3mapINtNtBa_6result6ResultNtCs3vPhoADqSdK_11proc_macro211TokenStreamNtNtBQ_5error5ErrorENCNvNtNtB1q_7derives10subcommand27gen_update_from_arg_matchess1_0EB1q_, symObjAddr: 0x2048, symBinAddr: 0x45288, symSize: 0x1C }
  - { offset: 0x623D5, size: 0x8, addend: 0x0, symName: __RINvYINtNtNtCsliVzVx4luf9_4core5slice4iter4IterTRRNtNtCsaxBLFzn74Hr_3syn4data7VariantRNtNtCsehVGFPP7CiK_11clap_derive4item4ItemEENtNtNtNtBa_4iter6traits8iterator8Iterator3mapNtCs3vPhoADqSdK_11proc_macro211TokenStreamNCNvNtNtB1q_7derives10subcommand18gen_has_subcommands0_0EB1q_, symObjAddr: 0x2064, symBinAddr: 0x452A4, symSize: 0x1C }
  - { offset: 0x6242D, size: 0x8, addend: 0x0, symName: __RINvYINtNtNtCsliVzVx4luf9_4core5slice4iter4IterTRRNtNtCsaxBLFzn74Hr_3syn4data7VariantRNtNtCsehVGFPP7CiK_11clap_derive4item4ItemEENtNtNtNtBa_4iter6traits8iterator8Iterator8try_folduNCINvNtNtB29_8adapters3map12map_try_foldRBJ_INtNtBa_6result6ResultNtCs3vPhoADqSdK_11proc_macro211TokenStreamNtNtBQ_5error5ErrorEuINtNtNtBa_3ops12control_flow11ControlFlowIB4Y_B3W_EENCNvNtNtB1q_7derives10subcommand18gen_has_subcommands1_0NCINvXB2Z_INtB2Z_12GenericShuntINtB2X_3MapB3_B5N_EIB3B_NtNtBa_7convert10InfallibleB4C_EEB23_8try_folduNCINvNvB23_12try_for_each4callB3W_B5C_NcNtB5C_5Break0E0B5C_E0E0B4X_EB1q_, symObjAddr: 0x2080, symBinAddr: 0x452C0, symSize: 0x140 }
  - { offset: 0x624E8, size: 0x8, addend: 0x0, symName: __RINvYINtNtNtCsliVzVx4luf9_4core5slice4iter4IterTRRNtNtCsaxBLFzn74Hr_3syn4data7VariantRNtNtCsehVGFPP7CiK_11clap_derive4item4ItemEENtNtNtNtBa_4iter6traits8iterator8Iterator8try_folduNCINvNtNtB29_8adapters3map12map_try_foldRBJ_INtNtBa_6result6ResultNtCs3vPhoADqSdK_11proc_macro211TokenStreamNtNtBQ_5error5ErrorEuINtNtNtBa_3ops12control_flow11ControlFlowIB4Y_B3W_EENCNvNtNtB1q_7derives10subcommand20gen_from_arg_matches0NCINvXB2Z_INtB2Z_12GenericShuntINtB2X_3MapB3_B5N_EIB3B_NtNtBa_7convert10InfallibleB4C_EEB23_8try_folduNCINvNvB23_12try_for_each4callB3W_B5C_NcNtB5C_5Break0E0B5C_E0E0B4X_EB1q_, symObjAddr: 0x21C0, symBinAddr: 0x45400, symSize: 0x140 }
  - { offset: 0x625A3, size: 0x8, addend: 0x0, symName: __RINvYINtNtNtCsliVzVx4luf9_4core5slice4iter4IterTRRNtNtCsaxBLFzn74Hr_3syn4data7VariantRNtNtCsehVGFPP7CiK_11clap_derive4item4ItemEENtNtNtNtBa_4iter6traits8iterator8Iterator8try_folduNCINvNtNtB29_8adapters3map12map_try_foldRBJ_INtNtBa_6result6ResultNtCs3vPhoADqSdK_11proc_macro211TokenStreamNtNtBQ_5error5ErrorEuINtNtNtBa_3ops12control_flow11ControlFlowIB4Y_B3W_EENCNvNtNtB1q_7derives10subcommand20gen_from_arg_matchess_0NCINvXB2Z_INtB2Z_12GenericShuntINtB2X_3MapB3_B5N_EIB3B_NtNtBa_7convert10InfallibleB4C_EEB23_8try_folduNCINvNvB23_12try_for_each4callB3W_B5C_NcNtB5C_5Break0E0B5C_E0E0B4X_EB1q_, symObjAddr: 0x2300, symBinAddr: 0x45540, symSize: 0x140 }
  - { offset: 0x6265E, size: 0x8, addend: 0x0, symName: __RINvYINtNtNtCsliVzVx4luf9_4core5slice4iter4IterTRRNtNtCsaxBLFzn74Hr_3syn4data7VariantRNtNtCsehVGFPP7CiK_11clap_derive4item4ItemEENtNtNtNtBa_4iter6traits8iterator8Iterator8try_folduNCINvNtNtB29_8adapters3map12map_try_foldRBJ_INtNtBa_6result6ResultNtCs3vPhoADqSdK_11proc_macro211TokenStreamNtNtBQ_5error5ErrorEuINtNtNtBa_3ops12control_flow11ControlFlowIB4Y_B3W_EENCNvNtNtB1q_7derives10subcommand27gen_update_from_arg_matchess0_0NCINvXB2Z_INtB2Z_12GenericShuntINtB2X_3MapB3_B5N_EIB3B_NtNtBa_7convert10InfallibleB4C_EEB23_8try_folduNCINvNvB23_12try_for_each4callB3W_B5C_NcNtB5C_5Break0E0B5C_E0E0B4X_EB1q_, symObjAddr: 0x2440, symBinAddr: 0x45680, symSize: 0x140 }
  - { offset: 0x62719, size: 0x8, addend: 0x0, symName: __RINvYINtNtNtCsliVzVx4luf9_4core5slice4iter4IterTRRNtNtCsaxBLFzn74Hr_3syn4data7VariantRNtNtCsehVGFPP7CiK_11clap_derive4item4ItemEENtNtNtNtBa_4iter6traits8iterator8Iterator8try_folduNCINvNtNtB29_8adapters3map12map_try_foldRBJ_INtNtBa_6result6ResultNtCs3vPhoADqSdK_11proc_macro211TokenStreamNtNtBQ_5error5ErrorEuINtNtNtBa_3ops12control_flow11ControlFlowIB4Y_B3W_EENCNvNtNtB1q_7derives10subcommand27gen_update_from_arg_matchess1_0NCINvXB2Z_INtB2Z_12GenericShuntINtB2X_3MapB3_B5N_EIB3B_NtNtBa_7convert10InfallibleB4C_EEB23_8try_folduNCINvNvB23_12try_for_each4callB3W_B5C_NcNtB5C_5Break0E0B5C_E0E0B4X_EB1q_, symObjAddr: 0x2580, symBinAddr: 0x457C0, symSize: 0x140 }
  - { offset: 0x69EC3, size: 0x8, addend: 0x0, symName: __RNvMs4_NtNtCsliVzVx4luf9_4core5slice4iterINtB5_4IterINtNtB9_6option6OptionNtCs3vPhoADqSdK_11proc_macro211TokenStreamEE3newCsehVGFPP7CiK_11clap_derive, symObjAddr: 0x26C0, symBinAddr: 0x45900, symSize: 0x50 }
  - { offset: 0x6A0AD, size: 0x8, addend: 0x0, symName: __RNvMs4_NtNtCsliVzVx4luf9_4core5slice4iterINtB5_4IterNtCs3vPhoADqSdK_11proc_macro211TokenStreamE3newCsehVGFPP7CiK_11clap_derive, symObjAddr: 0x2710, symBinAddr: 0x45950, symSize: 0x50 }
  - { offset: 0x6A28A, size: 0x8, addend: 0x0, symName: __RNvMs4_NtNtCsliVzVx4luf9_4core5slice4iterINtB5_4IterNtCs3vPhoADqSdK_11proc_macro25IdentE3newCsehVGFPP7CiK_11clap_derive, symObjAddr: 0x2760, symBinAddr: 0x459A0, symSize: 0x58 }
  - { offset: 0x6A45A, size: 0x8, addend: 0x0, symName: __RNvMs4_NtNtCsliVzVx4luf9_4core5slice4iterINtB5_4IterNtNtCs69QEzRJvHMp_5alloc6string6StringE3newCsehVGFPP7CiK_11clap_derive, symObjAddr: 0x27B8, symBinAddr: 0x459F8, symSize: 0x58 }
  - { offset: 0x6A637, size: 0x8, addend: 0x0, symName: __RNvMs4_NtNtCsliVzVx4luf9_4core5slice4iterINtB5_4IterNtNtCsaxBLFzn74Hr_3syn4expr4ExprE3newCsehVGFPP7CiK_11clap_derive, symObjAddr: 0x2810, symBinAddr: 0x45A50, symSize: 0x58 }
  - { offset: 0x6A7FA, size: 0x8, addend: 0x0, symName: __RNvMs4_NtNtCsliVzVx4luf9_4core5slice4iterINtB5_4IterNtNtCsehVGFPP7CiK_11clap_derive4attr8AttrKindE3newBS_, symObjAddr: 0x2868, symBinAddr: 0x45AA8, symSize: 0x50 }
  - { offset: 0x6A9D7, size: 0x8, addend: 0x0, symName: __RNvMs4_NtNtCsliVzVx4luf9_4core5slice4iterINtB5_4IterNtNtCsehVGFPP7CiK_11clap_derive4attr8ClapAttrE3newBS_, symObjAddr: 0x28B8, symBinAddr: 0x45AF8, symSize: 0x58 }
  - { offset: 0x6ABB4, size: 0x8, addend: 0x0, symName: __RNvMs4_NtNtCsliVzVx4luf9_4core5slice4iterINtB5_4IterNtNtCsehVGFPP7CiK_11clap_derive4item11DeprecationE3newBS_, symObjAddr: 0x2910, symBinAddr: 0x45B50, symSize: 0x50 }
  - { offset: 0x6AD91, size: 0x8, addend: 0x0, symName: __RNvMs4_NtNtCsliVzVx4luf9_4core5slice4iterINtB5_4IterNtNtCsehVGFPP7CiK_11clap_derive4item6MethodE3newBS_, symObjAddr: 0x2960, symBinAddr: 0x45BA0, symSize: 0x58 }
  - { offset: 0x6AF7B, size: 0x8, addend: 0x0, symName: __RNvMs4_NtNtCsliVzVx4luf9_4core5slice4iterINtB5_4IterRNtCs3vPhoADqSdK_11proc_macro25IdentE3newCsehVGFPP7CiK_11clap_derive, symObjAddr: 0x29B8, symBinAddr: 0x45BF8, symSize: 0x50 }
  - { offset: 0x6B172, size: 0x8, addend: 0x0, symName: __RNvMs4_NtNtCsliVzVx4luf9_4core5slice4iterINtB5_4IterRNtNtCsehVGFPP7CiK_11clap_derive4item4NameE3newBT_, symObjAddr: 0x2A08, symBinAddr: 0x45C48, symSize: 0x50 }
  - { offset: 0x6B342, size: 0x8, addend: 0x0, symName: __RNvMs4_NtNtCsliVzVx4luf9_4core5slice4iterINtB5_4IterTNtCs3vPhoADqSdK_11proc_macro211TokenStreamNtBR_5IdentEE3newCsehVGFPP7CiK_11clap_derive, symObjAddr: 0x2A58, symBinAddr: 0x45C98, symSize: 0x58 }
  - { offset: 0x6B512, size: 0x8, addend: 0x0, symName: __RNvMs4_NtNtCsliVzVx4luf9_4core5slice4iterINtB5_4IterTRNtNtCsaxBLFzn74Hr_3syn4data5FieldNtNtCsehVGFPP7CiK_11clap_derive4item4ItemEE3newB1r_, symObjAddr: 0x2AB0, symBinAddr: 0x45CF0, symSize: 0x58 }
  - { offset: 0x6B6D5, size: 0x8, addend: 0x0, symName: __RNvMs4_NtNtCsliVzVx4luf9_4core5slice4iterINtB5_4IterTRNtNtCsaxBLFzn74Hr_3syn4data7VariantNtNtCsehVGFPP7CiK_11clap_derive4item4ItemEE3newB1t_, symObjAddr: 0x2B08, symBinAddr: 0x45D48, symSize: 0x58 }
  - { offset: 0x6B8A5, size: 0x8, addend: 0x0, symName: __RNvMs4_NtNtCsliVzVx4luf9_4core5slice4iterINtB5_4IterTRRNtNtCsaxBLFzn74Hr_3syn4data7VariantRNtNtCsehVGFPP7CiK_11clap_derive4item4ItemEE3newB1v_, symObjAddr: 0x2B60, symBinAddr: 0x45DA0, symSize: 0x50 }
  - { offset: 0x6CE18, size: 0x8, addend: 0x0, symName: __RINvNvMs0_NtCs69QEzRJvHMp_5alloc7raw_vecINtB8_6RawVecppE7reserve21do_reserve_and_handleNtCs3vPhoADqSdK_11proc_macro211TokenStreamNtNtBa_5alloc6GlobalECsehVGFPP7CiK_11clap_derive, symObjAddr: 0x0, symBinAddr: 0x2C0C1C, symSize: 0x64 }
  - { offset: 0x75532, size: 0x8, addend: 0x0, symName: __RINvNvMs0_NtCs69QEzRJvHMp_5alloc7raw_vecINtB8_6RawVecppE7reserve21do_reserve_and_handleNtCs3vPhoADqSdK_11proc_macro211TokenStreamNtNtBa_5alloc6GlobalECsehVGFPP7CiK_11clap_derive, symObjAddr: 0x0, symBinAddr: 0x2C0C1C, symSize: 0x64 }
  - { offset: 0x755AA, size: 0x8, addend: 0x0, symName: __RINvNvMs0_NtCs69QEzRJvHMp_5alloc7raw_vecINtB8_6RawVecppE7reserve21do_reserve_and_handleNtCs3vPhoADqSdK_11proc_macro25IdentNtNtBa_5alloc6GlobalECsehVGFPP7CiK_11clap_derive, symObjAddr: 0x64, symBinAddr: 0x2C0C80, symSize: 0x64 }
  - { offset: 0x75622, size: 0x8, addend: 0x0, symName: __RINvNvMs0_NtCs69QEzRJvHMp_5alloc7raw_vecINtB8_6RawVecppE7reserve21do_reserve_and_handleNtNtBa_6string6StringNtNtBa_5alloc6GlobalECsehVGFPP7CiK_11clap_derive, symObjAddr: 0xC8, symBinAddr: 0x2C0CE4, symSize: 0x64 }
  - { offset: 0x7569A, size: 0x8, addend: 0x0, symName: __RINvNvMs0_NtCs69QEzRJvHMp_5alloc7raw_vecINtB8_6RawVecppE7reserve21do_reserve_and_handleNtNtCsaxBLFzn74Hr_3syn4expr4ExprNtNtBa_5alloc6GlobalECsehVGFPP7CiK_11clap_derive, symObjAddr: 0x12C, symBinAddr: 0x2C0D48, symSize: 0x64 }
  - { offset: 0x75712, size: 0x8, addend: 0x0, symName: __RINvNvMs0_NtCs69QEzRJvHMp_5alloc7raw_vecINtB8_6RawVecppE7reserve21do_reserve_and_handleNtNtCsehVGFPP7CiK_11clap_derive4attr8ClapAttrNtNtBa_5alloc6GlobalEB1r_, symObjAddr: 0x190, symBinAddr: 0x2C0DAC, symSize: 0x64 }
  - { offset: 0x7578A, size: 0x8, addend: 0x0, symName: __RINvNvMs0_NtCs69QEzRJvHMp_5alloc7raw_vecINtB8_6RawVecppE7reserve21do_reserve_and_handleRNtCs3vPhoADqSdK_11proc_macro25IdentNtNtBa_5alloc6GlobalECsehVGFPP7CiK_11clap_derive, symObjAddr: 0x1F4, symBinAddr: 0x2C0E10, symSize: 0x64 }
  - { offset: 0x75802, size: 0x8, addend: 0x0, symName: __RINvNvMs0_NtCs69QEzRJvHMp_5alloc7raw_vecINtB8_6RawVecppE7reserve21do_reserve_and_handleRNtNtCsehVGFPP7CiK_11clap_derive4item4NameNtNtBa_5alloc6GlobalEB1s_, symObjAddr: 0x258, symBinAddr: 0x2C0E74, symSize: 0x64 }
  - { offset: 0x7587A, size: 0x8, addend: 0x0, symName: __RINvNvMs0_NtCs69QEzRJvHMp_5alloc7raw_vecINtB8_6RawVecppE7reserve21do_reserve_and_handleTRNtNtCsaxBLFzn74Hr_3syn4data5FieldNtNtCsehVGFPP7CiK_11clap_derive4item4ItemENtNtBa_5alloc6GlobalEB20_, symObjAddr: 0x2BC, symBinAddr: 0x2C0ED8, symSize: 0x64 }
  - { offset: 0x758F2, size: 0x8, addend: 0x0, symName: __RINvNvMs0_NtCs69QEzRJvHMp_5alloc7raw_vecINtB8_6RawVecppE7reserve21do_reserve_and_handleTRNtNtCsaxBLFzn74Hr_3syn4data7VariantNtNtCsehVGFPP7CiK_11clap_derive4item4ItemENtNtBa_5alloc6GlobalEB22_, symObjAddr: 0x320, symBinAddr: 0x2C0F3C, symSize: 0x64 }
  - { offset: 0x77244, size: 0x8, addend: 0x0, symName: __RNvXs2_NtCs69QEzRJvHMp_5alloc7raw_vecINtB5_6RawVecINtNtCsliVzVx4luf9_4core6option6OptionNtCs3vPhoADqSdK_11proc_macro211TokenStreamEENtNtNtBR_3ops4drop4Drop4dropCsehVGFPP7CiK_11clap_derive, symObjAddr: 0x5764, symBinAddr: 0x4C3E0, symSize: 0x68 }
  - { offset: 0x772AE, size: 0x8, addend: 0x0, symName: __RNvXs2_NtCs69QEzRJvHMp_5alloc7raw_vecINtB5_6RawVecNtCs3vPhoADqSdK_11proc_macro211TokenStreamENtNtNtCsliVzVx4luf9_4core3ops4drop4Drop4dropCsehVGFPP7CiK_11clap_derive, symObjAddr: 0x57CC, symBinAddr: 0x4C448, symSize: 0x68 }
  - { offset: 0x77318, size: 0x8, addend: 0x0, symName: __RNvXs2_NtCs69QEzRJvHMp_5alloc7raw_vecINtB5_6RawVecNtCs3vPhoADqSdK_11proc_macro25IdentENtNtNtCsliVzVx4luf9_4core3ops4drop4Drop4dropCsehVGFPP7CiK_11clap_derive, symObjAddr: 0x5834, symBinAddr: 0x4C4B0, symSize: 0x68 }
  - { offset: 0x77382, size: 0x8, addend: 0x0, symName: __RNvXs2_NtCs69QEzRJvHMp_5alloc7raw_vecINtB5_6RawVecNtNtB7_6string6StringENtNtNtCsliVzVx4luf9_4core3ops4drop4Drop4dropCsehVGFPP7CiK_11clap_derive, symObjAddr: 0x589C, symBinAddr: 0x4C518, symSize: 0x68 }
  - { offset: 0x773EC, size: 0x8, addend: 0x0, symName: __RNvXs2_NtCs69QEzRJvHMp_5alloc7raw_vecINtB5_6RawVecNtNtCsaxBLFzn74Hr_3syn4expr4ExprENtNtNtCsliVzVx4luf9_4core3ops4drop4Drop4dropCsehVGFPP7CiK_11clap_derive, symObjAddr: 0x5904, symBinAddr: 0x4C580, symSize: 0x68 }
  - { offset: 0x77456, size: 0x8, addend: 0x0, symName: __RNvXs2_NtCs69QEzRJvHMp_5alloc7raw_vecINtB5_6RawVecNtNtCsehVGFPP7CiK_11clap_derive4attr8ClapAttrENtNtNtCsliVzVx4luf9_4core3ops4drop4Drop4dropBQ_, symObjAddr: 0x596C, symBinAddr: 0x4C5E8, symSize: 0x68 }
  - { offset: 0x774C0, size: 0x8, addend: 0x0, symName: __RNvXs2_NtCs69QEzRJvHMp_5alloc7raw_vecINtB5_6RawVecNtNtCsehVGFPP7CiK_11clap_derive4item11DeprecationENtNtNtCsliVzVx4luf9_4core3ops4drop4Drop4dropBQ_, symObjAddr: 0x59D4, symBinAddr: 0x4C650, symSize: 0x68 }
  - { offset: 0x7752A, size: 0x8, addend: 0x0, symName: __RNvXs2_NtCs69QEzRJvHMp_5alloc7raw_vecINtB5_6RawVecNtNtCsehVGFPP7CiK_11clap_derive4item6MethodENtNtNtCsliVzVx4luf9_4core3ops4drop4Drop4dropBQ_, symObjAddr: 0x5A3C, symBinAddr: 0x4C6B8, symSize: 0x68 }
  - { offset: 0x77594, size: 0x8, addend: 0x0, symName: __RNvXs2_NtCs69QEzRJvHMp_5alloc7raw_vecINtB5_6RawVecRNtCs3vPhoADqSdK_11proc_macro25IdentENtNtNtCsliVzVx4luf9_4core3ops4drop4Drop4dropCsehVGFPP7CiK_11clap_derive, symObjAddr: 0x5AA4, symBinAddr: 0x4C720, symSize: 0x68 }
  - { offset: 0x775FE, size: 0x8, addend: 0x0, symName: __RNvXs2_NtCs69QEzRJvHMp_5alloc7raw_vecINtB5_6RawVecRNtNtCsehVGFPP7CiK_11clap_derive4item4NameENtNtNtCsliVzVx4luf9_4core3ops4drop4Drop4dropBR_, symObjAddr: 0x5B0C, symBinAddr: 0x4C788, symSize: 0x68 }
  - { offset: 0x77668, size: 0x8, addend: 0x0, symName: __RNvXs2_NtCs69QEzRJvHMp_5alloc7raw_vecINtB5_6RawVecTNtCs3vPhoADqSdK_11proc_macro211TokenStreamNtBP_5IdentEENtNtNtCsliVzVx4luf9_4core3ops4drop4Drop4dropCsehVGFPP7CiK_11clap_derive, symObjAddr: 0x5B74, symBinAddr: 0x4C7F0, symSize: 0x68 }
  - { offset: 0x776D2, size: 0x8, addend: 0x0, symName: __RNvXs2_NtCs69QEzRJvHMp_5alloc7raw_vecINtB5_6RawVecTNtNtCsehVGFPP7CiK_11clap_derive4attr8ClapAttrNtNtCsaxBLFzn74Hr_3syn5token5CommaEENtNtNtCsliVzVx4luf9_4core3ops4drop4Drop4dropBR_, symObjAddr: 0x5BDC, symBinAddr: 0x4C858, symSize: 0x68 }
  - { offset: 0x7773C, size: 0x8, addend: 0x0, symName: __RNvXs2_NtCs69QEzRJvHMp_5alloc7raw_vecINtB5_6RawVecTRNtNtCsaxBLFzn74Hr_3syn4data5FieldNtNtCsehVGFPP7CiK_11clap_derive4item4ItemEENtNtNtCsliVzVx4luf9_4core3ops4drop4Drop4dropB1p_, symObjAddr: 0x5C44, symBinAddr: 0x4C8C0, symSize: 0x68 }
  - { offset: 0x777A6, size: 0x8, addend: 0x0, symName: __RNvXs2_NtCs69QEzRJvHMp_5alloc7raw_vecINtB5_6RawVecTRNtNtCsaxBLFzn74Hr_3syn4data7VariantNtNtCsehVGFPP7CiK_11clap_derive4item4ItemEENtNtNtCsliVzVx4luf9_4core3ops4drop4Drop4dropB1r_, symObjAddr: 0x5CAC, symBinAddr: 0x4C928, symSize: 0x68 }
  - { offset: 0x77810, size: 0x8, addend: 0x0, symName: __RNvXs2_NtCs69QEzRJvHMp_5alloc7raw_vecINtB5_6RawVecTRRNtNtCsaxBLFzn74Hr_3syn4data7VariantRNtNtCsehVGFPP7CiK_11clap_derive4item4ItemEENtNtNtCsliVzVx4luf9_4core3ops4drop4Drop4dropB1t_, symObjAddr: 0x5D14, symBinAddr: 0x4C990, symSize: 0x68 }
  - { offset: 0x78626, size: 0x8, addend: 0x0, symName: __RNvMs0_NtCs69QEzRJvHMp_5alloc7raw_vecINtB5_6RawVecINtNtCsliVzVx4luf9_4core6option6OptionNtCs3vPhoADqSdK_11proc_macro211TokenStreamEE14current_memoryCsehVGFPP7CiK_11clap_derive, symObjAddr: 0x384, symBinAddr: 0x47000, symSize: 0xD0 }
  - { offset: 0x78795, size: 0x8, addend: 0x0, symName: __RNvMs0_NtCs69QEzRJvHMp_5alloc7raw_vecINtB5_6RawVecINtNtCsliVzVx4luf9_4core6option6OptionNtCs3vPhoADqSdK_11proc_macro211TokenStreamEE8grow_oneCsehVGFPP7CiK_11clap_derive, symObjAddr: 0x454, symBinAddr: 0x470D0, symSize: 0x68 }
  - { offset: 0x7886F, size: 0x8, addend: 0x0, symName: __RNvMs0_NtCs69QEzRJvHMp_5alloc7raw_vecINtB5_6RawVecNtCs3vPhoADqSdK_11proc_macro211TokenStreamE14current_memoryCsehVGFPP7CiK_11clap_derive, symObjAddr: 0x4BC, symBinAddr: 0x47138, symSize: 0xD0 }
  - { offset: 0x78AE3, size: 0x8, addend: 0x0, symName: __RNvMs0_NtCs69QEzRJvHMp_5alloc7raw_vecINtB5_6RawVecNtCs3vPhoADqSdK_11proc_macro211TokenStreamE15try_allocate_inCsehVGFPP7CiK_11clap_derive, symObjAddr: 0x58C, symBinAddr: 0x47208, symSize: 0x288 }
  - { offset: 0x78E49, size: 0x8, addend: 0x0, symName: __RNvMs0_NtCs69QEzRJvHMp_5alloc7raw_vecINtB5_6RawVecNtCs3vPhoADqSdK_11proc_macro211TokenStreamE8grow_oneCsehVGFPP7CiK_11clap_derive, symObjAddr: 0x814, symBinAddr: 0x47490, symSize: 0x68 }
  - { offset: 0x78F23, size: 0x8, addend: 0x0, symName: __RNvMs0_NtCs69QEzRJvHMp_5alloc7raw_vecINtB5_6RawVecNtCs3vPhoADqSdK_11proc_macro25IdentE14current_memoryCsehVGFPP7CiK_11clap_derive, symObjAddr: 0x87C, symBinAddr: 0x474F8, symSize: 0xD0 }
  - { offset: 0x79092, size: 0x8, addend: 0x0, symName: __RNvMs0_NtCs69QEzRJvHMp_5alloc7raw_vecINtB5_6RawVecNtCs3vPhoADqSdK_11proc_macro25IdentE8grow_oneCsehVGFPP7CiK_11clap_derive, symObjAddr: 0x94C, symBinAddr: 0x475C8, symSize: 0x68 }
  - { offset: 0x7916C, size: 0x8, addend: 0x0, symName: __RNvMs0_NtCs69QEzRJvHMp_5alloc7raw_vecINtB5_6RawVecNtNtB7_6string6StringE14current_memoryCsehVGFPP7CiK_11clap_derive, symObjAddr: 0x9B4, symBinAddr: 0x47630, symSize: 0xD0 }
  - { offset: 0x793B5, size: 0x8, addend: 0x0, symName: __RNvMs0_NtCs69QEzRJvHMp_5alloc7raw_vecINtB5_6RawVecNtNtB7_6string6StringE15try_allocate_inCsehVGFPP7CiK_11clap_derive, symObjAddr: 0xA84, symBinAddr: 0x47700, symSize: 0x288 }
  - { offset: 0x7E7BF, size: 0x8, addend: 0x0, symName: __RNvMs0_NtCs69QEzRJvHMp_5alloc7raw_vecINtB5_6RawVecNtNtCsaxBLFzn74Hr_3syn4expr4ExprE14current_memoryCsehVGFPP7CiK_11clap_derive, symObjAddr: 0xD0C, symBinAddr: 0x47988, symSize: 0xD0 }
  - { offset: 0x7EA08, size: 0x8, addend: 0x0, symName: __RNvMs0_NtCs69QEzRJvHMp_5alloc7raw_vecINtB5_6RawVecNtNtCsaxBLFzn74Hr_3syn4expr4ExprE15try_allocate_inCsehVGFPP7CiK_11clap_derive, symObjAddr: 0xDDC, symBinAddr: 0x47A58, symSize: 0x288 }
  - { offset: 0x7ED61, size: 0x8, addend: 0x0, symName: __RNvMs0_NtCs69QEzRJvHMp_5alloc7raw_vecINtB5_6RawVecNtNtCsaxBLFzn74Hr_3syn4expr4ExprE16with_capacity_inCsehVGFPP7CiK_11clap_derive, symObjAddr: 0x1064, symBinAddr: 0x47CE0, symSize: 0x5C }
  - { offset: 0x7EE47, size: 0x8, addend: 0x0, symName: __RNvMs0_NtCs69QEzRJvHMp_5alloc7raw_vecINtB5_6RawVecNtNtCsehVGFPP7CiK_11clap_derive4attr8ClapAttrE14current_memoryBQ_, symObjAddr: 0x10C0, symBinAddr: 0x47D3C, symSize: 0xD0 }
  - { offset: 0x7F090, size: 0x8, addend: 0x0, symName: __RNvMs0_NtCs69QEzRJvHMp_5alloc7raw_vecINtB5_6RawVecNtNtCsehVGFPP7CiK_11clap_derive4attr8ClapAttrE15try_allocate_inBQ_, symObjAddr: 0x1190, symBinAddr: 0x47E0C, symSize: 0x288 }
  - { offset: 0x7F3E9, size: 0x8, addend: 0x0, symName: __RNvMs0_NtCs69QEzRJvHMp_5alloc7raw_vecINtB5_6RawVecNtNtCsehVGFPP7CiK_11clap_derive4attr8ClapAttrE16with_capacity_inBQ_, symObjAddr: 0x1418, symBinAddr: 0x48094, symSize: 0x5C }
  - { offset: 0x7F455, size: 0x8, addend: 0x0, symName: __RNvMs0_NtCs69QEzRJvHMp_5alloc7raw_vecINtB5_6RawVecNtNtCsehVGFPP7CiK_11clap_derive4attr8ClapAttrE8grow_oneBQ_, symObjAddr: 0x1474, symBinAddr: 0x480F0, symSize: 0x68 }
  - { offset: 0x7F54D, size: 0x8, addend: 0x0, symName: __RNvMs0_NtCs69QEzRJvHMp_5alloc7raw_vecINtB5_6RawVecNtNtCsehVGFPP7CiK_11clap_derive4item11DeprecationE14current_memoryBQ_, symObjAddr: 0x14DC, symBinAddr: 0x48158, symSize: 0xD0 }
  - { offset: 0x7F796, size: 0x8, addend: 0x0, symName: __RNvMs0_NtCs69QEzRJvHMp_5alloc7raw_vecINtB5_6RawVecNtNtCsehVGFPP7CiK_11clap_derive4item11DeprecationE15try_allocate_inBQ_, symObjAddr: 0x15AC, symBinAddr: 0x48228, symSize: 0x288 }
  - { offset: 0x7FAFC, size: 0x8, addend: 0x0, symName: __RNvMs0_NtCs69QEzRJvHMp_5alloc7raw_vecINtB5_6RawVecNtNtCsehVGFPP7CiK_11clap_derive4item11DeprecationE8grow_oneBQ_, symObjAddr: 0x1834, symBinAddr: 0x484B0, symSize: 0x68 }
  - { offset: 0x7FBD6, size: 0x8, addend: 0x0, symName: __RNvMs0_NtCs69QEzRJvHMp_5alloc7raw_vecINtB5_6RawVecNtNtCsehVGFPP7CiK_11clap_derive4item6MethodE14current_memoryBQ_, symObjAddr: 0x189C, symBinAddr: 0x48518, symSize: 0xD0 }
  - { offset: 0x7FE1F, size: 0x8, addend: 0x0, symName: __RNvMs0_NtCs69QEzRJvHMp_5alloc7raw_vecINtB5_6RawVecNtNtCsehVGFPP7CiK_11clap_derive4item6MethodE15try_allocate_inBQ_, symObjAddr: 0x196C, symBinAddr: 0x485E8, symSize: 0x288 }
  - { offset: 0x80185, size: 0x8, addend: 0x0, symName: __RNvMs0_NtCs69QEzRJvHMp_5alloc7raw_vecINtB5_6RawVecNtNtCsehVGFPP7CiK_11clap_derive4item6MethodE8grow_oneBQ_, symObjAddr: 0x1BF4, symBinAddr: 0x48870, symSize: 0x68 }
  - { offset: 0x8026C, size: 0x8, addend: 0x0, symName: __RNvMs0_NtCs69QEzRJvHMp_5alloc7raw_vecINtB5_6RawVecRNtCs3vPhoADqSdK_11proc_macro25IdentE14current_memoryCsehVGFPP7CiK_11clap_derive, symObjAddr: 0x1C5C, symBinAddr: 0x488D8, symSize: 0xC8 }
  - { offset: 0x804B5, size: 0x8, addend: 0x0, symName: __RNvMs0_NtCs69QEzRJvHMp_5alloc7raw_vecINtB5_6RawVecRNtCs3vPhoADqSdK_11proc_macro25IdentE15try_allocate_inCsehVGFPP7CiK_11clap_derive, symObjAddr: 0x1D24, symBinAddr: 0x489A0, symSize: 0x284 }
  - { offset: 0x808A2, size: 0x8, addend: 0x0, symName: __RNvMs0_NtCs69QEzRJvHMp_5alloc7raw_vecINtB5_6RawVecRNtNtCsehVGFPP7CiK_11clap_derive4item4NameE14current_memoryBR_, symObjAddr: 0x1FA8, symBinAddr: 0x48C24, symSize: 0xC8 }
  - { offset: 0x80AEB, size: 0x8, addend: 0x0, symName: __RNvMs0_NtCs69QEzRJvHMp_5alloc7raw_vecINtB5_6RawVecRNtNtCsehVGFPP7CiK_11clap_derive4item4NameE15try_allocate_inBR_, symObjAddr: 0x2070, symBinAddr: 0x48CEC, symSize: 0x284 }
  - { offset: 0x80EE9, size: 0x8, addend: 0x0, symName: __RNvMs0_NtCs69QEzRJvHMp_5alloc7raw_vecINtB5_6RawVecTNtCs3vPhoADqSdK_11proc_macro211TokenStreamNtBP_5IdentEE14current_memoryCsehVGFPP7CiK_11clap_derive, symObjAddr: 0x22F4, symBinAddr: 0x48F70, symSize: 0xD0 }
  - { offset: 0x81058, size: 0x8, addend: 0x0, symName: __RNvMs0_NtCs69QEzRJvHMp_5alloc7raw_vecINtB5_6RawVecTNtCs3vPhoADqSdK_11proc_macro211TokenStreamNtBP_5IdentEE8grow_oneCsehVGFPP7CiK_11clap_derive, symObjAddr: 0x23C4, symBinAddr: 0x49040, symSize: 0x68 }
  - { offset: 0x81150, size: 0x8, addend: 0x0, symName: __RNvMs0_NtCs69QEzRJvHMp_5alloc7raw_vecINtB5_6RawVecTNtNtCsehVGFPP7CiK_11clap_derive4attr8ClapAttrNtNtCsaxBLFzn74Hr_3syn5token5CommaEE14current_memoryBR_, symObjAddr: 0x242C, symBinAddr: 0x490A8, symSize: 0xD0 }
  - { offset: 0x812BF, size: 0x8, addend: 0x0, symName: __RNvMs0_NtCs69QEzRJvHMp_5alloc7raw_vecINtB5_6RawVecTNtNtCsehVGFPP7CiK_11clap_derive4attr8ClapAttrNtNtCsaxBLFzn74Hr_3syn5token5CommaEE8grow_oneBR_, symObjAddr: 0x24FC, symBinAddr: 0x49178, symSize: 0x68 }
  - { offset: 0x813C5, size: 0x8, addend: 0x0, symName: __RNvMs0_NtCs69QEzRJvHMp_5alloc7raw_vecINtB5_6RawVecTRNtNtCsaxBLFzn74Hr_3syn4data5FieldNtNtCsehVGFPP7CiK_11clap_derive4item4ItemEE14current_memoryB1p_, symObjAddr: 0x2564, symBinAddr: 0x491E0, symSize: 0xD0 }
  - { offset: 0x8160E, size: 0x8, addend: 0x0, symName: __RNvMs0_NtCs69QEzRJvHMp_5alloc7raw_vecINtB5_6RawVecTRNtNtCsaxBLFzn74Hr_3syn4data5FieldNtNtCsehVGFPP7CiK_11clap_derive4item4ItemEE15try_allocate_inB1p_, symObjAddr: 0x2634, symBinAddr: 0x492B0, symSize: 0x288 }
  - { offset: 0x81A1A, size: 0x8, addend: 0x0, symName: __RNvMs0_NtCs69QEzRJvHMp_5alloc7raw_vecINtB5_6RawVecTRNtNtCsaxBLFzn74Hr_3syn4data7VariantNtNtCsehVGFPP7CiK_11clap_derive4item4ItemEE14current_memoryB1r_, symObjAddr: 0x28BC, symBinAddr: 0x49538, symSize: 0xD0 }
  - { offset: 0x81C63, size: 0x8, addend: 0x0, symName: __RNvMs0_NtCs69QEzRJvHMp_5alloc7raw_vecINtB5_6RawVecTRNtNtCsaxBLFzn74Hr_3syn4data7VariantNtNtCsehVGFPP7CiK_11clap_derive4item4ItemEE15try_allocate_inB1r_, symObjAddr: 0x298C, symBinAddr: 0x49608, symSize: 0x288 }
  - { offset: 0x81FC9, size: 0x8, addend: 0x0, symName: __RNvMs0_NtCs69QEzRJvHMp_5alloc7raw_vecINtB5_6RawVecTRNtNtCsaxBLFzn74Hr_3syn4data7VariantNtNtCsehVGFPP7CiK_11clap_derive4item4ItemEE8grow_oneB1r_, symObjAddr: 0x2C14, symBinAddr: 0x49890, symSize: 0x68 }
  - { offset: 0x820DB, size: 0x8, addend: 0x0, symName: __RNvMs0_NtCs69QEzRJvHMp_5alloc7raw_vecINtB5_6RawVecTRRNtNtCsaxBLFzn74Hr_3syn4data7VariantRNtNtCsehVGFPP7CiK_11clap_derive4item4ItemEE14current_memoryB1t_, symObjAddr: 0x2C7C, symBinAddr: 0x498F8, symSize: 0xD0 }
  - { offset: 0x8224A, size: 0x8, addend: 0x0, symName: __RNvMs0_NtCs69QEzRJvHMp_5alloc7raw_vecINtB5_6RawVecTRRNtNtCsaxBLFzn74Hr_3syn4data7VariantRNtNtCsehVGFPP7CiK_11clap_derive4item4ItemEE8grow_oneB1t_, symObjAddr: 0x2D4C, symBinAddr: 0x499C8, symSize: 0x68 }
  - { offset: 0x82374, size: 0x8, addend: 0x0, symName: __RNvMs1_NtCs69QEzRJvHMp_5alloc7raw_vecINtB5_6RawVecINtNtCsliVzVx4luf9_4core6option6OptionNtCs3vPhoADqSdK_11proc_macro211TokenStreamEE14grow_amortizedCsehVGFPP7CiK_11clap_derive, symObjAddr: 0x2DB4, symBinAddr: 0x49A30, symSize: 0x2C8 }
  - { offset: 0x828AC, size: 0x8, addend: 0x0, symName: __RNvMs1_NtCs69QEzRJvHMp_5alloc7raw_vecINtB5_6RawVecNtCs3vPhoADqSdK_11proc_macro211TokenStreamE14grow_amortizedCsehVGFPP7CiK_11clap_derive, symObjAddr: 0x307C, symBinAddr: 0x49CF8, symSize: 0x2C8 }
  - { offset: 0x82DE4, size: 0x8, addend: 0x0, symName: __RNvMs1_NtCs69QEzRJvHMp_5alloc7raw_vecINtB5_6RawVecNtCs3vPhoADqSdK_11proc_macro25IdentE14grow_amortizedCsehVGFPP7CiK_11clap_derive, symObjAddr: 0x3344, symBinAddr: 0x49FC0, symSize: 0x2C8 }
  - { offset: 0x83329, size: 0x8, addend: 0x0, symName: __RNvMs1_NtCs69QEzRJvHMp_5alloc7raw_vecINtB5_6RawVecNtNtB7_6string6StringE14grow_amortizedCsehVGFPP7CiK_11clap_derive, symObjAddr: 0x360C, symBinAddr: 0x4A288, symSize: 0x2C8 }
  - { offset: 0x8386E, size: 0x8, addend: 0x0, symName: __RNvMs1_NtCs69QEzRJvHMp_5alloc7raw_vecINtB5_6RawVecNtNtCsaxBLFzn74Hr_3syn4expr4ExprE14grow_amortizedCsehVGFPP7CiK_11clap_derive, symObjAddr: 0x38D4, symBinAddr: 0x4A550, symSize: 0x2C8 }
  - { offset: 0x83DA6, size: 0x8, addend: 0x0, symName: __RNvMs1_NtCs69QEzRJvHMp_5alloc7raw_vecINtB5_6RawVecNtNtCsehVGFPP7CiK_11clap_derive4attr8ClapAttrE14grow_amortizedBQ_, symObjAddr: 0x3B9C, symBinAddr: 0x4A818, symSize: 0x2C8 }
  - { offset: 0x842DE, size: 0x8, addend: 0x0, symName: __RNvMs1_NtCs69QEzRJvHMp_5alloc7raw_vecINtB5_6RawVecNtNtCsehVGFPP7CiK_11clap_derive4item11DeprecationE14grow_amortizedBQ_, symObjAddr: 0x3E64, symBinAddr: 0x4AAE0, symSize: 0x2C8 }
  - { offset: 0x84816, size: 0x8, addend: 0x0, symName: __RNvMs1_NtCs69QEzRJvHMp_5alloc7raw_vecINtB5_6RawVecNtNtCsehVGFPP7CiK_11clap_derive4item6MethodE14grow_amortizedBQ_, symObjAddr: 0x412C, symBinAddr: 0x4ADA8, symSize: 0x2C8 }
  - { offset: 0x84D5B, size: 0x8, addend: 0x0, symName: __RNvMs1_NtCs69QEzRJvHMp_5alloc7raw_vecINtB5_6RawVecRNtCs3vPhoADqSdK_11proc_macro25IdentE14grow_amortizedCsehVGFPP7CiK_11clap_derive, symObjAddr: 0x43F4, symBinAddr: 0x4B070, symSize: 0x2C4 }
  - { offset: 0x852A0, size: 0x8, addend: 0x0, symName: __RNvMs1_NtCs69QEzRJvHMp_5alloc7raw_vecINtB5_6RawVecRNtNtCsehVGFPP7CiK_11clap_derive4item4NameE14grow_amortizedBR_, symObjAddr: 0x46B8, symBinAddr: 0x4B334, symSize: 0x2C4 }
  - { offset: 0x857D8, size: 0x8, addend: 0x0, symName: __RNvMs1_NtCs69QEzRJvHMp_5alloc7raw_vecINtB5_6RawVecTNtCs3vPhoADqSdK_11proc_macro211TokenStreamNtBP_5IdentEE14grow_amortizedCsehVGFPP7CiK_11clap_derive, symObjAddr: 0x497C, symBinAddr: 0x4B5F8, symSize: 0x2C8 }
  - { offset: 0x85D10, size: 0x8, addend: 0x0, symName: __RNvMs1_NtCs69QEzRJvHMp_5alloc7raw_vecINtB5_6RawVecTNtNtCsehVGFPP7CiK_11clap_derive4attr8ClapAttrNtNtCsaxBLFzn74Hr_3syn5token5CommaEE14grow_amortizedBR_, symObjAddr: 0x4C44, symBinAddr: 0x4B8C0, symSize: 0x2C8 }
  - { offset: 0x86255, size: 0x8, addend: 0x0, symName: __RNvMs1_NtCs69QEzRJvHMp_5alloc7raw_vecINtB5_6RawVecTRNtNtCsaxBLFzn74Hr_3syn4data5FieldNtNtCsehVGFPP7CiK_11clap_derive4item4ItemEE14grow_amortizedB1p_, symObjAddr: 0x4F0C, symBinAddr: 0x4BB88, symSize: 0x2C8 }
  - { offset: 0x8678D, size: 0x8, addend: 0x0, symName: __RNvMs1_NtCs69QEzRJvHMp_5alloc7raw_vecINtB5_6RawVecTRNtNtCsaxBLFzn74Hr_3syn4data7VariantNtNtCsehVGFPP7CiK_11clap_derive4item4ItemEE14grow_amortizedB1r_, symObjAddr: 0x51D4, symBinAddr: 0x4BE50, symSize: 0x2C8 }
  - { offset: 0x86CC5, size: 0x8, addend: 0x0, symName: __RNvMs1_NtCs69QEzRJvHMp_5alloc7raw_vecINtB5_6RawVecTRRNtNtCsaxBLFzn74Hr_3syn4data7VariantRNtNtCsehVGFPP7CiK_11clap_derive4item4ItemEE14grow_amortizedB1t_, symObjAddr: 0x549C, symBinAddr: 0x4C118, symSize: 0x2C8 }
  - { offset: 0x87144, size: 0x8, addend: 0x0, symName: __RINvMNtCsliVzVx4luf9_4core3stre12strip_prefixcECsehVGFPP7CiK_11clap_derive, symObjAddr: 0x0, symBinAddr: 0x4C9F8, symSize: 0x44 }
  - { offset: 0x87572, size: 0x8, addend: 0x0, symName: __RNvXs7_NtNtCs39eHfitSTy1_10proc_macro6bridge3rpcINtNtNtCsliVzVx4luf9_4core3num7nonzero7NonZeromEINtB5_9DecodeMutuE6decodeCsehVGFPP7CiK_11clap_derive, symObjAddr: 0x2F58, symBinAddr: 0x4F950, symSize: 0x5C }
  - { offset: 0x8839A, size: 0x8, addend: 0x0, symName: __RNvNtNtCsehVGFPP7CiK_11clap_derive5utils12doc_comments19extract_doc_comment, symObjAddr: 0x59B8, symBinAddr: 0x523B0, symSize: 0x178 }
  - { offset: 0x883E0, size: 0x8, addend: 0x0, symName: __RNCNvNtNtCsehVGFPP7CiK_11clap_derive5utils12doc_comments19extract_doc_comment0B7_, symObjAddr: 0x5B30, symBinAddr: 0x52528, symSize: 0x50 }
  - { offset: 0x88416, size: 0x8, addend: 0x0, symName: __RNCNvNtNtCsehVGFPP7CiK_11clap_derive5utils12doc_comments19extract_doc_comments_0B7_, symObjAddr: 0x5B80, symBinAddr: 0x52578, symSize: 0x144 }
  - { offset: 0x88469, size: 0x8, addend: 0x0, symName: __RNCNvNtNtCsehVGFPP7CiK_11clap_derive5utils12doc_comments19extract_doc_comments0_0B7_, symObjAddr: 0x5CC4, symBinAddr: 0x526BC, symSize: 0x44 }
  - { offset: 0x8849F, size: 0x8, addend: 0x0, symName: __RNCNvNtNtCsehVGFPP7CiK_11clap_derive5utils12doc_comments19extract_doc_comments1_0B7_, symObjAddr: 0x5D08, symBinAddr: 0x52700, symSize: 0xB4 }
  - { offset: 0x884DB, size: 0x8, addend: 0x0, symName: __RNCNCNvNtNtCsehVGFPP7CiK_11clap_derive5utils12doc_comments19extract_doc_comments1_00B9_, symObjAddr: 0x5DBC, symBinAddr: 0x527B4, symSize: 0x78 }
  - { offset: 0x88536, size: 0x8, addend: 0x0, symName: __RNCNvNtNtCsehVGFPP7CiK_11clap_derive5utils12doc_comments19extract_doc_comments2_0B7_, symObjAddr: 0x5E34, symBinAddr: 0x5282C, symSize: 0x38 }
  - { offset: 0x88590, size: 0x8, addend: 0x0, symName: __RNvNtNtCsehVGFPP7CiK_11clap_derive5utils12doc_comments18format_doc_comment, symObjAddr: 0x5E6C, symBinAddr: 0x52864, symSize: 0x5C4 }
  - { offset: 0x8888D, size: 0x8, addend: 0x0, symName: __RNCNvNtNtCsehVGFPP7CiK_11clap_derive5utils12doc_comments18format_doc_comment0B7_, symObjAddr: 0x6430, symBinAddr: 0x52E28, symSize: 0x44 }
  - { offset: 0x888C3, size: 0x8, addend: 0x0, symName: __RNCNvNtNtCsehVGFPP7CiK_11clap_derive5utils12doc_comments18format_doc_comments_0B7_, symObjAddr: 0x6474, symBinAddr: 0x52E6C, symSize: 0x34 }
  - { offset: 0x888F1, size: 0x8, addend: 0x0, symName: __RNCNvNtNtCsehVGFPP7CiK_11clap_derive5utils12doc_comments18format_doc_comments0_0B7_, symObjAddr: 0x64A8, symBinAddr: 0x52EA0, symSize: 0x34 }
  - { offset: 0x88927, size: 0x8, addend: 0x0, symName: __RNvNtNtCsehVGFPP7CiK_11clap_derive5utils12doc_comments16split_paragraphs, symObjAddr: 0x64DC, symBinAddr: 0x52ED4, symSize: 0x6C }
  - { offset: 0x8896D, size: 0x8, addend: 0x0, symName: __RNCNvNtNtCsehVGFPP7CiK_11clap_derive5utils12doc_comments16split_paragraphs0B7_, symObjAddr: 0x6548, symBinAddr: 0x52F40, symSize: 0x24C }
  - { offset: 0x88BC3, size: 0x8, addend: 0x0, symName: __RNCNCNvNtNtCsehVGFPP7CiK_11clap_derive5utils12doc_comments16split_paragraphs00B9_, symObjAddr: 0x6794, symBinAddr: 0x5318C, symSize: 0x48 }
  - { offset: 0x88BF9, size: 0x8, addend: 0x0, symName: __RNCNCNvNtNtCsehVGFPP7CiK_11clap_derive5utils12doc_comments16split_paragraphs0s_0B9_, symObjAddr: 0x67DC, symBinAddr: 0x531D4, symSize: 0x44 }
  - { offset: 0x88C3F, size: 0x8, addend: 0x0, symName: __RNvNtNtCsehVGFPP7CiK_11clap_derive5utils12doc_comments13remove_period, symObjAddr: 0x6820, symBinAddr: 0x53218, symSize: 0x13C }
  - { offset: 0x88C6C, size: 0x8, addend: 0x0, symName: __RNvNtNtCsehVGFPP7CiK_11clap_derive5utils12doc_comments8is_blank, symObjAddr: 0x695C, symBinAddr: 0x53354, symSize: 0x3C }
  - { offset: 0x88C98, size: 0x8, addend: 0x0, symName: __RINvNtNtCsehVGFPP7CiK_11clap_derive5utils12doc_comments11merge_linesRNtNtCs69QEzRJvHMp_5alloc6string6StringRSB15_EB6_, symObjAddr: 0x6998, symBinAddr: 0x53390, symSize: 0xB4 }
  - { offset: 0x88CDB, size: 0x8, addend: 0x0, symName: __RNCINvNtNtCsehVGFPP7CiK_11clap_derive5utils12doc_comments11merge_linesRNtNtCs69QEzRJvHMp_5alloc6string6StringRSB17_E0B8_, symObjAddr: 0x6A4C, symBinAddr: 0x53444, symSize: 0x90 }
  - { offset: 0x88DE5, size: 0x8, addend: 0x0, symName: __RNvNtNtCsehVGFPP7CiK_11clap_derive7derives8into_app14gen_for_struct, symObjAddr: 0x3810, symBinAddr: 0x50208, symSize: 0xFA4 }
  - { offset: 0x88FD0, size: 0x8, addend: 0x0, symName: __RNvNtNtCsehVGFPP7CiK_11clap_derive7derives8into_app12gen_for_enum, symObjAddr: 0x47B4, symBinAddr: 0x511AC, symSize: 0x1204 }
  - { offset: 0x895DA, size: 0x8, addend: 0x0, symName: __RINvMNtCsliVzVx4luf9_4core3stre12strip_prefixcECsehVGFPP7CiK_11clap_derive, symObjAddr: 0x0, symBinAddr: 0x4C9F8, symSize: 0x44 }
  - { offset: 0x89656, size: 0x8, addend: 0x0, symName: __RINvMNtCsliVzVx4luf9_4core3stre12trim_matchesNCNvB2_4trim0ECsehVGFPP7CiK_11clap_derive, symObjAddr: 0x44, symBinAddr: 0x4CA3C, symSize: 0x128 }
  - { offset: 0x8982B, size: 0x8, addend: 0x0, symName: __RINvMNtCsliVzVx4luf9_4core3stre9ends_withReECsehVGFPP7CiK_11clap_derive, symObjAddr: 0x16C, symBinAddr: 0x4CB64, symSize: 0x4C }
  - { offset: 0x89876, size: 0x8, addend: 0x0, symName: __RNCNvMNtCsliVzVx4luf9_4core3stre4trim0CsehVGFPP7CiK_11clap_derive, symObjAddr: 0x2B8C, symBinAddr: 0x4F584, symSize: 0x94 }
  - { offset: 0x898F1, size: 0x8, addend: 0x0, symName: __RNvMNtCsliVzVx4luf9_4core3stre3lenCsehVGFPP7CiK_11clap_derive, symObjAddr: 0x2C20, symBinAddr: 0x4F618, symSize: 0x1C }
  - { offset: 0x8991D, size: 0x8, addend: 0x0, symName: __RNvMNtCsliVzVx4luf9_4core3stre4trimCsehVGFPP7CiK_11clap_derive, symObjAddr: 0x2C3C, symBinAddr: 0x4F634, symSize: 0x28 }
  - { offset: 0x8996B, size: 0x8, addend: 0x0, symName: __RNvMNtCsliVzVx4luf9_4core3stre5charsCsehVGFPP7CiK_11clap_derive, symObjAddr: 0x2C64, symBinAddr: 0x4F65C, symSize: 0x38 }
  - { offset: 0x89AFE, size: 0x8, addend: 0x0, symName: __RNvMNtCsliVzVx4luf9_4core3stre8is_emptyCsehVGFPP7CiK_11clap_derive, symObjAddr: 0x2C9C, symBinAddr: 0x4F694, symSize: 0x1C }
  - { offset: 0x89BAE, size: 0x8, addend: 0x0, symName: __RNvNvXs5_NtNtCsliVzVx4luf9_4core3str6traitsINtNtNtBb_3ops5range5RangejEINtNtNtBb_5slice5index10SliceIndexeE13get_unchecked18precondition_checkCsehVGFPP7CiK_11clap_derive, symObjAddr: 0x2E60, symBinAddr: 0x4F858, symSize: 0x60 }
  - { offset: 0x89BF9, size: 0x8, addend: 0x0, symName: __RNvXs_NtNtCsliVzVx4luf9_4core3str6traitseNtNtB8_3cmp9PartialEq2eqCsehVGFPP7CiK_11clap_derive, symObjAddr: 0x2FCC, symBinAddr: 0x4F9C4, symSize: 0x64 }
  - { offset: 0x89CFC, size: 0x8, addend: 0x0, symName: __RNvXs3_NtNtCsliVzVx4luf9_4core3str7patternNCNvMB7_e4trim0NtB5_11MultiCharEq7matchesCsehVGFPP7CiK_11clap_derive, symObjAddr: 0x2F30, symBinAddr: 0x4F928, symSize: 0x28 }
  - { offset: 0x89D48, size: 0x8, addend: 0x0, symName: __RNvXsr_NtNtCsliVzVx4luf9_4core3str7patternNCNvMB7_e4trim0NtB5_7Pattern13into_searcherCsehVGFPP7CiK_11clap_derive, symObjAddr: 0x33DC, symBinAddr: 0x4FDD4, symSize: 0x48 }
  - { offset: 0x89DE9, size: 0x8, addend: 0x0, symName: __RNvXs_NtCsliVzVx4luf9_4core3streINtNtB6_7convert5AsRefShE6as_refCsehVGFPP7CiK_11clap_derive, symObjAddr: 0x2FB4, symBinAddr: 0x4F9AC, symSize: 0x18 }
  - { offset: 0x89ED5, size: 0x8, addend: 0x0, symName: __RNvXs2_NtNtNtCsliVzVx4luf9_4core3ops8function5implsQNCNCNvNtNtCsehVGFPP7CiK_11clap_derive5utils12doc_comments19extract_doc_comments1_00INtB7_6FnOnceTReEE9call_onceBY_, symObjAddr: 0x2EC0, symBinAddr: 0x4F8B8, symSize: 0x34 }
  - { offset: 0x89F24, size: 0x8, addend: 0x0, symName: __RNvXs2_NtNtNtCsliVzVx4luf9_4core3ops8function5implsQNCNvNtNtCsehVGFPP7CiK_11clap_derive5utils12doc_comments19extract_doc_comments1_0INtB7_6FnOnceTNtNtCs69QEzRJvHMp_5alloc6string6StringEE9call_onceBW_, symObjAddr: 0x2EF4, symBinAddr: 0x4F8EC, symSize: 0x3C }
  - { offset: 0x89F7A, size: 0x8, addend: 0x0, symName: __RNvYNCNkNvNtNtNtCs39eHfitSTy1_10proc_macro6bridge6client5state12BRIDGE_STATE0s_0INtNtNtCsliVzVx4luf9_4core3ops8function6FnOnceTINtNtB1n_6option6OptionQIB22_INtNtB1n_4cell4CellPuEEEEE9call_onceCsehVGFPP7CiK_11clap_derive, symObjAddr: 0x3424, symBinAddr: 0x4FE1C, symSize: 0x4C }
  - { offset: 0x89FBE, size: 0x8, addend: 0x0, symName: __RNvYNvMNtCsaxBLFzn74Hr_3syn10punctuatedINtB5_10PunctuatedNtNtCsehVGFPP7CiK_11clap_derive4attr8ClapAttrNtNtB7_5token5CommaE16parse_terminatedINtNtNtCsliVzVx4luf9_4core3ops8function6FnOnceTRNtNtB7_5parse11ParseBufferEE9call_onceBX_, symObjAddr: 0x35E8, symBinAddr: 0x4FFE0, symSize: 0x24 }
  - { offset: 0x8A002, size: 0x8, addend: 0x0, symName: __RNvYNvNtNtCsehVGFPP7CiK_11clap_derive5utils2ty8sub_typeINtNtNtCsliVzVx4luf9_4core3ops8function6FnOnceTRNtNtCsaxBLFzn74Hr_3syn2ty4TypeEE9call_onceB8_, symObjAddr: 0x363C, symBinAddr: 0x50034, symSize: 0x24 }
  - { offset: 0x8A046, size: 0x8, addend: 0x0, symName: __RNvYNvYINtNtNtCs69QEzRJvHMp_5alloc3vec9into_iter8IntoIterNtNtBc_6string6StringENtNtNtNtCsliVzVx4luf9_4core4iter6traits8iterator8Iterator4nextINtNtNtB1n_3ops8function6FnOnceTQB5_EE9call_onceCsehVGFPP7CiK_11clap_derive, symObjAddr: 0x3660, symBinAddr: 0x50058, symSize: 0x24 }
  - { offset: 0x8A08A, size: 0x8, addend: 0x0, symName: __RNvYNvYINtNtNtCs69QEzRJvHMp_5alloc3vec9into_iter8IntoIterNtNtBc_6string6StringENtNtNtNtCsliVzVx4luf9_4core4iter6traits8iterator8Iterator9size_hintINtNtNtB1n_3ops8function6FnOnceTRB5_EE9call_onceCsehVGFPP7CiK_11clap_derive, symObjAddr: 0x3684, symBinAddr: 0x5007C, symSize: 0x24 }
  - { offset: 0x8A0CE, size: 0x8, addend: 0x0, symName: __RNvYNvYNtNtCsaxBLFzn74Hr_3syn6derive11DeriveInputNtNtB9_5parse5Parse5parseINtNtNtCsliVzVx4luf9_4core3ops8function6FnOnceTRNtBN_11ParseBufferEE9call_onceCsehVGFPP7CiK_11clap_derive, symObjAddr: 0x36A8, symBinAddr: 0x500A0, symSize: 0x24 }
  - { offset: 0x8A112, size: 0x8, addend: 0x0, symName: __RNvYNvYNtNtNtCs39eHfitSTy1_10proc_macro6bridge3rpc12PanicMessageINtNtCsliVzVx4luf9_4core7convert4FromINtNtCs69QEzRJvHMp_5alloc5boxed3BoxDNtNtB15_3any3AnyNtNtB15_6marker4SendEL_EE4fromINtNtNtB15_3ops8function6FnOnceTB1B_EE9call_onceCsehVGFPP7CiK_11clap_derive, symObjAddr: 0x3754, symBinAddr: 0x5014C, symSize: 0x2C }
  - { offset: 0x8A15C, size: 0x8, addend: 0x0, symName: __RNvYNcNtINtNtNtCsliVzVx4luf9_4core3ops12control_flow11ControlFlowNtCs3vPhoADqSdK_11proc_macro211TokenStreamE5Break0INtNtBb_8function5FnMutTB11_EE8call_mutCsehVGFPP7CiK_11clap_derive, symObjAddr: 0x3470, symBinAddr: 0x4FE68, symSize: 0x38 }
  - { offset: 0x8A1A0, size: 0x8, addend: 0x0, symName: __RNvYNcNtINtNtNtCsliVzVx4luf9_4core3ops12control_flow11ControlFlowTRNtNtCsaxBLFzn74Hr_3syn4data5FieldNtNtCsehVGFPP7CiK_11clap_derive4item4ItemEE5Break0INtNtBb_8function5FnMutTB11_EE8call_mutB1E_, symObjAddr: 0x34A8, symBinAddr: 0x4FEA0, symSize: 0x50 }
  - { offset: 0x8A1E4, size: 0x8, addend: 0x0, symName: __RNvYNcNtINtNtNtCsliVzVx4luf9_4core3ops12control_flow11ControlFlowTRNtNtCsaxBLFzn74Hr_3syn4data7VariantNtNtCsehVGFPP7CiK_11clap_derive4item4ItemEE5Break0INtNtBb_8function5FnMutTB11_EE8call_mutB1G_, symObjAddr: 0x34F8, symBinAddr: 0x4FEF0, symSize: 0x50 }
  - { offset: 0x8A228, size: 0x8, addend: 0x0, symName: __RNvYNvMs9_NtCsliVzVx4luf9_4core3numj11checked_addINtNtNtBa_3ops8function5FnMutTjjEE8call_mutCsehVGFPP7CiK_11clap_derive, symObjAddr: 0x360C, symBinAddr: 0x50004, symSize: 0x30 }
  - { offset: 0x8A26C, size: 0x8, addend: 0x0, symName: __RNvYNvYTNtCs3vPhoADqSdK_11proc_macro211TokenStreamNtB8_5IdentENtNtCsliVzVx4luf9_4core5clone5Clone5cloneINtNtNtB12_3ops8function5FnMutTRB5_EE8call_mutCsehVGFPP7CiK_11clap_derive, symObjAddr: 0x3780, symBinAddr: 0x50178, symSize: 0x28 }
  - { offset: 0x8A2B6, size: 0x8, addend: 0x0, symName: __RNvYNvCsehVGFPP7CiK_11clap_derive10subcommandINtNtNtCsliVzVx4luf9_4core3ops8function2FnTNtCs39eHfitSTy1_10proc_macro11TokenStreamEE4callB4_, symObjAddr: 0x3548, symBinAddr: 0x4FF40, symSize: 0x28 }
  - { offset: 0x8A2FA, size: 0x8, addend: 0x0, symName: __RNvYNvCsehVGFPP7CiK_11clap_derive10value_enumINtNtNtCsliVzVx4luf9_4core3ops8function2FnTNtCs39eHfitSTy1_10proc_macro11TokenStreamEE4callB4_, symObjAddr: 0x3570, symBinAddr: 0x4FF68, symSize: 0x28 }
  - { offset: 0x8A33E, size: 0x8, addend: 0x0, symName: __RNvYNvCsehVGFPP7CiK_11clap_derive4argsINtNtNtCsliVzVx4luf9_4core3ops8function2FnTNtCs39eHfitSTy1_10proc_macro11TokenStreamEE4callB4_, symObjAddr: 0x3598, symBinAddr: 0x4FF90, symSize: 0x28 }
  - { offset: 0x8A382, size: 0x8, addend: 0x0, symName: __RNvYNvCsehVGFPP7CiK_11clap_derive6parserINtNtNtCsliVzVx4luf9_4core3ops8function2FnTNtCs39eHfitSTy1_10proc_macro11TokenStreamEE4callB4_, symObjAddr: 0x35C0, symBinAddr: 0x4FFB8, symSize: 0x28 }
  - { offset: 0x8A657, size: 0x8, addend: 0x0, symName: __RNvNvMNtNtCsliVzVx4luf9_4core3ptr9const_ptrPp7sub_ptr18precondition_checkCsehVGFPP7CiK_11clap_derive, symObjAddr: 0x2E04, symBinAddr: 0x4F7FC, symSize: 0x40 }
  - { offset: 0x8B3C0, size: 0x8, addend: 0x0, symName: __RINvNtCsliVzVx4luf9_4core3ptr13drop_in_placeDNtNtB4_5error5ErrorNtNtB4_6marker4SyncNtB12_4SendEL_ECsehVGFPP7CiK_11clap_derive, symObjAddr: 0x220, symBinAddr: 0x4CC18, symSize: 0x48 }
  - { offset: 0x8B3EF, size: 0x8, addend: 0x0, symName: __RINvNtCsliVzVx4luf9_4core3ptr13drop_in_placeINtNtB4_4cell10UnsafeCellNtNtNtCs39eHfitSTy1_10proc_macro6bridge6client6BridgeEECsehVGFPP7CiK_11clap_derive, symObjAddr: 0x268, symBinAddr: 0x4CC60, symSize: 0x24 }
  - { offset: 0x8B41E, size: 0x8, addend: 0x0, symName: __RINvNtCsliVzVx4luf9_4core3ptr13drop_in_placeINtNtB4_4cell7RefCellNtNtNtCs39eHfitSTy1_10proc_macro6bridge6client6BridgeEECsehVGFPP7CiK_11clap_derive, symObjAddr: 0x28C, symBinAddr: 0x4CC84, symSize: 0x24 }
  - { offset: 0x8B44D, size: 0x8, addend: 0x0, symName: __RINvNtCsliVzVx4luf9_4core3ptr13drop_in_placeINtNtB4_6option4ItemNtNtCsaxBLFzn74Hr_3syn4expr4ExprEECsehVGFPP7CiK_11clap_derive, symObjAddr: 0x2B0, symBinAddr: 0x4CCA8, symSize: 0x24 }
  - { offset: 0x8B47C, size: 0x8, addend: 0x0, symName: __RINvNtCsliVzVx4luf9_4core3ptr13drop_in_placeINtNtB4_6option4ItemNtNtCsehVGFPP7CiK_11clap_derive4attr8ClapAttrEEB14_, symObjAddr: 0x2D4, symBinAddr: 0x4CCCC, symSize: 0x24 }
  - { offset: 0x8B4AB, size: 0x8, addend: 0x0, symName: __RINvNtCsliVzVx4luf9_4core3ptr13drop_in_placeINtNtB4_6option6OptionINtNtB4_6result6ResultNtNtB4_7convert10InfallibleNtNtCsaxBLFzn74Hr_3syn5error5ErrorEEECsehVGFPP7CiK_11clap_derive, symObjAddr: 0x2F8, symBinAddr: 0x4CCF0, symSize: 0x48 }
  - { offset: 0x8B4DA, size: 0x8, addend: 0x0, symName: __RINvNtCsliVzVx4luf9_4core3ptr13drop_in_placeINtNtB4_6option6OptionINtNtCs69QEzRJvHMp_5alloc5boxed3BoxNtNtCsehVGFPP7CiK_11clap_derive4attr8ClapAttrEEEB1F_, symObjAddr: 0x340, symBinAddr: 0x4CD38, symSize: 0x44 }
  - { offset: 0x8B509, size: 0x8, addend: 0x0, symName: __RINvNtCsliVzVx4luf9_4core3ptr13drop_in_placeINtNtB4_6option6OptionINtNtNtCs69QEzRJvHMp_5alloc3vec9into_iter8IntoIterNtNtB19_6string6StringEEECsehVGFPP7CiK_11clap_derive, symObjAddr: 0x384, symBinAddr: 0x4CD7C, symSize: 0x44 }
  - { offset: 0x8B538, size: 0x8, addend: 0x0, symName: __RINvNtCsliVzVx4luf9_4core3ptr13drop_in_placeINtNtB4_6option6OptionNtNtCsehVGFPP7CiK_11clap_derive4attr8ClapAttrEEB16_, symObjAddr: 0x3C8, symBinAddr: 0x4CDC0, symSize: 0x44 }
  - { offset: 0x8B567, size: 0x8, addend: 0x0, symName: __RINvNtCsliVzVx4luf9_4core3ptr13drop_in_placeINtNtB4_6option6OptionNtNtCsehVGFPP7CiK_11clap_derive4attr9AttrValueEEB16_, symObjAddr: 0x40C, symBinAddr: 0x4CE04, symSize: 0x44 }
  - { offset: 0x8B596, size: 0x8, addend: 0x0, symName: __RINvNtCsliVzVx4luf9_4core3ptr13drop_in_placeINtNtB4_6option6OptionNtNtCsehVGFPP7CiK_11clap_derive4item11ValueParserEEB16_, symObjAddr: 0x450, symBinAddr: 0x4CE48, symSize: 0x4C }
  - { offset: 0x8B5C5, size: 0x8, addend: 0x0, symName: __RINvNtCsliVzVx4luf9_4core3ptr13drop_in_placeINtNtB4_6option6OptionNtNtCsehVGFPP7CiK_11clap_derive4item6ActionEEB16_, symObjAddr: 0x49C, symBinAddr: 0x4CE94, symSize: 0x4C }
  - { offset: 0x8B5F4, size: 0x8, addend: 0x0, symName: __RINvNtCsliVzVx4luf9_4core3ptr13drop_in_placeINtNtB4_6option6OptionNtNtCsehVGFPP7CiK_11clap_derive4item6MethodEEB16_, symObjAddr: 0x4E8, symBinAddr: 0x4CEE0, symSize: 0x48 }
  - { offset: 0x8B623, size: 0x8, addend: 0x0, symName: __RINvNtCsliVzVx4luf9_4core3ptr13drop_in_placeINtNtB4_6option6OptionTNtCs3vPhoADqSdK_11proc_macro24SpanRNtB15_5IdentNtB15_11TokenStreamEEECsehVGFPP7CiK_11clap_derive, symObjAddr: 0x530, symBinAddr: 0x4CF28, symSize: 0x48 }
  - { offset: 0x8B652, size: 0x8, addend: 0x0, symName: __RINvNtCsliVzVx4luf9_4core3ptr13drop_in_placeINtNtB4_6option6OptionTRNtNtCsaxBLFzn74Hr_3syn4data5FieldNtNtCsehVGFPP7CiK_11clap_derive4item4ItemEEEB1F_, symObjAddr: 0x578, symBinAddr: 0x4CF70, symSize: 0x44 }
  - { offset: 0x8B681, size: 0x8, addend: 0x0, symName: __RINvNtCsliVzVx4luf9_4core3ptr13drop_in_placeINtNtB4_6option6OptionTRNtNtCsaxBLFzn74Hr_3syn4data7VariantNtNtCsehVGFPP7CiK_11clap_derive4item4ItemEEEB1H_, symObjAddr: 0x5BC, symBinAddr: 0x4CFB4, symSize: 0x44 }
  - { offset: 0x8B6B0, size: 0x8, addend: 0x0, symName: __RINvNtCsliVzVx4luf9_4core3ptr13drop_in_placeINtNtB4_6option8IntoIterNtNtCsaxBLFzn74Hr_3syn4expr4ExprEECsehVGFPP7CiK_11clap_derive, symObjAddr: 0x600, symBinAddr: 0x4CFF8, symSize: 0x24 }
  - { offset: 0x8B6DF, size: 0x8, addend: 0x0, symName: __RINvNtCsliVzVx4luf9_4core3ptr13drop_in_placeINtNtB4_6option8IntoIterNtNtCsehVGFPP7CiK_11clap_derive4attr8ClapAttrEEB18_, symObjAddr: 0x624, symBinAddr: 0x4D01C, symSize: 0x24 }
  - { offset: 0x8B70E, size: 0x8, addend: 0x0, symName: __RINvNtCsliVzVx4luf9_4core3ptr13drop_in_placeINtNtB4_6result6ResultNtNtB4_7convert10InfallibleNtNtCsaxBLFzn74Hr_3syn5error5ErrorEECsehVGFPP7CiK_11clap_derive, symObjAddr: 0x648, symBinAddr: 0x4D040, symSize: 0x30 }
  - { offset: 0x8B73D, size: 0x8, addend: 0x0, symName: __RINvNtCsliVzVx4luf9_4core3ptr13drop_in_placeINtNtB4_6result6ResultNtNtCs69QEzRJvHMp_5alloc6string6StringNtNtCs6P7HZtpS3La_3std3env8VarErrorEECsehVGFPP7CiK_11clap_derive, symObjAddr: 0x678, symBinAddr: 0x4D070, symSize: 0x50 }
  - { offset: 0x8B76C, size: 0x8, addend: 0x0, symName: __RINvNtCsliVzVx4luf9_4core3ptr13drop_in_placeINtNtB4_6result6ResultNtNtCsaxBLFzn74Hr_3syn4expr4ExprNtNtB16_5error5ErrorEECsehVGFPP7CiK_11clap_derive, symObjAddr: 0x6C8, symBinAddr: 0x4D0C0, symSize: 0x58 }
  - { offset: 0x8B79B, size: 0x8, addend: 0x0, symName: __RINvNtCsliVzVx4luf9_4core3ptr13drop_in_placeINtNtCs5Bhy1SxosHa_5quote9___private9RepInterpNtCs3vPhoADqSdK_11proc_macro211TokenStreamEECsehVGFPP7CiK_11clap_derive, symObjAddr: 0x720, symBinAddr: 0x4D118, symSize: 0x24 }
  - { offset: 0x8B7CA, size: 0x8, addend: 0x0, symName: __RINvNtCsliVzVx4luf9_4core3ptr13drop_in_placeINtNtCs69QEzRJvHMp_5alloc3vec3VecINtNtB4_6option6OptionNtCs3vPhoADqSdK_11proc_macro211TokenStreamEEECsehVGFPP7CiK_11clap_derive, symObjAddr: 0x744, symBinAddr: 0x4D13C, symSize: 0x5C }
  - { offset: 0x8B7F9, size: 0x8, addend: 0x0, symName: __RINvNtCsliVzVx4luf9_4core3ptr13drop_in_placeINtNtCs69QEzRJvHMp_5alloc3vec3VecNtCs3vPhoADqSdK_11proc_macro211TokenStreamEECsehVGFPP7CiK_11clap_derive, symObjAddr: 0x7A0, symBinAddr: 0x4D198, symSize: 0x5C }
  - { offset: 0x8B828, size: 0x8, addend: 0x0, symName: __RINvNtCsliVzVx4luf9_4core3ptr13drop_in_placeINtNtCs69QEzRJvHMp_5alloc3vec3VecNtCs3vPhoADqSdK_11proc_macro25IdentEECsehVGFPP7CiK_11clap_derive, symObjAddr: 0x7FC, symBinAddr: 0x4D1F4, symSize: 0x5C }
  - { offset: 0x8B857, size: 0x8, addend: 0x0, symName: __RINvNtCsliVzVx4luf9_4core3ptr13drop_in_placeINtNtCs69QEzRJvHMp_5alloc3vec3VecNtNtBL_6string6StringEECsehVGFPP7CiK_11clap_derive, symObjAddr: 0x858, symBinAddr: 0x4D250, symSize: 0x5C }
  - { offset: 0x8B886, size: 0x8, addend: 0x0, symName: __RINvNtCsliVzVx4luf9_4core3ptr13drop_in_placeINtNtCs69QEzRJvHMp_5alloc3vec3VecNtNtCsaxBLFzn74Hr_3syn4expr4ExprEECsehVGFPP7CiK_11clap_derive, symObjAddr: 0x8B4, symBinAddr: 0x4D2AC, symSize: 0x5C }
  - { offset: 0x8B8B5, size: 0x8, addend: 0x0, symName: __RINvNtCsliVzVx4luf9_4core3ptr13drop_in_placeINtNtCs69QEzRJvHMp_5alloc3vec3VecNtNtCsehVGFPP7CiK_11clap_derive4attr8ClapAttrEEB1h_, symObjAddr: 0x910, symBinAddr: 0x4D308, symSize: 0x5C }
  - { offset: 0x8B8E4, size: 0x8, addend: 0x0, symName: __RINvNtCsliVzVx4luf9_4core3ptr13drop_in_placeINtNtCs69QEzRJvHMp_5alloc3vec3VecNtNtCsehVGFPP7CiK_11clap_derive4item11DeprecationEEB1h_, symObjAddr: 0x96C, symBinAddr: 0x4D364, symSize: 0x5C }
  - { offset: 0x8B913, size: 0x8, addend: 0x0, symName: __RINvNtCsliVzVx4luf9_4core3ptr13drop_in_placeINtNtCs69QEzRJvHMp_5alloc3vec3VecNtNtCsehVGFPP7CiK_11clap_derive4item6MethodEEB1h_, symObjAddr: 0x9C8, symBinAddr: 0x4D3C0, symSize: 0x5C }
  - { offset: 0x8B942, size: 0x8, addend: 0x0, symName: __RINvNtCsliVzVx4luf9_4core3ptr13drop_in_placeINtNtCs69QEzRJvHMp_5alloc3vec3VecRNtCs3vPhoADqSdK_11proc_macro25IdentEECsehVGFPP7CiK_11clap_derive, symObjAddr: 0xA24, symBinAddr: 0x4D41C, symSize: 0x5C }
  - { offset: 0x8B971, size: 0x8, addend: 0x0, symName: __RINvNtCsliVzVx4luf9_4core3ptr13drop_in_placeINtNtCs69QEzRJvHMp_5alloc3vec3VecRNtNtCsehVGFPP7CiK_11clap_derive4item4NameEEB1i_, symObjAddr: 0xA80, symBinAddr: 0x4D478, symSize: 0x5C }
  - { offset: 0x8B9A0, size: 0x8, addend: 0x0, symName: __RINvNtCsliVzVx4luf9_4core3ptr13drop_in_placeINtNtCs69QEzRJvHMp_5alloc3vec3VecTNtCs3vPhoADqSdK_11proc_macro211TokenStreamNtB1g_5IdentEEECsehVGFPP7CiK_11clap_derive, symObjAddr: 0xADC, symBinAddr: 0x4D4D4, symSize: 0x5C }
  - { offset: 0x8B9CF, size: 0x8, addend: 0x0, symName: __RINvNtCsliVzVx4luf9_4core3ptr13drop_in_placeINtNtCs69QEzRJvHMp_5alloc3vec3VecTNtNtCsehVGFPP7CiK_11clap_derive4attr8ClapAttrNtNtCsaxBLFzn74Hr_3syn5token5CommaEEEB1i_, symObjAddr: 0xB38, symBinAddr: 0x4D530, symSize: 0x5C }
  - { offset: 0x8B9FE, size: 0x8, addend: 0x0, symName: __RINvNtCsliVzVx4luf9_4core3ptr13drop_in_placeINtNtCs69QEzRJvHMp_5alloc3vec3VecTRNtNtCsaxBLFzn74Hr_3syn4data5FieldNtNtCsehVGFPP7CiK_11clap_derive4item4ItemEEEB1Q_, symObjAddr: 0xB94, symBinAddr: 0x4D58C, symSize: 0x5C }
  - { offset: 0x8BA2D, size: 0x8, addend: 0x0, symName: __RINvNtCsliVzVx4luf9_4core3ptr13drop_in_placeINtNtCs69QEzRJvHMp_5alloc3vec3VecTRNtNtCsaxBLFzn74Hr_3syn4data7VariantNtNtCsehVGFPP7CiK_11clap_derive4item4ItemEEEB1S_, symObjAddr: 0xBF0, symBinAddr: 0x4D5E8, symSize: 0x5C }
  - { offset: 0x8BA5C, size: 0x8, addend: 0x0, symName: __RINvNtCsliVzVx4luf9_4core3ptr13drop_in_placeINtNtCs69QEzRJvHMp_5alloc3vec3VecTRRNtNtCsaxBLFzn74Hr_3syn4data7VariantRNtNtCsehVGFPP7CiK_11clap_derive4item4ItemEEEB1U_, symObjAddr: 0xC4C, symBinAddr: 0x4D644, symSize: 0x5C }
  - { offset: 0x8BA8B, size: 0x8, addend: 0x0, symName: __RINvNtCsliVzVx4luf9_4core3ptr13drop_in_placeINtNtCs69QEzRJvHMp_5alloc5boxed3BoxDNtNtB4_5error5ErrorNtNtB4_6marker4SyncNtB1B_4SendEL_EECsehVGFPP7CiK_11clap_derive, symObjAddr: 0xCA8, symBinAddr: 0x4D6A0, symSize: 0x80 }
  - { offset: 0x8BABA, size: 0x8, addend: 0x0, symName: __RINvNtCsliVzVx4luf9_4core3ptr13drop_in_placeINtNtCs69QEzRJvHMp_5alloc5boxed3BoxINtNtCsaxBLFzn74Hr_3syn5drops6NoDropDINtNtB1k_10punctuated9IterTraitNtNtB1k_4data7VariantEp4ItemRB2l_EL_EEECsehVGFPP7CiK_11clap_derive, symObjAddr: 0xD28, symBinAddr: 0x4D720, symSize: 0x2C }
  - { offset: 0x8BAE9, size: 0x8, addend: 0x0, symName: __RINvNtCsliVzVx4luf9_4core3ptr13drop_in_placeINtNtCs69QEzRJvHMp_5alloc5boxed3BoxINtNtCsaxBLFzn74Hr_3syn5drops6NoDropDINtNtB1k_10punctuated9IterTraitNtNtB1k_4path15GenericArgumentEp4ItemRB2l_EL_EEECsehVGFPP7CiK_11clap_derive, symObjAddr: 0xD54, symBinAddr: 0x4D74C, symSize: 0x2C }
  - { offset: 0x8BB18, size: 0x8, addend: 0x0, symName: __RINvNtCsliVzVx4luf9_4core3ptr13drop_in_placeINtNtCs69QEzRJvHMp_5alloc5boxed3BoxNtNtCsehVGFPP7CiK_11clap_derive4attr8ClapAttrEEB1j_, symObjAddr: 0xD80, symBinAddr: 0x4D778, symSize: 0x60 }
  - { offset: 0x8BB47, size: 0x8, addend: 0x0, symName: __RINvNtCsliVzVx4luf9_4core3ptr13drop_in_placeINtNtCs69QEzRJvHMp_5alloc5boxed3BoxNtNtNtCs6P7HZtpS3La_3std2io5error6CustomEECsehVGFPP7CiK_11clap_derive, symObjAddr: 0xDE0, symBinAddr: 0x4D7D8, symSize: 0x60 }
  - { offset: 0x8BB76, size: 0x8, addend: 0x0, symName: __RINvNtCsliVzVx4luf9_4core3ptr13drop_in_placeINtNtCs69QEzRJvHMp_5alloc7raw_vec6RawVecINtNtB4_6option6OptionNtCs3vPhoADqSdK_11proc_macro211TokenStreamEEECsehVGFPP7CiK_11clap_derive, symObjAddr: 0xE40, symBinAddr: 0x4D838, symSize: 0x24 }
  - { offset: 0x8BBA5, size: 0x8, addend: 0x0, symName: __RINvNtCsliVzVx4luf9_4core3ptr13drop_in_placeINtNtCs69QEzRJvHMp_5alloc7raw_vec6RawVecNtCs3vPhoADqSdK_11proc_macro211TokenStreamEECsehVGFPP7CiK_11clap_derive, symObjAddr: 0xE64, symBinAddr: 0x4D85C, symSize: 0x24 }
  - { offset: 0x8BBD4, size: 0x8, addend: 0x0, symName: __RINvNtCsliVzVx4luf9_4core3ptr13drop_in_placeINtNtCs69QEzRJvHMp_5alloc7raw_vec6RawVecNtCs3vPhoADqSdK_11proc_macro25IdentEECsehVGFPP7CiK_11clap_derive, symObjAddr: 0xE88, symBinAddr: 0x4D880, symSize: 0x24 }
  - { offset: 0x8BC03, size: 0x8, addend: 0x0, symName: __RINvNtCsliVzVx4luf9_4core3ptr13drop_in_placeINtNtCs69QEzRJvHMp_5alloc7raw_vec6RawVecNtNtBL_6string6StringEECsehVGFPP7CiK_11clap_derive, symObjAddr: 0xEAC, symBinAddr: 0x4D8A4, symSize: 0x24 }
  - { offset: 0x8BC32, size: 0x8, addend: 0x0, symName: __RINvNtCsliVzVx4luf9_4core3ptr13drop_in_placeINtNtCs69QEzRJvHMp_5alloc7raw_vec6RawVecNtNtCsaxBLFzn74Hr_3syn4expr4ExprEECsehVGFPP7CiK_11clap_derive, symObjAddr: 0xED0, symBinAddr: 0x4D8C8, symSize: 0x24 }
  - { offset: 0x8BC61, size: 0x8, addend: 0x0, symName: __RINvNtCsliVzVx4luf9_4core3ptr13drop_in_placeINtNtCs69QEzRJvHMp_5alloc7raw_vec6RawVecNtNtCsehVGFPP7CiK_11clap_derive4attr8ClapAttrEEB1o_, symObjAddr: 0xEF4, symBinAddr: 0x4D8EC, symSize: 0x24 }
  - { offset: 0x8BC90, size: 0x8, addend: 0x0, symName: __RINvNtCsliVzVx4luf9_4core3ptr13drop_in_placeINtNtCs69QEzRJvHMp_5alloc7raw_vec6RawVecNtNtCsehVGFPP7CiK_11clap_derive4item11DeprecationEEB1o_, symObjAddr: 0xF18, symBinAddr: 0x4D910, symSize: 0x24 }
  - { offset: 0x8BCBF, size: 0x8, addend: 0x0, symName: __RINvNtCsliVzVx4luf9_4core3ptr13drop_in_placeINtNtCs69QEzRJvHMp_5alloc7raw_vec6RawVecNtNtCsehVGFPP7CiK_11clap_derive4item6MethodEEB1o_, symObjAddr: 0xF3C, symBinAddr: 0x4D934, symSize: 0x24 }
  - { offset: 0x8BCEE, size: 0x8, addend: 0x0, symName: __RINvNtCsliVzVx4luf9_4core3ptr13drop_in_placeINtNtCs69QEzRJvHMp_5alloc7raw_vec6RawVecRNtCs3vPhoADqSdK_11proc_macro25IdentEECsehVGFPP7CiK_11clap_derive, symObjAddr: 0xF60, symBinAddr: 0x4D958, symSize: 0x24 }
  - { offset: 0x8BD1D, size: 0x8, addend: 0x0, symName: __RINvNtCsliVzVx4luf9_4core3ptr13drop_in_placeINtNtCs69QEzRJvHMp_5alloc7raw_vec6RawVecRNtNtCsehVGFPP7CiK_11clap_derive4item4NameEEB1p_, symObjAddr: 0xF84, symBinAddr: 0x4D97C, symSize: 0x24 }
  - { offset: 0x8BD4C, size: 0x8, addend: 0x0, symName: __RINvNtCsliVzVx4luf9_4core3ptr13drop_in_placeINtNtCs69QEzRJvHMp_5alloc7raw_vec6RawVecTNtCs3vPhoADqSdK_11proc_macro211TokenStreamNtB1n_5IdentEEECsehVGFPP7CiK_11clap_derive, symObjAddr: 0xFA8, symBinAddr: 0x4D9A0, symSize: 0x24 }
  - { offset: 0x8BD7B, size: 0x8, addend: 0x0, symName: __RINvNtCsliVzVx4luf9_4core3ptr13drop_in_placeINtNtCs69QEzRJvHMp_5alloc7raw_vec6RawVecTNtNtCsehVGFPP7CiK_11clap_derive4attr8ClapAttrNtNtCsaxBLFzn74Hr_3syn5token5CommaEEEB1p_, symObjAddr: 0xFCC, symBinAddr: 0x4D9C4, symSize: 0x24 }
  - { offset: 0x8BDAA, size: 0x8, addend: 0x0, symName: __RINvNtCsliVzVx4luf9_4core3ptr13drop_in_placeINtNtCs69QEzRJvHMp_5alloc7raw_vec6RawVecTRNtNtCsaxBLFzn74Hr_3syn4data5FieldNtNtCsehVGFPP7CiK_11clap_derive4item4ItemEEEB1X_, symObjAddr: 0xFF0, symBinAddr: 0x4D9E8, symSize: 0x24 }
  - { offset: 0x8BDD9, size: 0x8, addend: 0x0, symName: __RINvNtCsliVzVx4luf9_4core3ptr13drop_in_placeINtNtCs69QEzRJvHMp_5alloc7raw_vec6RawVecTRNtNtCsaxBLFzn74Hr_3syn4data7VariantNtNtCsehVGFPP7CiK_11clap_derive4item4ItemEEEB1Z_, symObjAddr: 0x1014, symBinAddr: 0x4DA0C, symSize: 0x24 }
  - { offset: 0x8BE08, size: 0x8, addend: 0x0, symName: __RINvNtCsliVzVx4luf9_4core3ptr13drop_in_placeINtNtCs69QEzRJvHMp_5alloc7raw_vec6RawVecTRRNtNtCsaxBLFzn74Hr_3syn4data7VariantRNtNtCsehVGFPP7CiK_11clap_derive4item4ItemEEEB21_, symObjAddr: 0x1038, symBinAddr: 0x4DA30, symSize: 0x24 }
  - { offset: 0x8BE37, size: 0x8, addend: 0x0, symName: __RINvNtCsliVzVx4luf9_4core3ptr13drop_in_placeINtNtCsaxBLFzn74Hr_3syn10punctuated10PunctuatedNtNtCsehVGFPP7CiK_11clap_derive4attr8ClapAttrNtNtBL_5token5CommaEEB1v_, symObjAddr: 0x105C, symBinAddr: 0x4DA54, symSize: 0x60 }
  - { offset: 0x8BE66, size: 0x8, addend: 0x0, symName: __RINvNtCsliVzVx4luf9_4core3ptr13drop_in_placeINtNtCsaxBLFzn74Hr_3syn10punctuated11PrivateIterNtNtBL_4data7VariantNtNtBL_5token5CommaEECsehVGFPP7CiK_11clap_derive, symObjAddr: 0x10BC, symBinAddr: 0x4DAB4, symSize: 0x10 }
  - { offset: 0x8BE95, size: 0x8, addend: 0x0, symName: __RINvNtCsliVzVx4luf9_4core3ptr13drop_in_placeINtNtCsaxBLFzn74Hr_3syn10punctuated11PrivateIterNtNtBL_4path15GenericArgumentNtNtBL_5token5CommaEECsehVGFPP7CiK_11clap_derive, symObjAddr: 0x10CC, symBinAddr: 0x4DAC4, symSize: 0x10 }
  - { offset: 0x8BEC4, size: 0x8, addend: 0x0, symName: __RINvNtCsliVzVx4luf9_4core3ptr13drop_in_placeINtNtCsaxBLFzn74Hr_3syn10punctuated4IterNtNtBL_4data7VariantEECsehVGFPP7CiK_11clap_derive, symObjAddr: 0x10DC, symBinAddr: 0x4DAD4, symSize: 0x24 }
  - { offset: 0x8BEF3, size: 0x8, addend: 0x0, symName: __RINvNtCsliVzVx4luf9_4core3ptr13drop_in_placeINtNtCsaxBLFzn74Hr_3syn10punctuated4IterNtNtBL_4path15GenericArgumentEECsehVGFPP7CiK_11clap_derive, symObjAddr: 0x1100, symBinAddr: 0x4DAF8, symSize: 0x24 }
  - { offset: 0x8BF22, size: 0x8, addend: 0x0, symName: __RINvNtCsliVzVx4luf9_4core3ptr13drop_in_placeINtNtCsaxBLFzn74Hr_3syn10punctuated8IntoIterNtNtBL_4expr4ExprEECsehVGFPP7CiK_11clap_derive, symObjAddr: 0x1124, symBinAddr: 0x4DB1C, symSize: 0x24 }
  - { offset: 0x8BF51, size: 0x8, addend: 0x0, symName: __RINvNtCsliVzVx4luf9_4core3ptr13drop_in_placeINtNtCsaxBLFzn74Hr_3syn10punctuated8IntoIterNtNtCsehVGFPP7CiK_11clap_derive4attr8ClapAttrEEB1s_, symObjAddr: 0x1148, symBinAddr: 0x4DB40, symSize: 0x24 }
  - { offset: 0x8BF80, size: 0x8, addend: 0x0, symName: __RINvNtCsliVzVx4luf9_4core3ptr13drop_in_placeINtNtNtB4_3ops12control_flow11ControlFlowNtCs3vPhoADqSdK_11proc_macro211TokenStreamEECsehVGFPP7CiK_11clap_derive, symObjAddr: 0x116C, symBinAddr: 0x4DB64, symSize: 0x48 }
  - { offset: 0x8BFAF, size: 0x8, addend: 0x0, symName: __RINvNtCsliVzVx4luf9_4core3ptr13drop_in_placeINtNtNtB4_3ops12control_flow11ControlFlowNtNtCs69QEzRJvHMp_5alloc6string6StringEECsehVGFPP7CiK_11clap_derive, symObjAddr: 0x11B4, symBinAddr: 0x4DBAC, symSize: 0x48 }
  - { offset: 0x8BFDE, size: 0x8, addend: 0x0, symName: __RINvNtCsliVzVx4luf9_4core3ptr13drop_in_placeINtNtNtB4_3ops12control_flow11ControlFlowTRNtNtCsaxBLFzn74Hr_3syn4data5FieldNtNtCsehVGFPP7CiK_11clap_derive4item4ItemEEEB1Y_, symObjAddr: 0x11FC, symBinAddr: 0x4DBF4, symSize: 0x44 }
  - { offset: 0x8C00D, size: 0x8, addend: 0x0, symName: __RINvNtCsliVzVx4luf9_4core3ptr13drop_in_placeINtNtNtB4_3ops12control_flow11ControlFlowTRNtNtCsaxBLFzn74Hr_3syn4data7VariantNtNtCsehVGFPP7CiK_11clap_derive4item4ItemEEEB20_, symObjAddr: 0x1240, symBinAddr: 0x4DC38, symSize: 0x44 }
  - { offset: 0x8C03C, size: 0x8, addend: 0x0, symName: __RINvNtCsliVzVx4luf9_4core3ptr13drop_in_placeINtNtNtB4_4iter8adapters12GenericShuntINtNtBJ_3map3MapINtNtCsaxBLFzn74Hr_3syn10punctuated4IterNtNtB1D_4data5FieldENCNvNtNtCsehVGFPP7CiK_11clap_derive7derives4args11derive_args0EINtNtB4_6result6ResultNtNtB4_7convert10InfallibleNtNtB1D_5error5ErrorEEEB2E_, symObjAddr: 0x1284, symBinAddr: 0x4DC7C, symSize: 0x24 }
  - { offset: 0x8C06B, size: 0x8, addend: 0x0, symName: __RINvNtCsliVzVx4luf9_4core3ptr13drop_in_placeINtNtNtB4_4iter8adapters12GenericShuntINtNtBJ_3map3MapINtNtCsaxBLFzn74Hr_3syn10punctuated4IterNtNtB1D_4data5FieldENCNvNtNtCsehVGFPP7CiK_11clap_derive7derives4args19collect_args_fields0EINtNtB4_6result6ResultNtNtB4_7convert10InfallibleNtNtB1D_5error5ErrorEEEB2E_, symObjAddr: 0x12A8, symBinAddr: 0x4DCA0, symSize: 0x24 }
  - { offset: 0x8C09A, size: 0x8, addend: 0x0, symName: __RINvNtCsliVzVx4luf9_4core3ptr13drop_in_placeINtNtNtB4_4iter8adapters12GenericShuntINtNtBJ_3map3MapINtNtCsaxBLFzn74Hr_3syn10punctuated4IterNtNtB1D_4data5FieldENCNvNtNtCsehVGFPP7CiK_11clap_derive7derives6parser13derive_parser0EINtNtB4_6result6ResultNtNtB4_7convert10InfallibleNtNtB1D_5error5ErrorEEEB2E_, symObjAddr: 0x12CC, symBinAddr: 0x4DCC4, symSize: 0x24 }
  - { offset: 0x8C0C9, size: 0x8, addend: 0x0, symName: __RINvNtCsliVzVx4luf9_4core3ptr13drop_in_placeINtNtNtB4_4iter8adapters12GenericShuntINtNtBJ_3map3MapINtNtCsaxBLFzn74Hr_3syn10punctuated4IterNtNtB1D_4data7VariantENCNvNtNtCsehVGFPP7CiK_11clap_derive7derives10subcommand17derive_subcommand0EINtNtB4_6result6ResultNtNtB4_7convert10InfallibleNtNtB1D_5error5ErrorEEEB2G_, symObjAddr: 0x12F0, symBinAddr: 0x4DCE8, symSize: 0x24 }
  - { offset: 0x8C0F8, size: 0x8, addend: 0x0, symName: __RINvNtCsliVzVx4luf9_4core3ptr13drop_in_placeINtNtNtB4_4iter8adapters12GenericShuntINtNtBJ_3map3MapINtNtCsaxBLFzn74Hr_3syn10punctuated4IterNtNtB1D_4data7VariantENCNvNtNtCsehVGFPP7CiK_11clap_derive7derives6parser13derive_parsers_0EINtNtB4_6result6ResultNtNtB4_7convert10InfallibleNtNtB1D_5error5ErrorEEEB2G_, symObjAddr: 0x1314, symBinAddr: 0x4DD0C, symSize: 0x24 }
  - { offset: 0x8C127, size: 0x8, addend: 0x0, symName: __RINvNtCsliVzVx4luf9_4core3ptr13drop_in_placeINtNtNtCs69QEzRJvHMp_5alloc3vec9into_iter8IntoIterNtNtBN_6string6StringEECsehVGFPP7CiK_11clap_derive, symObjAddr: 0x1338, symBinAddr: 0x4DD30, symSize: 0x24 }
  - { offset: 0x8C156, size: 0x8, addend: 0x0, symName: __RINvNtCsliVzVx4luf9_4core3ptr13drop_in_placeINtNtNtCs69QEzRJvHMp_5alloc3vec9into_iter8IntoIterNtNtCsaxBLFzn74Hr_3syn4expr4ExprEECsehVGFPP7CiK_11clap_derive, symObjAddr: 0x135C, symBinAddr: 0x4DD54, symSize: 0x24 }
  - { offset: 0x8C185, size: 0x8, addend: 0x0, symName: __RINvNtCsliVzVx4luf9_4core3ptr13drop_in_placeINtNtNtCs69QEzRJvHMp_5alloc3vec9into_iter8IntoIterNtNtCsehVGFPP7CiK_11clap_derive4attr8ClapAttrEEB1y_, symObjAddr: 0x1380, symBinAddr: 0x4DD78, symSize: 0x24 }
  - { offset: 0x8C1B4, size: 0x8, addend: 0x0, symName: __RINvNtCsliVzVx4luf9_4core3ptr13drop_in_placeINtNtNtCs69QEzRJvHMp_5alloc3vec9into_iter8IntoIterTNtNtCsaxBLFzn74Hr_3syn4expr4ExprNtNtB1z_5token5CommaEEECsehVGFPP7CiK_11clap_derive, symObjAddr: 0x13A4, symBinAddr: 0x4DD9C, symSize: 0x24 }
  - { offset: 0x8C1E3, size: 0x8, addend: 0x0, symName: __RINvNtCsliVzVx4luf9_4core3ptr13drop_in_placeINtNtNtCs69QEzRJvHMp_5alloc3vec9into_iter8IntoIterTNtNtCsehVGFPP7CiK_11clap_derive4attr8ClapAttrNtNtCsaxBLFzn74Hr_3syn5token5CommaEEEB1z_, symObjAddr: 0x13C8, symBinAddr: 0x4DDC0, symSize: 0x24 }
  - { offset: 0x8C212, size: 0x8, addend: 0x0, symName: __RINvNtCsliVzVx4luf9_4core3ptr13drop_in_placeINtNtNtCs6P7HZtpS3La_3std2io5error9ErrorDataINtNtCs69QEzRJvHMp_5alloc5boxed3BoxNtBJ_6CustomEEECsehVGFPP7CiK_11clap_derive, symObjAddr: 0x13EC, symBinAddr: 0x4DDE4, symSize: 0x48 }
  - { offset: 0x8C241, size: 0x8, addend: 0x0, symName: __RINvNtCsliVzVx4luf9_4core3ptr13drop_in_placeINtNtNtCsehVGFPP7CiK_11clap_derive5utils7spanned2SpNtNtBN_4item4KindEEBN_, symObjAddr: 0x1434, symBinAddr: 0x4DE2C, symSize: 0x24 }
  - { offset: 0x8C270, size: 0x8, addend: 0x0, symName: __RINvNtCsliVzVx4luf9_4core3ptr13drop_in_placeINtNtNtNtB4_4iter8adapters3map3MapINtNtCsaxBLFzn74Hr_3syn10punctuated4IterNtNtB1j_4data5FieldENCNCNvNtNtCsehVGFPP7CiK_11clap_derive7derives10subcommand27gen_update_from_arg_matchess0_00EEB2m_, symObjAddr: 0x1458, symBinAddr: 0x4DE50, symSize: 0x24 }
  - { offset: 0x8C29F, size: 0x8, addend: 0x0, symName: __RINvNtCsliVzVx4luf9_4core3ptr13drop_in_placeINtNtNtNtB4_4iter8adapters3map3MapINtNtCsaxBLFzn74Hr_3syn10punctuated4IterNtNtB1j_4data5FieldENCNvNtNtCsehVGFPP7CiK_11clap_derive7derives4args11derive_args0EEB2k_, symObjAddr: 0x147C, symBinAddr: 0x4DE74, symSize: 0x24 }
  - { offset: 0x8C2CE, size: 0x8, addend: 0x0, symName: __RINvNtCsliVzVx4luf9_4core3ptr13drop_in_placeINtNtNtNtB4_4iter8adapters3map3MapINtNtCsaxBLFzn74Hr_3syn10punctuated4IterNtNtB1j_4data5FieldENCNvNtNtCsehVGFPP7CiK_11clap_derive7derives4args19collect_args_fields0EEB2k_, symObjAddr: 0x14A0, symBinAddr: 0x4DE98, symSize: 0x24 }
  - { offset: 0x8C2FD, size: 0x8, addend: 0x0, symName: __RINvNtCsliVzVx4luf9_4core3ptr13drop_in_placeINtNtNtNtB4_4iter8adapters3map3MapINtNtCsaxBLFzn74Hr_3syn10punctuated4IterNtNtB1j_4data5FieldENCNvNtNtCsehVGFPP7CiK_11clap_derive7derives6parser13derive_parser0EEB2k_, symObjAddr: 0x14C4, symBinAddr: 0x4DEBC, symSize: 0x24 }
  - { offset: 0x8C32C, size: 0x8, addend: 0x0, symName: __RINvNtCsliVzVx4luf9_4core3ptr13drop_in_placeINtNtNtNtB4_4iter8adapters3map3MapINtNtCsaxBLFzn74Hr_3syn10punctuated4IterNtNtB1j_4data7VariantENCNvNtNtCsehVGFPP7CiK_11clap_derive7derives10subcommand17derive_subcommand0EEB2m_, symObjAddr: 0x14E8, symBinAddr: 0x4DEE0, symSize: 0x24 }
  - { offset: 0x8C35B, size: 0x8, addend: 0x0, symName: __RINvNtCsliVzVx4luf9_4core3ptr13drop_in_placeINtNtNtNtB4_4iter8adapters3map3MapINtNtCsaxBLFzn74Hr_3syn10punctuated4IterNtNtB1j_4data7VariantENCNvNtNtCsehVGFPP7CiK_11clap_derive7derives6parser13derive_parsers_0EEB2m_, symObjAddr: 0x150C, symBinAddr: 0x4DF04, symSize: 0x24 }
  - { offset: 0x8C38A, size: 0x8, addend: 0x0, symName: __RINvNtCsliVzVx4luf9_4core3ptr13drop_in_placeINtNtNtNtB4_4iter8adapters3map3MapINtNtNtCs69QEzRJvHMp_5alloc3vec9into_iter8IntoIterTNtNtCsaxBLFzn74Hr_3syn4expr4ExprNtNtB27_5token5CommaEENCNvXs4_NtB27_10punctuatedINtB33_10PunctuatedB23_B2z_ENtNtNtBN_6traits7collect12IntoIterator9into_iter0EECsehVGFPP7CiK_11clap_derive, symObjAddr: 0x1530, symBinAddr: 0x4DF28, symSize: 0x24 }
  - { offset: 0x8C3B9, size: 0x8, addend: 0x0, symName: __RINvNtCsliVzVx4luf9_4core3ptr13drop_in_placeINtNtNtNtB4_4iter8adapters3map3MapINtNtNtCs69QEzRJvHMp_5alloc3vec9into_iter8IntoIterTNtNtCsehVGFPP7CiK_11clap_derive4attr8ClapAttrNtNtCsaxBLFzn74Hr_3syn5token5CommaEENCNvXs4_NtB2Q_10punctuatedINtB3u_10PunctuatedB23_B2M_ENtNtNtBN_6traits7collect12IntoIterator9into_iter0EEB27_, symObjAddr: 0x1554, symBinAddr: 0x4DF4C, symSize: 0x24 }
  - { offset: 0x8C3E8, size: 0x8, addend: 0x0, symName: __RINvNtCsliVzVx4luf9_4core3ptr13drop_in_placeINtNtNtNtB4_4iter8adapters7flatten13FlattenCompatINtNtBL_3map3MapINtNtBL_10skip_while9SkipWhileINtNtBL_10filter_map9FilterMapINtNtBL_6filter6FilterINtNtNtB4_5slice4iter4IterNtNtCsaxBLFzn74Hr_3syn4attr9AttributeENCNvNtNtCsehVGFPP7CiK_11clap_derive5utils12doc_comments19extract_doc_comment0ENCB47_s_0ENCB47_s0_0ENCB47_s1_0EINtNtNtCs69QEzRJvHMp_5alloc3vec9into_iter8IntoIterNtNtB5Y_6string6StringEEEB4d_, symObjAddr: 0x1578, symBinAddr: 0x4DF70, symSize: 0x60 }
  - { offset: 0x8C417, size: 0x8, addend: 0x0, symName: __RINvNtCsliVzVx4luf9_4core3ptr13drop_in_placeINtNtNtNtB4_4iter8adapters7flatten7FlatMapINtNtBL_10skip_while9SkipWhileINtNtBL_10filter_map9FilterMapINtNtBL_6filter6FilterINtNtNtB4_5slice4iter4IterNtNtCsaxBLFzn74Hr_3syn4attr9AttributeENCNvNtNtCsehVGFPP7CiK_11clap_derive5utils12doc_comments19extract_doc_comment0ENCB3K_s_0ENCB3K_s0_0EINtNtCs69QEzRJvHMp_5alloc3vec3VecNtNtB5o_6string6StringENCB3K_s1_0EEB3Q_, symObjAddr: 0x15D8, symBinAddr: 0x4DFD0, symSize: 0x24 }
  - { offset: 0x8C446, size: 0x8, addend: 0x0, symName: __RINvNtCsliVzVx4luf9_4core3ptr13drop_in_placeINtNvXNtNtCs69QEzRJvHMp_5alloc5slice4hackpNtBM_10ConvertVec6to_vec9DropGuardNtNtCsaxBLFzn74Hr_3syn4expr4ExprNtNtBQ_5alloc6GlobalEECsehVGFPP7CiK_11clap_derive, symObjAddr: 0x15FC, symBinAddr: 0x4DFF4, symSize: 0x24 }
  - { offset: 0x8C475, size: 0x8, addend: 0x0, symName: __RINvNtCsliVzVx4luf9_4core3ptr13drop_in_placeINtNvXNtNtCs69QEzRJvHMp_5alloc5slice4hackpNtBM_10ConvertVec6to_vec9DropGuardNtNtCsehVGFPP7CiK_11clap_derive4item11DeprecationNtNtBQ_5alloc6GlobalEEB1Y_, symObjAddr: 0x1620, symBinAddr: 0x4E018, symSize: 0x24 }
  - { offset: 0x8C4A4, size: 0x8, addend: 0x0, symName: __RINvNtCsliVzVx4luf9_4core3ptr13drop_in_placeINtNvXNtNtCs69QEzRJvHMp_5alloc5slice4hackpNtBM_10ConvertVec6to_vec9DropGuardNtNtCsehVGFPP7CiK_11clap_derive4item6MethodNtNtBQ_5alloc6GlobalEEB1Y_, symObjAddr: 0x1644, symBinAddr: 0x4E03C, symSize: 0x24 }
  - { offset: 0x8C4D3, size: 0x8, addend: 0x0, symName: __RINvNtCsliVzVx4luf9_4core3ptr13drop_in_placeINtNvXsd_NtNtCs69QEzRJvHMp_5alloc3vec9into_iterINtBP_8IntoIterppENtNtNtB4_3ops4drop4Drop4drop9DropGuardNtNtBT_6string6StringNtNtBT_5alloc6GlobalEECsehVGFPP7CiK_11clap_derive, symObjAddr: 0x1668, symBinAddr: 0x4E060, symSize: 0x24 }
  - { offset: 0x8C502, size: 0x8, addend: 0x0, symName: __RINvNtCsliVzVx4luf9_4core3ptr13drop_in_placeINtNvXsd_NtNtCs69QEzRJvHMp_5alloc3vec9into_iterINtBP_8IntoIterppENtNtNtB4_3ops4drop4Drop4drop9DropGuardNtNtCsaxBLFzn74Hr_3syn4expr4ExprNtNtBT_5alloc6GlobalEECsehVGFPP7CiK_11clap_derive, symObjAddr: 0x168C, symBinAddr: 0x4E084, symSize: 0x24 }
  - { offset: 0x8C531, size: 0x8, addend: 0x0, symName: __RINvNtCsliVzVx4luf9_4core3ptr13drop_in_placeINtNvXsd_NtNtCs69QEzRJvHMp_5alloc3vec9into_iterINtBP_8IntoIterppENtNtNtB4_3ops4drop4Drop4drop9DropGuardNtNtCsehVGFPP7CiK_11clap_derive4attr8ClapAttrNtNtBT_5alloc6GlobalEEB2p_, symObjAddr: 0x16B0, symBinAddr: 0x4E0A8, symSize: 0x24 }
  - { offset: 0x8C560, size: 0x8, addend: 0x0, symName: __RINvNtCsliVzVx4luf9_4core3ptr13drop_in_placeINtNvXsd_NtNtCs69QEzRJvHMp_5alloc3vec9into_iterINtBP_8IntoIterppENtNtNtB4_3ops4drop4Drop4drop9DropGuardTNtNtCsaxBLFzn74Hr_3syn4expr4ExprNtNtB2q_5token5CommaENtNtBT_5alloc6GlobalEECsehVGFPP7CiK_11clap_derive, symObjAddr: 0x16D4, symBinAddr: 0x4E0CC, symSize: 0x24 }
  - { offset: 0x8C58F, size: 0x8, addend: 0x0, symName: __RINvNtCsliVzVx4luf9_4core3ptr13drop_in_placeINtNvXsd_NtNtCs69QEzRJvHMp_5alloc3vec9into_iterINtBP_8IntoIterppENtNtNtB4_3ops4drop4Drop4drop9DropGuardTNtNtCsehVGFPP7CiK_11clap_derive4attr8ClapAttrNtNtCsaxBLFzn74Hr_3syn5token5CommaENtNtBT_5alloc6GlobalEEB2q_, symObjAddr: 0x16F8, symBinAddr: 0x4E0F0, symSize: 0x24 }
  - { offset: 0x8C5BE, size: 0x8, addend: 0x0, symName: __RINvNtCsliVzVx4luf9_4core3ptr13drop_in_placeNCINvMsi_NtCs69QEzRJvHMp_5alloc3vecINtBP_3VecNtNtBR_6string6StringE14extend_trustedINtNtNtNtB4_4iter8adapters3map3MapINtNtNtB4_5slice4iter4IterB1p_ENCINvNtNtCsehVGFPP7CiK_11clap_derive5utils12doc_comments11merge_linesRB1p_RSB1p_E0EE0EB3d_, symObjAddr: 0x171C, symBinAddr: 0x4E114, symSize: 0x24 }
  - { offset: 0x8C5ED, size: 0x8, addend: 0x0, symName: __RINvNtCsliVzVx4luf9_4core3ptr13drop_in_placeNCINvMsi_NtCs69QEzRJvHMp_5alloc3vecINtBP_3VecNtNtBR_6string6StringE14extend_trustedINtNtNtNtB4_4iter8adapters3map3MapINtNtNtB4_5slice4iter4IterNtNtCsehVGFPP7CiK_11clap_derive4attr8AttrKindENCNvNtB33_4item16assert_attr_kind0EE0EB33_, symObjAddr: 0x1740, symBinAddr: 0x4E138, symSize: 0x24 }
  - { offset: 0x8C61C, size: 0x8, addend: 0x0, symName: __RINvNtCsliVzVx4luf9_4core3ptr13drop_in_placeNCINvMsi_NtCs69QEzRJvHMp_5alloc3vecINtBP_3VecNtNtCsaxBLFzn74Hr_3syn4expr4ExprE14extend_trustedINtNtB4_6option8IntoIterB1p_EE0ECsehVGFPP7CiK_11clap_derive, symObjAddr: 0x1764, symBinAddr: 0x4E15C, symSize: 0x24 }
  - { offset: 0x8C64B, size: 0x8, addend: 0x0, symName: __RINvNtCsliVzVx4luf9_4core3ptr13drop_in_placeNCINvMsi_NtCs69QEzRJvHMp_5alloc3vecINtBP_3VecNtNtCsaxBLFzn74Hr_3syn4expr4ExprE14extend_trustedINtNtNtNtB4_4iter8adapters3map3MapINtNtBP_9into_iter8IntoIterTB1p_NtNtB1t_5token5CommaEENCNvXs4_NtB1t_10punctuatedINtB3K_10PunctuatedB1p_B3g_ENtNtNtB2j_6traits7collect12IntoIterator9into_iter0EE0ECsehVGFPP7CiK_11clap_derive, symObjAddr: 0x1788, symBinAddr: 0x4E180, symSize: 0x24 }
  - { offset: 0x8C67A, size: 0x8, addend: 0x0, symName: __RINvNtCsliVzVx4luf9_4core3ptr13drop_in_placeNCINvMsi_NtCs69QEzRJvHMp_5alloc3vecINtBP_3VecNtNtCsehVGFPP7CiK_11clap_derive4attr8ClapAttrE14extend_trustedINtNtB4_6option8IntoIterB1p_EE0EB1t_, symObjAddr: 0x17AC, symBinAddr: 0x4E1A4, symSize: 0x24 }
  - { offset: 0x8C6A9, size: 0x8, addend: 0x0, symName: __RINvNtCsliVzVx4luf9_4core3ptr13drop_in_placeNCINvMsi_NtCs69QEzRJvHMp_5alloc3vecINtBP_3VecNtNtCsehVGFPP7CiK_11clap_derive4attr8ClapAttrE14extend_trustedINtNtNtNtB4_4iter8adapters3map3MapINtNtBP_9into_iter8IntoIterTB1p_NtNtCsaxBLFzn74Hr_3syn5token5CommaEENCNvXs4_NtB3x_10punctuatedINtB4b_10PunctuatedB1p_B3t_ENtNtNtB2w_6traits7collect12IntoIterator9into_iter0EE0EB1t_, symObjAddr: 0x17D0, symBinAddr: 0x4E1C8, symSize: 0x24 }
  - { offset: 0x8C6D8, size: 0x8, addend: 0x0, symName: __RINvNtCsliVzVx4luf9_4core3ptr13drop_in_placeNCINvMsi_NtCs69QEzRJvHMp_5alloc3vecINtBP_3VecRNtCs3vPhoADqSdK_11proc_macro25IdentE14extend_trustedINtNtNtNtB4_4iter8adapters3map3MapINtNtNtB4_5slice4iter4IterTNtB1s_11TokenStreamB1q_EENCNvNtNtCsehVGFPP7CiK_11clap_derive7derives10value_enum18gen_value_variants0EE0EB3M_, symObjAddr: 0x17F4, symBinAddr: 0x4E1EC, symSize: 0x24 }
  - { offset: 0x8C707, size: 0x8, addend: 0x0, symName: __RINvNtCsliVzVx4luf9_4core3ptr13drop_in_placeNCINvNtNtNtB4_4iter8adapters3map8map_foldRNtNtCs69QEzRJvHMp_5alloc6string6StringB1m_uNCINvNtNtCsehVGFPP7CiK_11clap_derive5utils12doc_comments11merge_linesB1l_RSB1m_E0NCINvNvNtNtNtBP_6traits8iterator8Iterator8for_each4callB1m_NCINvMsi_NtB1q_3vecINtB4s_3VecB1m_E14extend_trustedINtBL_3MapINtNtNtB4_5slice4iter4IterB1m_EB23_EE0E0E0EB2c_, symObjAddr: 0x1818, symBinAddr: 0x4E210, symSize: 0x24 }
  - { offset: 0x8C736, size: 0x8, addend: 0x0, symName: __RINvNtCsliVzVx4luf9_4core3ptr13drop_in_placeNCINvNtNtNtB4_4iter8adapters3map8map_foldRNtNtCsehVGFPP7CiK_11clap_derive4attr8AttrKindNtNtCs69QEzRJvHMp_5alloc6string6StringuNCNvNtB1q_4item16assert_attr_kind0NCINvNvNtNtNtBP_6traits8iterator8Iterator8for_each4callB25_NCINvMsi_NtB29_3vecINtB4m_3VecB25_E14extend_trustedINtBL_3MapINtNtNtB4_5slice4iter4IterB1m_EB2I_EE0E0E0EB1q_, symObjAddr: 0x183C, symBinAddr: 0x4E234, symSize: 0x24 }
  - { offset: 0x8C765, size: 0x8, addend: 0x0, symName: __RINvNtCsliVzVx4luf9_4core3ptr13drop_in_placeNCINvNtNtNtB4_4iter8adapters3map8map_foldRTNtCs3vPhoADqSdK_11proc_macro211TokenStreamNtB1p_5IdentERB23_uNCNvNtNtCsehVGFPP7CiK_11clap_derive7derives10value_enum18gen_value_variants0NCINvNvNtNtNtBP_6traits8iterator8Iterator8for_each4callB2g_NCINvMsi_NtCs69QEzRJvHMp_5alloc3vecINtB4G_3VecB2g_E14extend_trustedINtBL_3MapINtNtNtB4_5slice4iter4IterB1m_EB2m_EE0E0E0EB2u_, symObjAddr: 0x1860, symBinAddr: 0x4E258, symSize: 0x24 }
  - { offset: 0x8C794, size: 0x8, addend: 0x0, symName: __RINvNtCsliVzVx4luf9_4core3ptr13drop_in_placeNCINvNtNtNtB4_4iter8adapters3map8map_foldTNtNtCsaxBLFzn74Hr_3syn4expr4ExprNtNtB1q_5token5CommaEB1m_uNCNvXs4_NtB1q_10punctuatedINtB2q_10PunctuatedB1m_B1S_ENtNtNtBP_6traits7collect12IntoIterator9into_iter0NCINvNvNtNtB3e_8iterator8Iterator8for_each4callB1m_NCINvMsi_NtCs69QEzRJvHMp_5alloc3vecINtB4V_3VecB1m_E14extend_trustedINtBL_3MapINtNtB4V_9into_iter8IntoIterB1l_EB2i_EE0E0E0ECsehVGFPP7CiK_11clap_derive, symObjAddr: 0x1884, symBinAddr: 0x4E27C, symSize: 0x24 }
  - { offset: 0x8C7C3, size: 0x8, addend: 0x0, symName: __RINvNtCsliVzVx4luf9_4core3ptr13drop_in_placeNCINvNtNtNtB4_4iter8adapters3map8map_foldTNtNtCsehVGFPP7CiK_11clap_derive4attr8ClapAttrNtNtCsaxBLFzn74Hr_3syn5token5CommaEB1m_uNCNvXs4_NtB29_10punctuatedINtB2R_10PunctuatedB1m_B25_ENtNtNtBP_6traits7collect12IntoIterator9into_iter0NCINvNvNtNtB3F_8iterator8Iterator8for_each4callB1m_NCINvMsi_NtCs69QEzRJvHMp_5alloc3vecINtB5m_3VecB1m_E14extend_trustedINtBL_3MapINtNtB5m_9into_iter8IntoIterB1l_EB2J_EE0E0E0EB1q_, symObjAddr: 0x18A8, symBinAddr: 0x4E2A0, symSize: 0x24 }
  - { offset: 0x8C7F2, size: 0x8, addend: 0x0, symName: __RINvNtCsliVzVx4luf9_4core3ptr13drop_in_placeNCINvNvNtNtNtNtB4_4iter6traits8iterator8Iterator8for_each4callNtNtCs69QEzRJvHMp_5alloc6string6StringNCINvMsi_NtB1K_3vecINtB2r_3VecB1G_E14extend_trustedINtNtNtBT_8adapters3map3MapINtNtNtB4_5slice4iter4IterB1G_ENCINvNtNtCsehVGFPP7CiK_11clap_derive5utils12doc_comments11merge_linesRB1G_RSB1G_E0EE0E0EB4c_, symObjAddr: 0x18CC, symBinAddr: 0x4E2C4, symSize: 0x24 }
  - { offset: 0x8C821, size: 0x8, addend: 0x0, symName: __RINvNtCsliVzVx4luf9_4core3ptr13drop_in_placeNCINvNvNtNtNtNtB4_4iter6traits8iterator8Iterator8for_each4callNtNtCs69QEzRJvHMp_5alloc6string6StringNCINvMsi_NtB1K_3vecINtB2r_3VecB1G_E14extend_trustedINtNtNtBT_8adapters3map3MapINtNtNtB4_5slice4iter4IterNtNtCsehVGFPP7CiK_11clap_derive4attr8AttrKindENCNvNtB42_4item16assert_attr_kind0EE0E0EB42_, symObjAddr: 0x18F0, symBinAddr: 0x4E2E8, symSize: 0x24 }
  - { offset: 0x8C850, size: 0x8, addend: 0x0, symName: __RINvNtCsliVzVx4luf9_4core3ptr13drop_in_placeNCINvNvNtNtNtNtB4_4iter6traits8iterator8Iterator8for_each4callNtNtCsaxBLFzn74Hr_3syn4expr4ExprNCINvMsi_NtCs69QEzRJvHMp_5alloc3vecINtB2l_3VecB1G_E14extend_trustedINtNtB4_6option8IntoIterB1G_EE0E0ECsehVGFPP7CiK_11clap_derive, symObjAddr: 0x1914, symBinAddr: 0x4E30C, symSize: 0x24 }
  - { offset: 0x8C87F, size: 0x8, addend: 0x0, symName: __RINvNtCsliVzVx4luf9_4core3ptr13drop_in_placeNCINvNvNtNtNtNtB4_4iter6traits8iterator8Iterator8for_each4callNtNtCsaxBLFzn74Hr_3syn4expr4ExprNCINvMsi_NtCs69QEzRJvHMp_5alloc3vecINtB2l_3VecB1G_E14extend_trustedINtNtNtBT_8adapters3map3MapINtNtB2l_9into_iter8IntoIterTB1G_NtNtB1K_5token5CommaEENCNvXs4_NtB1K_10punctuatedINtB4J_10PunctuatedB1G_B4f_ENtNtBR_7collect12IntoIterator9into_iter0EE0E0ECsehVGFPP7CiK_11clap_derive, symObjAddr: 0x1938, symBinAddr: 0x4E330, symSize: 0x24 }
  - { offset: 0x8C8AE, size: 0x8, addend: 0x0, symName: __RINvNtCsliVzVx4luf9_4core3ptr13drop_in_placeNCINvNvNtNtNtNtB4_4iter6traits8iterator8Iterator8for_each4callNtNtCsehVGFPP7CiK_11clap_derive4attr8ClapAttrNCINvMsi_NtCs69QEzRJvHMp_5alloc3vecINtB2y_3VecB1G_E14extend_trustedINtNtB4_6option8IntoIterB1G_EE0E0EB1K_, symObjAddr: 0x195C, symBinAddr: 0x4E354, symSize: 0x24 }
  - { offset: 0x8C8DD, size: 0x8, addend: 0x0, symName: __RINvNtCsliVzVx4luf9_4core3ptr13drop_in_placeNCINvNvNtNtNtNtB4_4iter6traits8iterator8Iterator8for_each4callNtNtCsehVGFPP7CiK_11clap_derive4attr8ClapAttrNCINvMsi_NtCs69QEzRJvHMp_5alloc3vecINtB2y_3VecB1G_E14extend_trustedINtNtNtBT_8adapters3map3MapINtNtB2y_9into_iter8IntoIterTB1G_NtNtCsaxBLFzn74Hr_3syn5token5CommaEENCNvXs4_NtB4w_10punctuatedINtB5a_10PunctuatedB1G_B4s_ENtNtBR_7collect12IntoIterator9into_iter0EE0E0EB1K_, symObjAddr: 0x1980, symBinAddr: 0x4E378, symSize: 0x24 }
  - { offset: 0x8C90C, size: 0x8, addend: 0x0, symName: __RINvNtCsliVzVx4luf9_4core3ptr13drop_in_placeNCINvNvNtNtNtNtB4_4iter6traits8iterator8Iterator8for_each4callRNtCs3vPhoADqSdK_11proc_macro25IdentNCINvMsi_NtCs69QEzRJvHMp_5alloc3vecINtB2p_3VecB1G_E14extend_trustedINtNtNtBT_8adapters3map3MapINtNtNtB4_5slice4iter4IterTNtB1J_11TokenStreamB1H_EENCNvNtNtCsehVGFPP7CiK_11clap_derive7derives10value_enum18gen_value_variants0EE0E0EB4K_, symObjAddr: 0x19A4, symBinAddr: 0x4E39C, symSize: 0x24 }
  - { offset: 0x8C93B, size: 0x8, addend: 0x0, symName: __RINvNtCsliVzVx4luf9_4core3ptr13drop_in_placeNCNCINvNtNtCs39eHfitSTy1_10proc_macro6bridge6client10run_clientNtBN_11TokenStreamINtNtB4_6option6OptionB1H_ENCNCINvMs7_BN_INtBN_6ClientNtBR_11TokenStreamB2R_E7expand1NvCsehVGFPP7CiK_11clap_derive10subcommandE00E00EB3o_, symObjAddr: 0x19C8, symBinAddr: 0x4E3C0, symSize: 0x24 }
  - { offset: 0x8C96A, size: 0x8, addend: 0x0, symName: __RINvNtCsliVzVx4luf9_4core3ptr13drop_in_placeNCNCINvNtNtCs39eHfitSTy1_10proc_macro6bridge6client10run_clientNtBN_11TokenStreamINtNtB4_6option6OptionB1H_ENCNCINvMs7_BN_INtBN_6ClientNtBR_11TokenStreamB2R_E7expand1NvCsehVGFPP7CiK_11clap_derive10value_enumE00E00EB3o_, symObjAddr: 0x19EC, symBinAddr: 0x4E3E4, symSize: 0x24 }
  - { offset: 0x8C999, size: 0x8, addend: 0x0, symName: __RINvNtCsliVzVx4luf9_4core3ptr13drop_in_placeNCNCINvNtNtCs39eHfitSTy1_10proc_macro6bridge6client10run_clientNtBN_11TokenStreamINtNtB4_6option6OptionB1H_ENCNCINvMs7_BN_INtBN_6ClientNtBR_11TokenStreamB2R_E7expand1NvCsehVGFPP7CiK_11clap_derive4argsE00E00EB3o_, symObjAddr: 0x1A10, symBinAddr: 0x4E408, symSize: 0x24 }
  - { offset: 0x8C9C8, size: 0x8, addend: 0x0, symName: __RINvNtCsliVzVx4luf9_4core3ptr13drop_in_placeNCNCINvNtNtCs39eHfitSTy1_10proc_macro6bridge6client10run_clientNtBN_11TokenStreamINtNtB4_6option6OptionB1H_ENCNCINvMs7_BN_INtBN_6ClientNtBR_11TokenStreamB2R_E7expand1NvCsehVGFPP7CiK_11clap_derive6parserE00E00EB3o_, symObjAddr: 0x1A34, symBinAddr: 0x4E42C, symSize: 0x24 }
  - { offset: 0x8C9F7, size: 0x8, addend: 0x0, symName: __RINvNtCsliVzVx4luf9_4core3ptr13drop_in_placeNtNtCs6P7HZtpS3La_3std3env8VarErrorECsehVGFPP7CiK_11clap_derive, symObjAddr: 0x1A58, symBinAddr: 0x4E450, symSize: 0x48 }
  - { offset: 0x8CA26, size: 0x8, addend: 0x0, symName: __RINvNtCsliVzVx4luf9_4core3ptr13drop_in_placeNtNtCsehVGFPP7CiK_11clap_derive4attr8ClapAttrEBK_, symObjAddr: 0x1AA0, symBinAddr: 0x4E498, symSize: 0x5C }
  - { offset: 0x8CA55, size: 0x8, addend: 0x0, symName: __RINvNtCsliVzVx4luf9_4core3ptr13drop_in_placeNtNtCsehVGFPP7CiK_11clap_derive4attr9AttrValueEBK_, symObjAddr: 0x1AFC, symBinAddr: 0x4E4F4, symSize: 0x7C }
  - { offset: 0x8CA84, size: 0x8, addend: 0x0, symName: __RINvNtCsliVzVx4luf9_4core3ptr13drop_in_placeNtNtCsehVGFPP7CiK_11clap_derive4item11DeprecationEBK_, symObjAddr: 0x1B78, symBinAddr: 0x4E570, symSize: 0x24 }
  - { offset: 0x8CAB3, size: 0x8, addend: 0x0, symName: __RINvNtCsliVzVx4luf9_4core3ptr13drop_in_placeNtNtCsehVGFPP7CiK_11clap_derive4item11ValueParserEBK_, symObjAddr: 0x1B9C, symBinAddr: 0x4E594, symSize: 0x5C }
  - { offset: 0x8CAE2, size: 0x8, addend: 0x0, symName: __RINvNtCsliVzVx4luf9_4core3ptr13drop_in_placeNtNtCsehVGFPP7CiK_11clap_derive4item4ItemEBK_, symObjAddr: 0x1BF8, symBinAddr: 0x4E5F0, symSize: 0x23C }
  - { offset: 0x8CB11, size: 0x8, addend: 0x0, symName: __RINvNtCsliVzVx4luf9_4core3ptr13drop_in_placeNtNtCsehVGFPP7CiK_11clap_derive4item4KindEBK_, symObjAddr: 0x1E34, symBinAddr: 0x4E82C, symSize: 0x68 }
  - { offset: 0x8CB40, size: 0x8, addend: 0x0, symName: __RINvNtCsliVzVx4luf9_4core3ptr13drop_in_placeNtNtCsehVGFPP7CiK_11clap_derive4item4NameEBK_, symObjAddr: 0x1E9C, symBinAddr: 0x4E894, symSize: 0x58 }
  - { offset: 0x8CB6F, size: 0x8, addend: 0x0, symName: __RINvNtCsliVzVx4luf9_4core3ptr13drop_in_placeNtNtCsehVGFPP7CiK_11clap_derive4item6ActionEBK_, symObjAddr: 0x1EF4, symBinAddr: 0x4E8EC, symSize: 0x5C }
  - { offset: 0x8CB9E, size: 0x8, addend: 0x0, symName: __RINvNtCsliVzVx4luf9_4core3ptr13drop_in_placeNtNtCsehVGFPP7CiK_11clap_derive4item6MethodEBK_, symObjAddr: 0x1F50, symBinAddr: 0x4E948, symSize: 0x5C }
  - { offset: 0x8CBCD, size: 0x8, addend: 0x0, symName: __RINvNtCsliVzVx4luf9_4core3ptr13drop_in_placeNtNtNtCs39eHfitSTy1_10proc_macro6bridge3rpc12PanicMessageECsehVGFPP7CiK_11clap_derive, symObjAddr: 0x1FAC, symBinAddr: 0x4E9A4, symSize: 0x60 }
  - { offset: 0x8CBFC, size: 0x8, addend: 0x0, symName: __RINvNtCsliVzVx4luf9_4core3ptr13drop_in_placeNtNtNtCs39eHfitSTy1_10proc_macro6bridge6buffer6BufferECsehVGFPP7CiK_11clap_derive, symObjAddr: 0x200C, symBinAddr: 0x4EA04, symSize: 0x24 }
  - { offset: 0x8CC2B, size: 0x8, addend: 0x0, symName: __RINvNtCsliVzVx4luf9_4core3ptr13drop_in_placeNtNtNtCs39eHfitSTy1_10proc_macro6bridge6client6BridgeECsehVGFPP7CiK_11clap_derive, symObjAddr: 0x2030, symBinAddr: 0x4EA28, symSize: 0x24 }
  - { offset: 0x8CC5A, size: 0x8, addend: 0x0, symName: __RINvNtCsliVzVx4luf9_4core3ptr13drop_in_placeNtNtNtCs6P7HZtpS3La_3std2io5error5ErrorECsehVGFPP7CiK_11clap_derive, symObjAddr: 0x2054, symBinAddr: 0x4EA4C, symSize: 0x24 }
  - { offset: 0x8CC89, size: 0x8, addend: 0x0, symName: __RINvNtCsliVzVx4luf9_4core3ptr13drop_in_placeNtNtNtCs6P7HZtpS3La_3std2io5error6CustomECsehVGFPP7CiK_11clap_derive, symObjAddr: 0x2078, symBinAddr: 0x4EA70, symSize: 0x24 }
  - { offset: 0x8CCB8, size: 0x8, addend: 0x0, symName: __RINvNtCsliVzVx4luf9_4core3ptr13drop_in_placeNtNtNtCs6P7HZtpS3La_3std3ffi6os_str8OsStringECsehVGFPP7CiK_11clap_derive, symObjAddr: 0x209C, symBinAddr: 0x4EA94, symSize: 0x24 }
  - { offset: 0x8CCE7, size: 0x8, addend: 0x0, symName: __RINvNtCsliVzVx4luf9_4core3ptr13drop_in_placeNtNtNtCs6P7HZtpS3La_3std6thread5local11AccessErrorECsehVGFPP7CiK_11clap_derive, symObjAddr: 0x20C0, symBinAddr: 0x4EAB8, symSize: 0x10 }
  - { offset: 0x8CD16, size: 0x8, addend: 0x0, symName: __RINvNtCsliVzVx4luf9_4core3ptr13drop_in_placeNtNtNtNtCs6P7HZtpS3La_3std2io5error14repr_bitpacked4ReprECsehVGFPP7CiK_11clap_derive, symObjAddr: 0x20D0, symBinAddr: 0x4EAC8, symSize: 0x24 }
  - { offset: 0x8CD45, size: 0x8, addend: 0x0, symName: __RINvNtCsliVzVx4luf9_4core3ptr13drop_in_placeNtNtNtNtCs6P7HZtpS3La_3std3sys6os_str5bytes3BufECsehVGFPP7CiK_11clap_derive, symObjAddr: 0x20F4, symBinAddr: 0x4EAEC, symSize: 0x24 }
  - { offset: 0x8CD74, size: 0x8, addend: 0x0, symName: __RINvNtCsliVzVx4luf9_4core3ptr13drop_in_placeNtNvNtNtNtCs39eHfitSTy1_10proc_macro6bridge6client5state3set13RestoreOnDropECsehVGFPP7CiK_11clap_derive, symObjAddr: 0x2118, symBinAddr: 0x4EB10, symSize: 0x24 }
  - { offset: 0x8CDA3, size: 0x8, addend: 0x0, symName: __RINvNtCsliVzVx4luf9_4core3ptr13drop_in_placeSINtNtB4_6option6OptionNtCs3vPhoADqSdK_11proc_macro211TokenStreamEECsehVGFPP7CiK_11clap_derive, symObjAddr: 0x213C, symBinAddr: 0x4EB34, symSize: 0xB4 }
  - { offset: 0x8CDD2, size: 0x8, addend: 0x0, symName: __RINvNtCsliVzVx4luf9_4core3ptr13drop_in_placeSNtCs3vPhoADqSdK_11proc_macro211TokenStreamECsehVGFPP7CiK_11clap_derive, symObjAddr: 0x21F0, symBinAddr: 0x4EBE8, symSize: 0xB4 }
  - { offset: 0x8CE01, size: 0x8, addend: 0x0, symName: __RINvNtCsliVzVx4luf9_4core3ptr13drop_in_placeSNtCs3vPhoADqSdK_11proc_macro25IdentECsehVGFPP7CiK_11clap_derive, symObjAddr: 0x22A4, symBinAddr: 0x4EC9C, symSize: 0xC4 }
  - { offset: 0x8CE30, size: 0x8, addend: 0x0, symName: __RINvNtCsliVzVx4luf9_4core3ptr13drop_in_placeSNtNtCs69QEzRJvHMp_5alloc6string6StringECsehVGFPP7CiK_11clap_derive, symObjAddr: 0x2368, symBinAddr: 0x4ED60, symSize: 0xC4 }
  - { offset: 0x8CE5F, size: 0x8, addend: 0x0, symName: __RINvNtCsliVzVx4luf9_4core3ptr13drop_in_placeSNtNtCsaxBLFzn74Hr_3syn4expr4ExprECsehVGFPP7CiK_11clap_derive, symObjAddr: 0x242C, symBinAddr: 0x4EE24, symSize: 0xC4 }
  - { offset: 0x8CE8E, size: 0x8, addend: 0x0, symName: __RINvNtCsliVzVx4luf9_4core3ptr13drop_in_placeSNtNtCsehVGFPP7CiK_11clap_derive4attr8ClapAttrEBL_, symObjAddr: 0x24F0, symBinAddr: 0x4EEE8, symSize: 0xC4 }
  - { offset: 0x8CEBD, size: 0x8, addend: 0x0, symName: __RINvNtCsliVzVx4luf9_4core3ptr13drop_in_placeSNtNtCsehVGFPP7CiK_11clap_derive4item11DeprecationEBL_, symObjAddr: 0x25B4, symBinAddr: 0x4EFAC, symSize: 0xB4 }
  - { offset: 0x8CEEC, size: 0x8, addend: 0x0, symName: __RINvNtCsliVzVx4luf9_4core3ptr13drop_in_placeSNtNtCsehVGFPP7CiK_11clap_derive4item6MethodEBL_, symObjAddr: 0x2668, symBinAddr: 0x4F060, symSize: 0xC4 }
  - { offset: 0x8CF1B, size: 0x8, addend: 0x0, symName: __RINvNtCsliVzVx4luf9_4core3ptr13drop_in_placeSTNtCs3vPhoADqSdK_11proc_macro211TokenStreamNtBK_5IdentEECsehVGFPP7CiK_11clap_derive, symObjAddr: 0x272C, symBinAddr: 0x4F124, symSize: 0xC4 }
  - { offset: 0x8CF4A, size: 0x8, addend: 0x0, symName: __RINvNtCsliVzVx4luf9_4core3ptr13drop_in_placeSTNtNtCsehVGFPP7CiK_11clap_derive4attr8ClapAttrNtNtCsaxBLFzn74Hr_3syn5token5CommaEEBM_, symObjAddr: 0x27F0, symBinAddr: 0x4F1E8, symSize: 0xC4 }
  - { offset: 0x8CF79, size: 0x8, addend: 0x0, symName: __RINvNtCsliVzVx4luf9_4core3ptr13drop_in_placeSTRNtNtCsaxBLFzn74Hr_3syn4data5FieldNtNtCsehVGFPP7CiK_11clap_derive4item4ItemEEB1k_, symObjAddr: 0x28B4, symBinAddr: 0x4F2AC, symSize: 0xC4 }
  - { offset: 0x8CFA8, size: 0x8, addend: 0x0, symName: __RINvNtCsliVzVx4luf9_4core3ptr13drop_in_placeSTRNtNtCsaxBLFzn74Hr_3syn4data7VariantNtNtCsehVGFPP7CiK_11clap_derive4item4ItemEEB1m_, symObjAddr: 0x2978, symBinAddr: 0x4F370, symSize: 0xC4 }
  - { offset: 0x8CFD7, size: 0x8, addend: 0x0, symName: __RINvNtCsliVzVx4luf9_4core3ptr13drop_in_placeTINtNtCs69QEzRJvHMp_5alloc3vec3VecNtCs3vPhoADqSdK_11proc_macro211TokenStreamEIBI_NtB1g_5IdentEEECsehVGFPP7CiK_11clap_derive, symObjAddr: 0x2A3C, symBinAddr: 0x4F434, symSize: 0x60 }
  - { offset: 0x8D006, size: 0x8, addend: 0x0, symName: __RINvNtCsliVzVx4luf9_4core3ptr13drop_in_placeTNtCs3vPhoADqSdK_11proc_macro211TokenStreamNtBJ_5IdentEECsehVGFPP7CiK_11clap_derive, symObjAddr: 0x2A9C, symBinAddr: 0x4F494, symSize: 0x60 }
  - { offset: 0x8D035, size: 0x8, addend: 0x0, symName: __RINvNtCsliVzVx4luf9_4core3ptr13drop_in_placeTNtCs3vPhoADqSdK_11proc_macro24SpanRNtBJ_5IdentNtBJ_11TokenStreamEECsehVGFPP7CiK_11clap_derive, symObjAddr: 0x2AFC, symBinAddr: 0x4F4F4, symSize: 0x24 }
  - { offset: 0x8D064, size: 0x8, addend: 0x0, symName: __RINvNtCsliVzVx4luf9_4core3ptr13drop_in_placeTNtNtCsehVGFPP7CiK_11clap_derive4attr8ClapAttrNtNtCsaxBLFzn74Hr_3syn5token5CommaEEBL_, symObjAddr: 0x2B20, symBinAddr: 0x4F518, symSize: 0x24 }
  - { offset: 0x8D093, size: 0x8, addend: 0x0, symName: __RINvNtCsliVzVx4luf9_4core3ptr13drop_in_placeTRNtNtCsaxBLFzn74Hr_3syn4data5FieldNtNtCsehVGFPP7CiK_11clap_derive4item4ItemEEB1j_, symObjAddr: 0x2B44, symBinAddr: 0x4F53C, symSize: 0x24 }
  - { offset: 0x8D0C2, size: 0x8, addend: 0x0, symName: __RINvNtCsliVzVx4luf9_4core3ptr13drop_in_placeTRNtNtCsaxBLFzn74Hr_3syn4data7VariantNtNtCsehVGFPP7CiK_11clap_derive4item4ItemEEB1l_, symObjAddr: 0x2B68, symBinAddr: 0x4F560, symSize: 0x24 }
  - { offset: 0x8D1B4, size: 0x8, addend: 0x0, symName: __RNvNvMsc_NtNtCsliVzVx4luf9_4core3num7nonzeroINtB7_7NonZeropE13new_unchecked18precondition_checkCsehVGFPP7CiK_11clap_derive, symObjAddr: 0x2E44, symBinAddr: 0x4F83C, symSize: 0x1C }
  - { offset: 0x9005A, size: 0x8, addend: 0x0, symName: __RNvNtNtNtCsliVzVx4luf9_4core7unicode12unicode_data11white_space6lookupCsehVGFPP7CiK_11clap_derive, symObjAddr: 0x2CB8, symBinAddr: 0x4F6B0, symSize: 0x14C }
  - { offset: 0x9011E, size: 0x8, addend: 0x0, symName: __RNvYTNtCs3vPhoADqSdK_11proc_macro211TokenStreamNtB5_5IdentENtNtCsliVzVx4luf9_4core5clone5Clone5cloneCsehVGFPP7CiK_11clap_derive, symObjAddr: 0x37A8, symBinAddr: 0x501A0, symSize: 0x68 }
  - { offset: 0x90BB0, size: 0x8, addend: 0x0, symName: __RINvNtCsaxBLFzn74Hr_3syn5parse12parse_scopedNvMNtB4_10punctuatedINtBJ_10PunctuatedNtNtCsehVGFPP7CiK_11clap_derive4attr8ClapAttrNtNtB4_5token5CommaE16parse_terminatedEB1m_, symObjAddr: 0x1F0, symBinAddr: 0x4CBE8, symSize: 0x30 }
  - { offset: 0x90C0B, size: 0x8, addend: 0x0, symName: __RNvXsh_NtCsaxBLFzn74Hr_3syn5parseNvYNtNtB7_6derive11DeriveInputNtB5_5Parse5parseNtB5_6Parser6parse2CsehVGFPP7CiK_11clap_derive, symObjAddr: 0x3030, symBinAddr: 0x4FA28, symSize: 0x3AC }
  - { offset: 0x90D1F, size: 0x8, addend: 0x0, symName: __RNvYNvYNtNtCsaxBLFzn74Hr_3syn6derive11DeriveInputNtNtB9_5parse5Parse5parseNtBN_6Parser5parseCsehVGFPP7CiK_11clap_derive, symObjAddr: 0x36CC, symBinAddr: 0x500C4, symSize: 0x88 }
  - { offset: 0x976B8, size: 0x8, addend: 0x0, symName: __RINvMs9_NtCsaxBLFzn74Hr_3syn5parseNtB6_11ParseBuffer4peekNvNtB8_3lit6LitStrECsehVGFPP7CiK_11clap_derive, symObjAddr: 0x1B8, symBinAddr: 0x4CBB0, symSize: 0x38 }
  - { offset: 0x990CE, size: 0x8, addend: 0x0, symName: __RINvNtNtCsliVzVx4luf9_4core4iter8adapters11try_processINtNtB2_3map3MapINtNtCsaxBLFzn74Hr_3syn10punctuated4IterNtNtB1b_4data5FieldENCNvNtNtCsehVGFPP7CiK_11clap_derive7derives4args11derive_args0ETRB1K_NtNtB2c_4item4ItemEINtNtB6_6result6ResultNtNtB6_7convert10InfallibleNtNtB1b_5error5ErrorENCINvXsn_B3x_IB3v_INtNtCs69QEzRJvHMp_5alloc3vec3VecB35_EB4h_EINtNtNtB4_6traits7collect12FromIteratorIB3v_B35_B4h_EE9from_iterBQ_E0B4U_EB2c_, symObjAddr: 0x0, symBinAddr: 0x534D4, symSize: 0x17C }
  - { offset: 0x9A456, size: 0x8, addend: 0x0, symName: __RINvNtNtCsliVzVx4luf9_4core4iter8adapters11try_processINtNtB2_3map3MapINtNtCsaxBLFzn74Hr_3syn10punctuated4IterNtNtB1b_4data5FieldENCNvNtNtCsehVGFPP7CiK_11clap_derive7derives4args11derive_args0ETRB1K_NtNtB2c_4item4ItemEINtNtB6_6result6ResultNtNtB6_7convert10InfallibleNtNtB1b_5error5ErrorENCINvXsn_B3x_IB3v_INtNtCs69QEzRJvHMp_5alloc3vec3VecB35_EB4h_EINtNtNtB4_6traits7collect12FromIteratorIB3v_B35_B4h_EE9from_iterBQ_E0B4U_EB2c_, symObjAddr: 0x0, symBinAddr: 0x534D4, symSize: 0x17C }
  - { offset: 0x9A51C, size: 0x8, addend: 0x0, symName: __RINvNtNtCsliVzVx4luf9_4core4iter8adapters11try_processINtNtB2_3map3MapINtNtCsaxBLFzn74Hr_3syn10punctuated4IterNtNtB1b_4data5FieldENCNvNtNtCsehVGFPP7CiK_11clap_derive7derives4args19collect_args_fields0ETRB1K_NtNtB2c_4item4ItemEINtNtB6_6result6ResultNtNtB6_7convert10InfallibleNtNtB1b_5error5ErrorENCINvXsn_B3F_IB3D_INtNtCs69QEzRJvHMp_5alloc3vec3VecB3d_EB4p_EINtNtNtB4_6traits7collect12FromIteratorIB3D_B3d_B4p_EE9from_iterBQ_E0B52_EB2c_, symObjAddr: 0x17C, symBinAddr: 0x53650, symSize: 0x17C }
  - { offset: 0x9A5E2, size: 0x8, addend: 0x0, symName: __RINvNtNtCsliVzVx4luf9_4core4iter8adapters11try_processINtNtB2_3map3MapINtNtCsaxBLFzn74Hr_3syn10punctuated4IterNtNtB1b_4data5FieldENCNvNtNtCsehVGFPP7CiK_11clap_derive7derives6parser13derive_parser0ETRB1K_NtNtB2c_4item4ItemEINtNtB6_6result6ResultNtNtB6_7convert10InfallibleNtNtB1b_5error5ErrorENCINvXsn_B3B_IB3z_INtNtCs69QEzRJvHMp_5alloc3vec3VecB39_EB4l_EINtNtNtB4_6traits7collect12FromIteratorIB3z_B39_B4l_EE9from_iterBQ_E0B4Y_EB2c_, symObjAddr: 0x2F8, symBinAddr: 0x537CC, symSize: 0x17C }
  - { offset: 0x9A6A8, size: 0x8, addend: 0x0, symName: __RINvNtNtCsliVzVx4luf9_4core4iter8adapters11try_processINtNtB2_3map3MapINtNtCsaxBLFzn74Hr_3syn10punctuated4IterNtNtB1b_4data7VariantENCNvNtNtCsehVGFPP7CiK_11clap_derive7derives10subcommand17derive_subcommand0ETRB1K_NtNtB2e_4item4ItemEINtNtB6_6result6ResultNtNtB6_7convert10InfallibleNtNtB1b_5error5ErrorENCINvXsn_B3M_IB3K_INtNtCs69QEzRJvHMp_5alloc3vec3VecB3k_EB4w_EINtNtNtB4_6traits7collect12FromIteratorIB3K_B3k_B4w_EE9from_iterBQ_E0B59_EB2e_, symObjAddr: 0x474, symBinAddr: 0x53948, symSize: 0x17C }
  - { offset: 0x9A76E, size: 0x8, addend: 0x0, symName: __RINvNtNtCsliVzVx4luf9_4core4iter8adapters11try_processINtNtB2_3map3MapINtNtCsaxBLFzn74Hr_3syn10punctuated4IterNtNtB1b_4data7VariantENCNvNtNtCsehVGFPP7CiK_11clap_derive7derives6parser13derive_parsers_0ETRB1K_NtNtB2e_4item4ItemEINtNtB6_6result6ResultNtNtB6_7convert10InfallibleNtNtB1b_5error5ErrorENCINvXsn_B3F_IB3D_INtNtCs69QEzRJvHMp_5alloc3vec3VecB3d_EB4p_EINtNtNtB4_6traits7collect12FromIteratorIB3D_B3d_B4p_EE9from_iterBQ_E0B52_EB2e_, symObjAddr: 0x5F0, symBinAddr: 0x53AC4, symSize: 0x17C }
  - { offset: 0x9A834, size: 0x8, addend: 0x0, symName: __RINvNtNtCsliVzVx4luf9_4core4iter8adapters11try_processINtNtB2_3map3MapINtNtNtB6_5slice4iter4IterTRNtNtCsaxBLFzn74Hr_3syn4data5FieldNtNtCsehVGFPP7CiK_11clap_derive4item4ItemEENCNvNtNtB29_7derives4args15gen_constructor0ENtCs3vPhoADqSdK_11proc_macro211TokenStreamINtNtB6_6result6ResultNtNtB6_7convert10InfallibleNtNtB1C_5error5ErrorENCINvXsn_B4d_IB4b_INtNtCs69QEzRJvHMp_5alloc3vec3VecB3u_EB4X_EINtNtNtB4_6traits7collect12FromIteratorIB4b_B3u_B4X_EE9from_iterBQ_E0B5A_EB29_, symObjAddr: 0x76C, symBinAddr: 0x53C40, symSize: 0x180 }
  - { offset: 0x9A8F9, size: 0x8, addend: 0x0, symName: __RINvNtNtCsliVzVx4luf9_4core4iter8adapters11try_processINtNtB2_3map3MapINtNtNtB6_5slice4iter4IterTRRNtNtCsaxBLFzn74Hr_3syn4data7VariantRNtNtCsehVGFPP7CiK_11clap_derive4item4ItemEENCNvNtNtB2d_7derives10subcommand18gen_has_subcommands1_0ENtCs3vPhoADqSdK_11proc_macro211TokenStreamINtNtB6_6result6ResultNtNtB6_7convert10InfallibleNtNtB1D_5error5ErrorENCINvXsn_B4u_IB4s_INtNtCs69QEzRJvHMp_5alloc3vec3VecB3L_EB5e_EINtNtNtB4_6traits7collect12FromIteratorIB4s_B3L_B5e_EE9from_iterBQ_E0B5R_EB2d_, symObjAddr: 0x8EC, symBinAddr: 0x53DC0, symSize: 0x180 }
  - { offset: 0x9A9BE, size: 0x8, addend: 0x0, symName: __RINvNtNtCsliVzVx4luf9_4core4iter8adapters11try_processINtNtB2_3map3MapINtNtNtB6_5slice4iter4IterTRRNtNtCsaxBLFzn74Hr_3syn4data7VariantRNtNtCsehVGFPP7CiK_11clap_derive4item4ItemEENCNvNtNtB2d_7derives10subcommand20gen_from_arg_matches0ENtCs3vPhoADqSdK_11proc_macro211TokenStreamINtNtB6_6result6ResultNtNtB6_7convert10InfallibleNtNtB1D_5error5ErrorENCINvXsn_B4t_IB4r_INtNtCs69QEzRJvHMp_5alloc3vec3VecB3K_EB5d_EINtNtNtB4_6traits7collect12FromIteratorIB4r_B3K_B5d_EE9from_iterBQ_E0B5Q_EB2d_, symObjAddr: 0xA6C, symBinAddr: 0x53F40, symSize: 0x18C }
  - { offset: 0x9AA85, size: 0x8, addend: 0x0, symName: __RINvNtNtCsliVzVx4luf9_4core4iter8adapters11try_processINtNtB2_3map3MapINtNtNtB6_5slice4iter4IterTRRNtNtCsaxBLFzn74Hr_3syn4data7VariantRNtNtCsehVGFPP7CiK_11clap_derive4item4ItemEENCNvNtNtB2d_7derives10subcommand20gen_from_arg_matchess_0ENtCs3vPhoADqSdK_11proc_macro211TokenStreamINtNtB6_6result6ResultNtNtB6_7convert10InfallibleNtNtB1D_5error5ErrorENCINvXsn_B4v_IB4t_INtNtCs69QEzRJvHMp_5alloc3vec3VecB3M_EB5f_EINtNtNtB4_6traits7collect12FromIteratorIB4t_B3M_B5f_EE9from_iterBQ_E0B5S_EB2d_, symObjAddr: 0xBF8, symBinAddr: 0x540CC, symSize: 0x180 }
  - { offset: 0x9AB4A, size: 0x8, addend: 0x0, symName: __RINvNtNtCsliVzVx4luf9_4core4iter8adapters11try_processINtNtB2_3map3MapINtNtNtB6_5slice4iter4IterTRRNtNtCsaxBLFzn74Hr_3syn4data7VariantRNtNtCsehVGFPP7CiK_11clap_derive4item4ItemEENCNvNtNtB2d_7derives10subcommand27gen_update_from_arg_matchess0_0ENtCs3vPhoADqSdK_11proc_macro211TokenStreamINtNtB6_6result6ResultNtNtB6_7convert10InfallibleNtNtB1D_5error5ErrorENCINvXsn_B4D_IB4B_INtNtCs69QEzRJvHMp_5alloc3vec3VecB3U_EB5n_EINtNtNtB4_6traits7collect12FromIteratorIB4B_B3U_B5n_EE9from_iterBQ_E0B60_EB2d_, symObjAddr: 0xD78, symBinAddr: 0x5424C, symSize: 0x180 }
  - { offset: 0x9AC0F, size: 0x8, addend: 0x0, symName: __RINvNtNtCsliVzVx4luf9_4core4iter8adapters11try_processINtNtB2_3map3MapINtNtNtB6_5slice4iter4IterTRRNtNtCsaxBLFzn74Hr_3syn4data7VariantRNtNtCsehVGFPP7CiK_11clap_derive4item4ItemEENCNvNtNtB2d_7derives10subcommand27gen_update_from_arg_matchess1_0ENtCs3vPhoADqSdK_11proc_macro211TokenStreamINtNtB6_6result6ResultNtNtB6_7convert10InfallibleNtNtB1D_5error5ErrorENCINvXsn_B4D_IB4B_INtNtCs69QEzRJvHMp_5alloc3vec3VecB3U_EB5n_EINtNtNtB4_6traits7collect12FromIteratorIB4B_B3U_B5n_EE9from_iterBQ_E0B60_EB2d_, symObjAddr: 0xEF8, symBinAddr: 0x543CC, symSize: 0x180 }
  - { offset: 0x9ACD9, size: 0x8, addend: 0x0, symName: __RINvXNtNtCsliVzVx4luf9_4core4iter8adaptersINtB3_12GenericShuntINtNtB3_3map3MapINtNtCsaxBLFzn74Hr_3syn10punctuated4IterNtNtB1j_4data5FieldENCNvNtNtCsehVGFPP7CiK_11clap_derive7derives4args11derive_args0EINtNtB7_6result6ResultNtNtB7_7convert10InfallibleNtNtB1j_5error5ErrorEENtNtNtB5_6traits8iterator8Iterator8try_folduNCINvNvB4m_12try_for_each4callTRB1S_NtNtB2k_4item4ItemEINtNtNtB7_3ops12control_flow11ControlFlowB5y_ENcNtB5X_5Break0E0B5X_EB2k_, symObjAddr: 0x1398, symBinAddr: 0x5486C, symSize: 0xC0 }
  - { offset: 0x9AD9E, size: 0x8, addend: 0x0, symName: __RINvXNtNtCsliVzVx4luf9_4core4iter8adaptersINtB3_12GenericShuntINtNtB3_3map3MapINtNtCsaxBLFzn74Hr_3syn10punctuated4IterNtNtB1j_4data5FieldENCNvNtNtCsehVGFPP7CiK_11clap_derive7derives4args19collect_args_fields0EINtNtB7_6result6ResultNtNtB7_7convert10InfallibleNtNtB1j_5error5ErrorEENtNtNtB5_6traits8iterator8Iterator8try_folduNCINvNvB4u_12try_for_each4callTRB1S_NtNtB2k_4item4ItemEINtNtNtB7_3ops12control_flow11ControlFlowB5G_ENcNtB65_5Break0E0B65_EB2k_, symObjAddr: 0x1458, symBinAddr: 0x5492C, symSize: 0xC0 }
  - { offset: 0x9AE63, size: 0x8, addend: 0x0, symName: __RINvXNtNtCsliVzVx4luf9_4core4iter8adaptersINtB3_12GenericShuntINtNtB3_3map3MapINtNtCsaxBLFzn74Hr_3syn10punctuated4IterNtNtB1j_4data5FieldENCNvNtNtCsehVGFPP7CiK_11clap_derive7derives6parser13derive_parser0EINtNtB7_6result6ResultNtNtB7_7convert10InfallibleNtNtB1j_5error5ErrorEENtNtNtB5_6traits8iterator8Iterator8try_folduNCINvNvB4q_12try_for_each4callTRB1S_NtNtB2k_4item4ItemEINtNtNtB7_3ops12control_flow11ControlFlowB5C_ENcNtB61_5Break0E0B61_EB2k_, symObjAddr: 0x1518, symBinAddr: 0x549EC, symSize: 0xC0 }
  - { offset: 0x9AF28, size: 0x8, addend: 0x0, symName: __RINvXNtNtCsliVzVx4luf9_4core4iter8adaptersINtB3_12GenericShuntINtNtB3_3map3MapINtNtCsaxBLFzn74Hr_3syn10punctuated4IterNtNtB1j_4data7VariantENCNvNtNtCsehVGFPP7CiK_11clap_derive7derives10subcommand17derive_subcommand0EINtNtB7_6result6ResultNtNtB7_7convert10InfallibleNtNtB1j_5error5ErrorEENtNtNtB5_6traits8iterator8Iterator8try_folduNCINvNvB4B_12try_for_each4callTRB1S_NtNtB2m_4item4ItemEINtNtNtB7_3ops12control_flow11ControlFlowB5N_ENcNtB6c_5Break0E0B6c_EB2m_, symObjAddr: 0x15D8, symBinAddr: 0x54AAC, symSize: 0xC0 }
  - { offset: 0x9AFED, size: 0x8, addend: 0x0, symName: __RINvXNtNtCsliVzVx4luf9_4core4iter8adaptersINtB3_12GenericShuntINtNtB3_3map3MapINtNtCsaxBLFzn74Hr_3syn10punctuated4IterNtNtB1j_4data7VariantENCNvNtNtCsehVGFPP7CiK_11clap_derive7derives6parser13derive_parsers_0EINtNtB7_6result6ResultNtNtB7_7convert10InfallibleNtNtB1j_5error5ErrorEENtNtNtB5_6traits8iterator8Iterator8try_folduNCINvNvB4u_12try_for_each4callTRB1S_NtNtB2m_4item4ItemEINtNtNtB7_3ops12control_flow11ControlFlowB5G_ENcNtB65_5Break0E0B65_EB2m_, symObjAddr: 0x1698, symBinAddr: 0x54B6C, symSize: 0xC0 }
  - { offset: 0x9B0B2, size: 0x8, addend: 0x0, symName: __RINvXNtNtCsliVzVx4luf9_4core4iter8adaptersINtB3_12GenericShuntINtNtB3_3map3MapINtNtNtB7_5slice4iter4IterTRNtNtCsaxBLFzn74Hr_3syn4data5FieldNtNtCsehVGFPP7CiK_11clap_derive4item4ItemEENCNvNtNtB2h_7derives4args15gen_constructor0EINtNtB7_6result6ResultNtNtB7_7convert10InfallibleNtNtB1K_5error5ErrorEENtNtNtB5_6traits8iterator8Iterator8try_folduNCINvNvB4L_12try_for_each4callNtCs3vPhoADqSdK_11proc_macro211TokenStreamINtNtNtB7_3ops12control_flow11ControlFlowB5X_ENcNtB6D_5Break0E0B6D_EB2h_, symObjAddr: 0x1758, symBinAddr: 0x54C2C, symSize: 0xA4 }
  - { offset: 0x9B176, size: 0x8, addend: 0x0, symName: __RINvXNtNtCsliVzVx4luf9_4core4iter8adaptersINtB3_12GenericShuntINtNtB3_3map3MapINtNtNtB7_5slice4iter4IterTRRNtNtCsaxBLFzn74Hr_3syn4data7VariantRNtNtCsehVGFPP7CiK_11clap_derive4item4ItemEENCNvNtNtB2l_7derives10subcommand18gen_has_subcommands1_0EINtNtB7_6result6ResultNtNtB7_7convert10InfallibleNtNtB1L_5error5ErrorEENtNtNtB5_6traits8iterator8Iterator8try_folduNCINvNvB52_12try_for_each4callNtCs3vPhoADqSdK_11proc_macro211TokenStreamINtNtNtB7_3ops12control_flow11ControlFlowB6e_ENcNtB6U_5Break0E0B6U_EB2l_, symObjAddr: 0x17FC, symBinAddr: 0x54CD0, symSize: 0xA4 }
  - { offset: 0x9B23A, size: 0x8, addend: 0x0, symName: __RINvXNtNtCsliVzVx4luf9_4core4iter8adaptersINtB3_12GenericShuntINtNtB3_3map3MapINtNtNtB7_5slice4iter4IterTRRNtNtCsaxBLFzn74Hr_3syn4data7VariantRNtNtCsehVGFPP7CiK_11clap_derive4item4ItemEENCNvNtNtB2l_7derives10subcommand20gen_from_arg_matches0EINtNtB7_6result6ResultNtNtB7_7convert10InfallibleNtNtB1L_5error5ErrorEENtNtNtB5_6traits8iterator8Iterator8try_folduNCINvNvB51_12try_for_each4callNtCs3vPhoADqSdK_11proc_macro211TokenStreamINtNtNtB7_3ops12control_flow11ControlFlowB6d_ENcNtB6T_5Break0E0B6T_EB2l_, symObjAddr: 0x18A0, symBinAddr: 0x54D74, symSize: 0xA4 }
  - { offset: 0x9B2FE, size: 0x8, addend: 0x0, symName: __RINvXNtNtCsliVzVx4luf9_4core4iter8adaptersINtB3_12GenericShuntINtNtB3_3map3MapINtNtNtB7_5slice4iter4IterTRRNtNtCsaxBLFzn74Hr_3syn4data7VariantRNtNtCsehVGFPP7CiK_11clap_derive4item4ItemEENCNvNtNtB2l_7derives10subcommand20gen_from_arg_matchess_0EINtNtB7_6result6ResultNtNtB7_7convert10InfallibleNtNtB1L_5error5ErrorEENtNtNtB5_6traits8iterator8Iterator8try_folduNCINvNvB53_12try_for_each4callNtCs3vPhoADqSdK_11proc_macro211TokenStreamINtNtNtB7_3ops12control_flow11ControlFlowB6f_ENcNtB6V_5Break0E0B6V_EB2l_, symObjAddr: 0x1944, symBinAddr: 0x54E18, symSize: 0xA4 }
  - { offset: 0x9B3C2, size: 0x8, addend: 0x0, symName: __RINvXNtNtCsliVzVx4luf9_4core4iter8adaptersINtB3_12GenericShuntINtNtB3_3map3MapINtNtNtB7_5slice4iter4IterTRRNtNtCsaxBLFzn74Hr_3syn4data7VariantRNtNtCsehVGFPP7CiK_11clap_derive4item4ItemEENCNvNtNtB2l_7derives10subcommand27gen_update_from_arg_matchess0_0EINtNtB7_6result6ResultNtNtB7_7convert10InfallibleNtNtB1L_5error5ErrorEENtNtNtB5_6traits8iterator8Iterator8try_folduNCINvNvB5b_12try_for_each4callNtCs3vPhoADqSdK_11proc_macro211TokenStreamINtNtNtB7_3ops12control_flow11ControlFlowB6n_ENcNtB73_5Break0E0B73_EB2l_, symObjAddr: 0x19E8, symBinAddr: 0x54EBC, symSize: 0xA4 }
  - { offset: 0x9B486, size: 0x8, addend: 0x0, symName: __RINvXNtNtCsliVzVx4luf9_4core4iter8adaptersINtB3_12GenericShuntINtNtB3_3map3MapINtNtNtB7_5slice4iter4IterTRRNtNtCsaxBLFzn74Hr_3syn4data7VariantRNtNtCsehVGFPP7CiK_11clap_derive4item4ItemEENCNvNtNtB2l_7derives10subcommand27gen_update_from_arg_matchess1_0EINtNtB7_6result6ResultNtNtB7_7convert10InfallibleNtNtB1L_5error5ErrorEENtNtNtB5_6traits8iterator8Iterator8try_folduNCINvNvB5b_12try_for_each4callNtCs3vPhoADqSdK_11proc_macro211TokenStreamINtNtNtB7_3ops12control_flow11ControlFlowB6n_ENcNtB73_5Break0E0B73_EB2l_, symObjAddr: 0x1A8C, symBinAddr: 0x54F60, symSize: 0xA4 }
  - { offset: 0x9B54F, size: 0x8, addend: 0x0, symName: __RNCINvXNtNtCsliVzVx4luf9_4core4iter8adaptersINtB5_12GenericShuntINtNtB5_3map3MapINtNtCsaxBLFzn74Hr_3syn10punctuated4IterNtNtB1l_4data5FieldENCNvNtNtCsehVGFPP7CiK_11clap_derive7derives4args11derive_args0EINtNtB9_6result6ResultNtNtB9_7convert10InfallibleNtNtB1l_5error5ErrorEENtNtNtB7_6traits8iterator8Iterator8try_folduNCINvNvB4o_12try_for_each4callTRB1U_NtNtB2m_4item4ItemEINtNtNtB9_3ops12control_flow11ControlFlowB5A_ENcNtB5Z_5Break0E0B5Z_E0B2m_, symObjAddr: 0x1B30, symBinAddr: 0x55004, symSize: 0x22C }
  - { offset: 0x9B647, size: 0x8, addend: 0x0, symName: __RNCINvXNtNtCsliVzVx4luf9_4core4iter8adaptersINtB5_12GenericShuntINtNtB5_3map3MapINtNtCsaxBLFzn74Hr_3syn10punctuated4IterNtNtB1l_4data5FieldENCNvNtNtCsehVGFPP7CiK_11clap_derive7derives4args19collect_args_fields0EINtNtB9_6result6ResultNtNtB9_7convert10InfallibleNtNtB1l_5error5ErrorEENtNtNtB7_6traits8iterator8Iterator8try_folduNCINvNvB4w_12try_for_each4callTRB1U_NtNtB2m_4item4ItemEINtNtNtB9_3ops12control_flow11ControlFlowB5I_ENcNtB67_5Break0E0B67_E0B2m_, symObjAddr: 0x1D5C, symBinAddr: 0x55230, symSize: 0x22C }
  - { offset: 0x9B73F, size: 0x8, addend: 0x0, symName: __RNCINvXNtNtCsliVzVx4luf9_4core4iter8adaptersINtB5_12GenericShuntINtNtB5_3map3MapINtNtCsaxBLFzn74Hr_3syn10punctuated4IterNtNtB1l_4data5FieldENCNvNtNtCsehVGFPP7CiK_11clap_derive7derives6parser13derive_parser0EINtNtB9_6result6ResultNtNtB9_7convert10InfallibleNtNtB1l_5error5ErrorEENtNtNtB7_6traits8iterator8Iterator8try_folduNCINvNvB4s_12try_for_each4callTRB1U_NtNtB2m_4item4ItemEINtNtNtB9_3ops12control_flow11ControlFlowB5E_ENcNtB63_5Break0E0B63_E0B2m_, symObjAddr: 0x1F88, symBinAddr: 0x5545C, symSize: 0x22C }
  - { offset: 0x9B837, size: 0x8, addend: 0x0, symName: __RNCINvXNtNtCsliVzVx4luf9_4core4iter8adaptersINtB5_12GenericShuntINtNtB5_3map3MapINtNtCsaxBLFzn74Hr_3syn10punctuated4IterNtNtB1l_4data7VariantENCNvNtNtCsehVGFPP7CiK_11clap_derive7derives10subcommand17derive_subcommand0EINtNtB9_6result6ResultNtNtB9_7convert10InfallibleNtNtB1l_5error5ErrorEENtNtNtB7_6traits8iterator8Iterator8try_folduNCINvNvB4D_12try_for_each4callTRB1U_NtNtB2o_4item4ItemEINtNtNtB9_3ops12control_flow11ControlFlowB5P_ENcNtB6e_5Break0E0B6e_E0B2o_, symObjAddr: 0x21B4, symBinAddr: 0x55688, symSize: 0x22C }
  - { offset: 0x9B92F, size: 0x8, addend: 0x0, symName: __RNCINvXNtNtCsliVzVx4luf9_4core4iter8adaptersINtB5_12GenericShuntINtNtB5_3map3MapINtNtCsaxBLFzn74Hr_3syn10punctuated4IterNtNtB1l_4data7VariantENCNvNtNtCsehVGFPP7CiK_11clap_derive7derives6parser13derive_parsers_0EINtNtB9_6result6ResultNtNtB9_7convert10InfallibleNtNtB1l_5error5ErrorEENtNtNtB7_6traits8iterator8Iterator8try_folduNCINvNvB4w_12try_for_each4callTRB1U_NtNtB2o_4item4ItemEINtNtNtB9_3ops12control_flow11ControlFlowB5I_ENcNtB67_5Break0E0B67_E0B2o_, symObjAddr: 0x23E0, symBinAddr: 0x558B4, symSize: 0x22C }
  - { offset: 0x9BA27, size: 0x8, addend: 0x0, symName: __RNCINvXNtNtCsliVzVx4luf9_4core4iter8adaptersINtB5_12GenericShuntINtNtB5_3map3MapINtNtNtB9_5slice4iter4IterTRNtNtCsaxBLFzn74Hr_3syn4data5FieldNtNtCsehVGFPP7CiK_11clap_derive4item4ItemEENCNvNtNtB2j_7derives4args15gen_constructor0EINtNtB9_6result6ResultNtNtB9_7convert10InfallibleNtNtB1M_5error5ErrorEENtNtNtB7_6traits8iterator8Iterator8try_folduNCINvNvB4N_12try_for_each4callNtCs3vPhoADqSdK_11proc_macro211TokenStreamINtNtNtB9_3ops12control_flow11ControlFlowB5Z_ENcNtB6F_5Break0E0B6F_E0B2j_, symObjAddr: 0x260C, symBinAddr: 0x55AE0, symSize: 0x1EC }
  - { offset: 0x9BB1F, size: 0x8, addend: 0x0, symName: __RNCINvXNtNtCsliVzVx4luf9_4core4iter8adaptersINtB5_12GenericShuntINtNtB5_3map3MapINtNtNtB9_5slice4iter4IterTRRNtNtCsaxBLFzn74Hr_3syn4data7VariantRNtNtCsehVGFPP7CiK_11clap_derive4item4ItemEENCNvNtNtB2n_7derives10subcommand18gen_has_subcommands1_0EINtNtB9_6result6ResultNtNtB9_7convert10InfallibleNtNtB1N_5error5ErrorEENtNtNtB7_6traits8iterator8Iterator8try_folduNCINvNvB54_12try_for_each4callNtCs3vPhoADqSdK_11proc_macro211TokenStreamINtNtNtB9_3ops12control_flow11ControlFlowB6g_ENcNtB6W_5Break0E0B6W_E0B2n_, symObjAddr: 0x27F8, symBinAddr: 0x55CCC, symSize: 0x1EC }
  - { offset: 0x9BC17, size: 0x8, addend: 0x0, symName: __RNCINvXNtNtCsliVzVx4luf9_4core4iter8adaptersINtB5_12GenericShuntINtNtB5_3map3MapINtNtNtB9_5slice4iter4IterTRRNtNtCsaxBLFzn74Hr_3syn4data7VariantRNtNtCsehVGFPP7CiK_11clap_derive4item4ItemEENCNvNtNtB2n_7derives10subcommand20gen_from_arg_matches0EINtNtB9_6result6ResultNtNtB9_7convert10InfallibleNtNtB1N_5error5ErrorEENtNtNtB7_6traits8iterator8Iterator8try_folduNCINvNvB53_12try_for_each4callNtCs3vPhoADqSdK_11proc_macro211TokenStreamINtNtNtB9_3ops12control_flow11ControlFlowB6f_ENcNtB6V_5Break0E0B6V_E0B2n_, symObjAddr: 0x29E4, symBinAddr: 0x55EB8, symSize: 0x1EC }
  - { offset: 0x9BD0F, size: 0x8, addend: 0x0, symName: __RNCINvXNtNtCsliVzVx4luf9_4core4iter8adaptersINtB5_12GenericShuntINtNtB5_3map3MapINtNtNtB9_5slice4iter4IterTRRNtNtCsaxBLFzn74Hr_3syn4data7VariantRNtNtCsehVGFPP7CiK_11clap_derive4item4ItemEENCNvNtNtB2n_7derives10subcommand20gen_from_arg_matchess_0EINtNtB9_6result6ResultNtNtB9_7convert10InfallibleNtNtB1N_5error5ErrorEENtNtNtB7_6traits8iterator8Iterator8try_folduNCINvNvB55_12try_for_each4callNtCs3vPhoADqSdK_11proc_macro211TokenStreamINtNtNtB9_3ops12control_flow11ControlFlowB6h_ENcNtB6X_5Break0E0B6X_E0B2n_, symObjAddr: 0x2BD0, symBinAddr: 0x560A4, symSize: 0x1EC }
  - { offset: 0x9BE07, size: 0x8, addend: 0x0, symName: __RNCINvXNtNtCsliVzVx4luf9_4core4iter8adaptersINtB5_12GenericShuntINtNtB5_3map3MapINtNtNtB9_5slice4iter4IterTRRNtNtCsaxBLFzn74Hr_3syn4data7VariantRNtNtCsehVGFPP7CiK_11clap_derive4item4ItemEENCNvNtNtB2n_7derives10subcommand27gen_update_from_arg_matchess0_0EINtNtB9_6result6ResultNtNtB9_7convert10InfallibleNtNtB1N_5error5ErrorEENtNtNtB7_6traits8iterator8Iterator8try_folduNCINvNvB5d_12try_for_each4callNtCs3vPhoADqSdK_11proc_macro211TokenStreamINtNtNtB9_3ops12control_flow11ControlFlowB6p_ENcNtB75_5Break0E0B75_E0B2n_, symObjAddr: 0x2DBC, symBinAddr: 0x56290, symSize: 0x1EC }
  - { offset: 0x9BEFF, size: 0x8, addend: 0x0, symName: __RNCINvXNtNtCsliVzVx4luf9_4core4iter8adaptersINtB5_12GenericShuntINtNtB5_3map3MapINtNtNtB9_5slice4iter4IterTRRNtNtCsaxBLFzn74Hr_3syn4data7VariantRNtNtCsehVGFPP7CiK_11clap_derive4item4ItemEENCNvNtNtB2n_7derives10subcommand27gen_update_from_arg_matchess1_0EINtNtB9_6result6ResultNtNtB9_7convert10InfallibleNtNtB1N_5error5ErrorEENtNtNtB7_6traits8iterator8Iterator8try_folduNCINvNvB5d_12try_for_each4callNtCs3vPhoADqSdK_11proc_macro211TokenStreamINtNtNtB9_3ops12control_flow11ControlFlowB6p_ENcNtB75_5Break0E0B75_E0B2n_, symObjAddr: 0x2FA8, symBinAddr: 0x5647C, symSize: 0x1EC }
  - { offset: 0x9BFF8, size: 0x8, addend: 0x0, symName: __RNvXNtNtCsliVzVx4luf9_4core4iter8adaptersINtB2_12GenericShuntINtNtB2_3map3MapINtNtCsaxBLFzn74Hr_3syn10punctuated4IterNtNtB1i_4data5FieldENCNvNtNtCsehVGFPP7CiK_11clap_derive7derives4args11derive_args0EINtNtB6_6result6ResultNtNtB6_7convert10InfallibleNtNtB1i_5error5ErrorEENtNtNtB4_6traits8iterator8Iterator4nextB2j_, symObjAddr: 0x3810, symBinAddr: 0x56CE4, symSize: 0xB0 }
  - { offset: 0x9C0C7, size: 0x8, addend: 0x0, symName: __RNvXNtNtCsliVzVx4luf9_4core4iter8adaptersINtB2_12GenericShuntINtNtB2_3map3MapINtNtCsaxBLFzn74Hr_3syn10punctuated4IterNtNtB1i_4data5FieldENCNvNtNtCsehVGFPP7CiK_11clap_derive7derives4args11derive_args0EINtNtB6_6result6ResultNtNtB6_7convert10InfallibleNtNtB1i_5error5ErrorEENtNtNtB4_6traits8iterator8Iterator9size_hintB2j_, symObjAddr: 0x38C0, symBinAddr: 0x56D94, symSize: 0xA8 }
  - { offset: 0x9C14D, size: 0x8, addend: 0x0, symName: __RNvXNtNtCsliVzVx4luf9_4core4iter8adaptersINtB2_12GenericShuntINtNtB2_3map3MapINtNtCsaxBLFzn74Hr_3syn10punctuated4IterNtNtB1i_4data5FieldENCNvNtNtCsehVGFPP7CiK_11clap_derive7derives4args19collect_args_fields0EINtNtB6_6result6ResultNtNtB6_7convert10InfallibleNtNtB1i_5error5ErrorEENtNtNtB4_6traits8iterator8Iterator4nextB2j_, symObjAddr: 0x3968, symBinAddr: 0x56E3C, symSize: 0xB0 }
  - { offset: 0x9C21C, size: 0x8, addend: 0x0, symName: __RNvXNtNtCsliVzVx4luf9_4core4iter8adaptersINtB2_12GenericShuntINtNtB2_3map3MapINtNtCsaxBLFzn74Hr_3syn10punctuated4IterNtNtB1i_4data5FieldENCNvNtNtCsehVGFPP7CiK_11clap_derive7derives4args19collect_args_fields0EINtNtB6_6result6ResultNtNtB6_7convert10InfallibleNtNtB1i_5error5ErrorEENtNtNtB4_6traits8iterator8Iterator9size_hintB2j_, symObjAddr: 0x3A18, symBinAddr: 0x56EEC, symSize: 0xA8 }
  - { offset: 0x9C2A2, size: 0x8, addend: 0x0, symName: __RNvXNtNtCsliVzVx4luf9_4core4iter8adaptersINtB2_12GenericShuntINtNtB2_3map3MapINtNtCsaxBLFzn74Hr_3syn10punctuated4IterNtNtB1i_4data5FieldENCNvNtNtCsehVGFPP7CiK_11clap_derive7derives6parser13derive_parser0EINtNtB6_6result6ResultNtNtB6_7convert10InfallibleNtNtB1i_5error5ErrorEENtNtNtB4_6traits8iterator8Iterator4nextB2j_, symObjAddr: 0x3AC0, symBinAddr: 0x56F94, symSize: 0xB0 }
  - { offset: 0x9C371, size: 0x8, addend: 0x0, symName: __RNvXNtNtCsliVzVx4luf9_4core4iter8adaptersINtB2_12GenericShuntINtNtB2_3map3MapINtNtCsaxBLFzn74Hr_3syn10punctuated4IterNtNtB1i_4data5FieldENCNvNtNtCsehVGFPP7CiK_11clap_derive7derives6parser13derive_parser0EINtNtB6_6result6ResultNtNtB6_7convert10InfallibleNtNtB1i_5error5ErrorEENtNtNtB4_6traits8iterator8Iterator9size_hintB2j_, symObjAddr: 0x3B70, symBinAddr: 0x57044, symSize: 0xA8 }
  - { offset: 0x9C3F7, size: 0x8, addend: 0x0, symName: __RNvXNtNtCsliVzVx4luf9_4core4iter8adaptersINtB2_12GenericShuntINtNtB2_3map3MapINtNtCsaxBLFzn74Hr_3syn10punctuated4IterNtNtB1i_4data7VariantENCNvNtNtCsehVGFPP7CiK_11clap_derive7derives10subcommand17derive_subcommand0EINtNtB6_6result6ResultNtNtB6_7convert10InfallibleNtNtB1i_5error5ErrorEENtNtNtB4_6traits8iterator8Iterator4nextB2l_, symObjAddr: 0x3C18, symBinAddr: 0x570EC, symSize: 0xB0 }
  - { offset: 0x9C4C6, size: 0x8, addend: 0x0, symName: __RNvXNtNtCsliVzVx4luf9_4core4iter8adaptersINtB2_12GenericShuntINtNtB2_3map3MapINtNtCsaxBLFzn74Hr_3syn10punctuated4IterNtNtB1i_4data7VariantENCNvNtNtCsehVGFPP7CiK_11clap_derive7derives10subcommand17derive_subcommand0EINtNtB6_6result6ResultNtNtB6_7convert10InfallibleNtNtB1i_5error5ErrorEENtNtNtB4_6traits8iterator8Iterator9size_hintB2l_, symObjAddr: 0x3CC8, symBinAddr: 0x5719C, symSize: 0xA8 }
  - { offset: 0x9C54C, size: 0x8, addend: 0x0, symName: __RNvXNtNtCsliVzVx4luf9_4core4iter8adaptersINtB2_12GenericShuntINtNtB2_3map3MapINtNtCsaxBLFzn74Hr_3syn10punctuated4IterNtNtB1i_4data7VariantENCNvNtNtCsehVGFPP7CiK_11clap_derive7derives6parser13derive_parsers_0EINtNtB6_6result6ResultNtNtB6_7convert10InfallibleNtNtB1i_5error5ErrorEENtNtNtB4_6traits8iterator8Iterator4nextB2l_, symObjAddr: 0x3D70, symBinAddr: 0x57244, symSize: 0xB0 }
  - { offset: 0x9C61B, size: 0x8, addend: 0x0, symName: __RNvXNtNtCsliVzVx4luf9_4core4iter8adaptersINtB2_12GenericShuntINtNtB2_3map3MapINtNtCsaxBLFzn74Hr_3syn10punctuated4IterNtNtB1i_4data7VariantENCNvNtNtCsehVGFPP7CiK_11clap_derive7derives6parser13derive_parsers_0EINtNtB6_6result6ResultNtNtB6_7convert10InfallibleNtNtB1i_5error5ErrorEENtNtNtB4_6traits8iterator8Iterator9size_hintB2l_, symObjAddr: 0x3E20, symBinAddr: 0x572F4, symSize: 0xA8 }
  - { offset: 0x9C6A1, size: 0x8, addend: 0x0, symName: __RNvXNtNtCsliVzVx4luf9_4core4iter8adaptersINtB2_12GenericShuntINtNtB2_3map3MapINtNtNtB6_5slice4iter4IterTRNtNtCsaxBLFzn74Hr_3syn4data5FieldNtNtCsehVGFPP7CiK_11clap_derive4item4ItemEENCNvNtNtB2g_7derives4args15gen_constructor0EINtNtB6_6result6ResultNtNtB6_7convert10InfallibleNtNtB1J_5error5ErrorEENtNtNtB4_6traits8iterator8Iterator4nextB2g_, symObjAddr: 0x3EC8, symBinAddr: 0x5739C, symSize: 0xA4 }
  - { offset: 0x9C76F, size: 0x8, addend: 0x0, symName: __RNvXNtNtCsliVzVx4luf9_4core4iter8adaptersINtB2_12GenericShuntINtNtB2_3map3MapINtNtNtB6_5slice4iter4IterTRNtNtCsaxBLFzn74Hr_3syn4data5FieldNtNtCsehVGFPP7CiK_11clap_derive4item4ItemEENCNvNtNtB2g_7derives4args15gen_constructor0EINtNtB6_6result6ResultNtNtB6_7convert10InfallibleNtNtB1J_5error5ErrorEENtNtNtB4_6traits8iterator8Iterator9size_hintB2g_, symObjAddr: 0x3F6C, symBinAddr: 0x57440, symSize: 0xA8 }
  - { offset: 0x9C7F5, size: 0x8, addend: 0x0, symName: __RNvXNtNtCsliVzVx4luf9_4core4iter8adaptersINtB2_12GenericShuntINtNtB2_3map3MapINtNtNtB6_5slice4iter4IterTRRNtNtCsaxBLFzn74Hr_3syn4data7VariantRNtNtCsehVGFPP7CiK_11clap_derive4item4ItemEENCNvNtNtB2k_7derives10subcommand18gen_has_subcommands1_0EINtNtB6_6result6ResultNtNtB6_7convert10InfallibleNtNtB1K_5error5ErrorEENtNtNtB4_6traits8iterator8Iterator4nextB2k_, symObjAddr: 0x4014, symBinAddr: 0x574E8, symSize: 0xA4 }
  - { offset: 0x9C8C3, size: 0x8, addend: 0x0, symName: __RNvXNtNtCsliVzVx4luf9_4core4iter8adaptersINtB2_12GenericShuntINtNtB2_3map3MapINtNtNtB6_5slice4iter4IterTRRNtNtCsaxBLFzn74Hr_3syn4data7VariantRNtNtCsehVGFPP7CiK_11clap_derive4item4ItemEENCNvNtNtB2k_7derives10subcommand18gen_has_subcommands1_0EINtNtB6_6result6ResultNtNtB6_7convert10InfallibleNtNtB1K_5error5ErrorEENtNtNtB4_6traits8iterator8Iterator9size_hintB2k_, symObjAddr: 0x40B8, symBinAddr: 0x5758C, symSize: 0xA8 }
  - { offset: 0x9C949, size: 0x8, addend: 0x0, symName: __RNvXNtNtCsliVzVx4luf9_4core4iter8adaptersINtB2_12GenericShuntINtNtB2_3map3MapINtNtNtB6_5slice4iter4IterTRRNtNtCsaxBLFzn74Hr_3syn4data7VariantRNtNtCsehVGFPP7CiK_11clap_derive4item4ItemEENCNvNtNtB2k_7derives10subcommand20gen_from_arg_matches0EINtNtB6_6result6ResultNtNtB6_7convert10InfallibleNtNtB1K_5error5ErrorEENtNtNtB4_6traits8iterator8Iterator4nextB2k_, symObjAddr: 0x4160, symBinAddr: 0x57634, symSize: 0xA4 }
  - { offset: 0x9CA17, size: 0x8, addend: 0x0, symName: __RNvXNtNtCsliVzVx4luf9_4core4iter8adaptersINtB2_12GenericShuntINtNtB2_3map3MapINtNtNtB6_5slice4iter4IterTRRNtNtCsaxBLFzn74Hr_3syn4data7VariantRNtNtCsehVGFPP7CiK_11clap_derive4item4ItemEENCNvNtNtB2k_7derives10subcommand20gen_from_arg_matches0EINtNtB6_6result6ResultNtNtB6_7convert10InfallibleNtNtB1K_5error5ErrorEENtNtNtB4_6traits8iterator8Iterator9size_hintB2k_, symObjAddr: 0x4204, symBinAddr: 0x576D8, symSize: 0xA8 }
  - { offset: 0x9CA9D, size: 0x8, addend: 0x0, symName: __RNvXNtNtCsliVzVx4luf9_4core4iter8adaptersINtB2_12GenericShuntINtNtB2_3map3MapINtNtNtB6_5slice4iter4IterTRRNtNtCsaxBLFzn74Hr_3syn4data7VariantRNtNtCsehVGFPP7CiK_11clap_derive4item4ItemEENCNvNtNtB2k_7derives10subcommand20gen_from_arg_matchess_0EINtNtB6_6result6ResultNtNtB6_7convert10InfallibleNtNtB1K_5error5ErrorEENtNtNtB4_6traits8iterator8Iterator4nextB2k_, symObjAddr: 0x42AC, symBinAddr: 0x57780, symSize: 0xA4 }
  - { offset: 0x9CB6B, size: 0x8, addend: 0x0, symName: __RNvXNtNtCsliVzVx4luf9_4core4iter8adaptersINtB2_12GenericShuntINtNtB2_3map3MapINtNtNtB6_5slice4iter4IterTRRNtNtCsaxBLFzn74Hr_3syn4data7VariantRNtNtCsehVGFPP7CiK_11clap_derive4item4ItemEENCNvNtNtB2k_7derives10subcommand20gen_from_arg_matchess_0EINtNtB6_6result6ResultNtNtB6_7convert10InfallibleNtNtB1K_5error5ErrorEENtNtNtB4_6traits8iterator8Iterator9size_hintB2k_, symObjAddr: 0x4350, symBinAddr: 0x57824, symSize: 0xA8 }
  - { offset: 0x9CBF1, size: 0x8, addend: 0x0, symName: __RNvXNtNtCsliVzVx4luf9_4core4iter8adaptersINtB2_12GenericShuntINtNtB2_3map3MapINtNtNtB6_5slice4iter4IterTRRNtNtCsaxBLFzn74Hr_3syn4data7VariantRNtNtCsehVGFPP7CiK_11clap_derive4item4ItemEENCNvNtNtB2k_7derives10subcommand27gen_update_from_arg_matchess0_0EINtNtB6_6result6ResultNtNtB6_7convert10InfallibleNtNtB1K_5error5ErrorEENtNtNtB4_6traits8iterator8Iterator4nextB2k_, symObjAddr: 0x43F8, symBinAddr: 0x578CC, symSize: 0xA4 }
  - { offset: 0x9CCBF, size: 0x8, addend: 0x0, symName: __RNvXNtNtCsliVzVx4luf9_4core4iter8adaptersINtB2_12GenericShuntINtNtB2_3map3MapINtNtNtB6_5slice4iter4IterTRRNtNtCsaxBLFzn74Hr_3syn4data7VariantRNtNtCsehVGFPP7CiK_11clap_derive4item4ItemEENCNvNtNtB2k_7derives10subcommand27gen_update_from_arg_matchess0_0EINtNtB6_6result6ResultNtNtB6_7convert10InfallibleNtNtB1K_5error5ErrorEENtNtNtB4_6traits8iterator8Iterator9size_hintB2k_, symObjAddr: 0x449C, symBinAddr: 0x57970, symSize: 0xA8 }
  - { offset: 0x9CD45, size: 0x8, addend: 0x0, symName: __RNvXNtNtCsliVzVx4luf9_4core4iter8adaptersINtB2_12GenericShuntINtNtB2_3map3MapINtNtNtB6_5slice4iter4IterTRRNtNtCsaxBLFzn74Hr_3syn4data7VariantRNtNtCsehVGFPP7CiK_11clap_derive4item4ItemEENCNvNtNtB2k_7derives10subcommand27gen_update_from_arg_matchess1_0EINtNtB6_6result6ResultNtNtB6_7convert10InfallibleNtNtB1K_5error5ErrorEENtNtNtB4_6traits8iterator8Iterator4nextB2k_, symObjAddr: 0x4544, symBinAddr: 0x57A18, symSize: 0xA4 }
  - { offset: 0x9CE13, size: 0x8, addend: 0x0, symName: __RNvXNtNtCsliVzVx4luf9_4core4iter8adaptersINtB2_12GenericShuntINtNtB2_3map3MapINtNtNtB6_5slice4iter4IterTRRNtNtCsaxBLFzn74Hr_3syn4data7VariantRNtNtCsehVGFPP7CiK_11clap_derive4item4ItemEENCNvNtNtB2k_7derives10subcommand27gen_update_from_arg_matchess1_0EINtNtB6_6result6ResultNtNtB6_7convert10InfallibleNtNtB1K_5error5ErrorEENtNtNtB4_6traits8iterator8Iterator9size_hintB2k_, symObjAddr: 0x45E8, symBinAddr: 0x57ABC, symSize: 0xA8 }
  - { offset: 0x9D8CD, size: 0x8, addend: 0x0, symName: __RNvXs_NtNtNtCsliVzVx4luf9_4core4iter6traits7collectINtNtB8_8adapters12GenericShuntINtNtBQ_3map3MapINtNtCsaxBLFzn74Hr_3syn10punctuated4IterNtNtB1D_4data5FieldENCNvNtNtCsehVGFPP7CiK_11clap_derive7derives4args11derive_args0EINtNtBa_6result6ResultNtNtBa_7convert10InfallibleNtNtB1D_5error5ErrorEENtB4_12IntoIterator9into_iterB2E_, symObjAddr: 0x48C8, symBinAddr: 0x57D9C, symSize: 0x14 }
  - { offset: 0x9D904, size: 0x8, addend: 0x0, symName: __RNvXs_NtNtNtCsliVzVx4luf9_4core4iter6traits7collectINtNtB8_8adapters12GenericShuntINtNtBQ_3map3MapINtNtCsaxBLFzn74Hr_3syn10punctuated4IterNtNtB1D_4data5FieldENCNvNtNtCsehVGFPP7CiK_11clap_derive7derives4args19collect_args_fields0EINtNtBa_6result6ResultNtNtBa_7convert10InfallibleNtNtB1D_5error5ErrorEENtB4_12IntoIterator9into_iterB2E_, symObjAddr: 0x48DC, symBinAddr: 0x57DB0, symSize: 0x14 }
  - { offset: 0x9D93B, size: 0x8, addend: 0x0, symName: __RNvXs_NtNtNtCsliVzVx4luf9_4core4iter6traits7collectINtNtB8_8adapters12GenericShuntINtNtBQ_3map3MapINtNtCsaxBLFzn74Hr_3syn10punctuated4IterNtNtB1D_4data5FieldENCNvNtNtCsehVGFPP7CiK_11clap_derive7derives6parser13derive_parser0EINtNtBa_6result6ResultNtNtBa_7convert10InfallibleNtNtB1D_5error5ErrorEENtB4_12IntoIterator9into_iterB2E_, symObjAddr: 0x48F0, symBinAddr: 0x57DC4, symSize: 0x14 }
  - { offset: 0x9D972, size: 0x8, addend: 0x0, symName: __RNvXs_NtNtNtCsliVzVx4luf9_4core4iter6traits7collectINtNtB8_8adapters12GenericShuntINtNtBQ_3map3MapINtNtCsaxBLFzn74Hr_3syn10punctuated4IterNtNtB1D_4data7VariantENCNvNtNtCsehVGFPP7CiK_11clap_derive7derives10subcommand17derive_subcommand0EINtNtBa_6result6ResultNtNtBa_7convert10InfallibleNtNtB1D_5error5ErrorEENtB4_12IntoIterator9into_iterB2G_, symObjAddr: 0x4904, symBinAddr: 0x57DD8, symSize: 0x14 }
  - { offset: 0x9D9A9, size: 0x8, addend: 0x0, symName: __RNvXs_NtNtNtCsliVzVx4luf9_4core4iter6traits7collectINtNtB8_8adapters12GenericShuntINtNtBQ_3map3MapINtNtCsaxBLFzn74Hr_3syn10punctuated4IterNtNtB1D_4data7VariantENCNvNtNtCsehVGFPP7CiK_11clap_derive7derives6parser13derive_parsers_0EINtNtBa_6result6ResultNtNtBa_7convert10InfallibleNtNtB1D_5error5ErrorEENtB4_12IntoIterator9into_iterB2G_, symObjAddr: 0x4918, symBinAddr: 0x57DEC, symSize: 0x14 }
  - { offset: 0x9D9E0, size: 0x8, addend: 0x0, symName: __RNvXs_NtNtNtCsliVzVx4luf9_4core4iter6traits7collectINtNtB8_8adapters12GenericShuntINtNtBQ_3map3MapINtNtNtBa_5slice4iter4IterTRNtNtCsaxBLFzn74Hr_3syn4data5FieldNtNtCsehVGFPP7CiK_11clap_derive4item4ItemEENCNvNtNtB2B_7derives4args15gen_constructor0EINtNtBa_6result6ResultNtNtBa_7convert10InfallibleNtNtB24_5error5ErrorEENtB4_12IntoIterator9into_iterB2B_, symObjAddr: 0x492C, symBinAddr: 0x57E00, symSize: 0x18 }
  - { offset: 0x9DA17, size: 0x8, addend: 0x0, symName: __RNvXs_NtNtNtCsliVzVx4luf9_4core4iter6traits7collectINtNtB8_8adapters12GenericShuntINtNtBQ_3map3MapINtNtNtBa_5slice4iter4IterTRRNtNtCsaxBLFzn74Hr_3syn4data7VariantRNtNtCsehVGFPP7CiK_11clap_derive4item4ItemEENCNvNtNtB2F_7derives10subcommand18gen_has_subcommands1_0EINtNtBa_6result6ResultNtNtBa_7convert10InfallibleNtNtB25_5error5ErrorEENtB4_12IntoIterator9into_iterB2F_, symObjAddr: 0x4944, symBinAddr: 0x57E18, symSize: 0x18 }
  - { offset: 0x9DA4E, size: 0x8, addend: 0x0, symName: __RNvXs_NtNtNtCsliVzVx4luf9_4core4iter6traits7collectINtNtB8_8adapters12GenericShuntINtNtBQ_3map3MapINtNtNtBa_5slice4iter4IterTRRNtNtCsaxBLFzn74Hr_3syn4data7VariantRNtNtCsehVGFPP7CiK_11clap_derive4item4ItemEENCNvNtNtB2F_7derives10subcommand20gen_from_arg_matches0EINtNtBa_6result6ResultNtNtBa_7convert10InfallibleNtNtB25_5error5ErrorEENtB4_12IntoIterator9into_iterB2F_, symObjAddr: 0x495C, symBinAddr: 0x57E30, symSize: 0x30 }
  - { offset: 0x9DA86, size: 0x8, addend: 0x0, symName: __RNvXs_NtNtNtCsliVzVx4luf9_4core4iter6traits7collectINtNtB8_8adapters12GenericShuntINtNtBQ_3map3MapINtNtNtBa_5slice4iter4IterTRRNtNtCsaxBLFzn74Hr_3syn4data7VariantRNtNtCsehVGFPP7CiK_11clap_derive4item4ItemEENCNvNtNtB2F_7derives10subcommand20gen_from_arg_matchess_0EINtNtBa_6result6ResultNtNtBa_7convert10InfallibleNtNtB25_5error5ErrorEENtB4_12IntoIterator9into_iterB2F_, symObjAddr: 0x498C, symBinAddr: 0x57E60, symSize: 0x18 }
  - { offset: 0x9DABD, size: 0x8, addend: 0x0, symName: __RNvXs_NtNtNtCsliVzVx4luf9_4core4iter6traits7collectINtNtB8_8adapters12GenericShuntINtNtBQ_3map3MapINtNtNtBa_5slice4iter4IterTRRNtNtCsaxBLFzn74Hr_3syn4data7VariantRNtNtCsehVGFPP7CiK_11clap_derive4item4ItemEENCNvNtNtB2F_7derives10subcommand27gen_update_from_arg_matchess0_0EINtNtBa_6result6ResultNtNtBa_7convert10InfallibleNtNtB25_5error5ErrorEENtB4_12IntoIterator9into_iterB2F_, symObjAddr: 0x49A4, symBinAddr: 0x57E78, symSize: 0x18 }
  - { offset: 0x9DAF4, size: 0x8, addend: 0x0, symName: __RNvXs_NtNtNtCsliVzVx4luf9_4core4iter6traits7collectINtNtB8_8adapters12GenericShuntINtNtBQ_3map3MapINtNtNtBa_5slice4iter4IterTRRNtNtCsaxBLFzn74Hr_3syn4data7VariantRNtNtCsehVGFPP7CiK_11clap_derive4item4ItemEENCNvNtNtB2F_7derives10subcommand27gen_update_from_arg_matchess1_0EINtNtBa_6result6ResultNtNtBa_7convert10InfallibleNtNtB25_5error5ErrorEENtB4_12IntoIterator9into_iterB2F_, symObjAddr: 0x49BC, symBinAddr: 0x57E90, symSize: 0x18 }
  - { offset: 0x9DB38, size: 0x8, addend: 0x0, symName: __RNvXsF_NtNtCsliVzVx4luf9_4core4iter5rangejNtB5_4Step17forward_uncheckedCsehVGFPP7CiK_11clap_derive, symObjAddr: 0x46B8, symBinAddr: 0x57B8C, symSize: 0x48 }
  - { offset: 0xA10CE, size: 0x8, addend: 0x0, symName: __RNcNtINtNtNtCsliVzVx4luf9_4core3ops12control_flow11ControlFlowNtCs3vPhoADqSdK_11proc_macro211TokenStreamE5Break0CsehVGFPP7CiK_11clap_derive, symObjAddr: 0x3194, symBinAddr: 0x56668, symSize: 0x14 }
  - { offset: 0xA1108, size: 0x8, addend: 0x0, symName: __RNcNtINtNtNtCsliVzVx4luf9_4core3ops12control_flow11ControlFlowTRNtNtCsaxBLFzn74Hr_3syn4data5FieldNtNtCsehVGFPP7CiK_11clap_derive4item4ItemEE5Break0B1B_, symObjAddr: 0x31A8, symBinAddr: 0x5667C, symSize: 0x30 }
  - { offset: 0xA1143, size: 0x8, addend: 0x0, symName: __RNcNtINtNtNtCsliVzVx4luf9_4core3ops12control_flow11ControlFlowTRNtNtCsaxBLFzn74Hr_3syn4data7VariantNtNtCsehVGFPP7CiK_11clap_derive4item4ItemEE5Break0B1D_, symObjAddr: 0x31D8, symBinAddr: 0x566AC, symSize: 0x30 }
  - { offset: 0xA1185, size: 0x8, addend: 0x0, symName: __RNvXNtNtCsliVzVx4luf9_4core3ops12control_flowINtB2_11ControlFlowIBI_NtCs3vPhoADqSdK_11proc_macro211TokenStreamEENtNtB4_9try_trait3Try11from_outputCsehVGFPP7CiK_11clap_derive, symObjAddr: 0x33A4, symBinAddr: 0x56878, symSize: 0x1C }
  - { offset: 0xA11C3, size: 0x8, addend: 0x0, symName: __RNvXNtNtCsliVzVx4luf9_4core3ops12control_flowINtB2_11ControlFlowIBI_NtCs3vPhoADqSdK_11proc_macro211TokenStreamEENtNtB4_9try_trait3Try6branchCsehVGFPP7CiK_11clap_derive, symObjAddr: 0x33C0, symBinAddr: 0x56894, symSize: 0x80 }
  - { offset: 0xA123C, size: 0x8, addend: 0x0, symName: __RNvXNtNtCsliVzVx4luf9_4core3ops12control_flowINtB2_11ControlFlowIBI_TRNtNtCsaxBLFzn74Hr_3syn4data5FieldNtNtCsehVGFPP7CiK_11clap_derive4item4ItemEEENtNtB4_9try_trait3Try11from_outputB1H_, symObjAddr: 0x3440, symBinAddr: 0x56914, symSize: 0x18 }
  - { offset: 0xA127A, size: 0x8, addend: 0x0, symName: __RNvXNtNtCsliVzVx4luf9_4core3ops12control_flowINtB2_11ControlFlowIBI_TRNtNtCsaxBLFzn74Hr_3syn4data5FieldNtNtCsehVGFPP7CiK_11clap_derive4item4ItemEEENtNtB4_9try_trait3Try6branchB1H_, symObjAddr: 0x3458, symBinAddr: 0x5692C, symSize: 0x94 }
  - { offset: 0xA12F2, size: 0x8, addend: 0x0, symName: __RNvXNtNtCsliVzVx4luf9_4core3ops12control_flowINtB2_11ControlFlowIBI_TRNtNtCsaxBLFzn74Hr_3syn4data7VariantNtNtCsehVGFPP7CiK_11clap_derive4item4ItemEEENtNtB4_9try_trait3Try11from_outputB1J_, symObjAddr: 0x34EC, symBinAddr: 0x569C0, symSize: 0x18 }
  - { offset: 0xA1330, size: 0x8, addend: 0x0, symName: __RNvXNtNtCsliVzVx4luf9_4core3ops12control_flowINtB2_11ControlFlowIBI_TRNtNtCsaxBLFzn74Hr_3syn4data7VariantNtNtCsehVGFPP7CiK_11clap_derive4item4ItemEEENtNtB4_9try_trait3Try6branchB1J_, symObjAddr: 0x3504, symBinAddr: 0x569D8, symSize: 0x94 }
  - { offset: 0xA13A8, size: 0x8, addend: 0x0, symName: __RNvXNtNtCsliVzVx4luf9_4core3ops12control_flowINtB2_11ControlFlowNtCs3vPhoADqSdK_11proc_macro211TokenStreamENtNtB4_9try_trait3Try11from_outputCsehVGFPP7CiK_11clap_derive, symObjAddr: 0x3598, symBinAddr: 0x56A6C, symSize: 0x18 }
  - { offset: 0xA13E6, size: 0x8, addend: 0x0, symName: __RNvXNtNtCsliVzVx4luf9_4core3ops12control_flowINtB2_11ControlFlowNtCs3vPhoADqSdK_11proc_macro211TokenStreamENtNtB4_9try_trait3Try6branchCsehVGFPP7CiK_11clap_derive, symObjAddr: 0x35B0, symBinAddr: 0x56A84, symSize: 0x78 }
  - { offset: 0xA145F, size: 0x8, addend: 0x0, symName: __RNvXNtNtCsliVzVx4luf9_4core3ops12control_flowINtB2_11ControlFlowNtNtCs69QEzRJvHMp_5alloc6string6StringENtNtB4_9try_trait3Try11from_outputCsehVGFPP7CiK_11clap_derive, symObjAddr: 0x3628, symBinAddr: 0x56AFC, symSize: 0x18 }
  - { offset: 0xA149D, size: 0x8, addend: 0x0, symName: __RNvXNtNtCsliVzVx4luf9_4core3ops12control_flowINtB2_11ControlFlowNtNtCs69QEzRJvHMp_5alloc6string6StringENtNtB4_9try_trait3Try6branchCsehVGFPP7CiK_11clap_derive, symObjAddr: 0x3640, symBinAddr: 0x56B14, symSize: 0x78 }
  - { offset: 0xA1516, size: 0x8, addend: 0x0, symName: __RNvXNtNtCsliVzVx4luf9_4core3ops12control_flowINtB2_11ControlFlowTRNtNtCsaxBLFzn74Hr_3syn4data5FieldNtNtCsehVGFPP7CiK_11clap_derive4item4ItemEENtNtB4_9try_trait3Try11from_outputB1D_, symObjAddr: 0x36B8, symBinAddr: 0x56B8C, symSize: 0x18 }
  - { offset: 0xA1554, size: 0x8, addend: 0x0, symName: __RNvXNtNtCsliVzVx4luf9_4core3ops12control_flowINtB2_11ControlFlowTRNtNtCsaxBLFzn74Hr_3syn4data5FieldNtNtCsehVGFPP7CiK_11clap_derive4item4ItemEENtNtB4_9try_trait3Try6branchB1D_, symObjAddr: 0x36D0, symBinAddr: 0x56BA4, symSize: 0x94 }
  - { offset: 0xA15CC, size: 0x8, addend: 0x0, symName: __RNvXNtNtCsliVzVx4luf9_4core3ops12control_flowINtB2_11ControlFlowTRNtNtCsaxBLFzn74Hr_3syn4data7VariantNtNtCsehVGFPP7CiK_11clap_derive4item4ItemEENtNtB4_9try_trait3Try11from_outputB1F_, symObjAddr: 0x3764, symBinAddr: 0x56C38, symSize: 0x18 }
  - { offset: 0xA160A, size: 0x8, addend: 0x0, symName: __RNvXNtNtCsliVzVx4luf9_4core3ops12control_flowINtB2_11ControlFlowTRNtNtCsaxBLFzn74Hr_3syn4data7VariantNtNtCsehVGFPP7CiK_11clap_derive4item4ItemEENtNtB4_9try_trait3Try6branchB1F_, symObjAddr: 0x377C, symBinAddr: 0x56C50, symSize: 0x94 }
  - { offset: 0xA1688, size: 0x8, addend: 0x0, symName: __RNvXs_NtNtCsliVzVx4luf9_4core3ops12control_flowINtB4_11ControlFlowIBK_NtCs3vPhoADqSdK_11proc_macro211TokenStreamEEINtNtB6_9try_trait12FromResidualIBK_B12_NtNtB8_7convert10InfallibleEE13from_residualCsehVGFPP7CiK_11clap_derive, symObjAddr: 0x4700, symBinAddr: 0x57BD4, symSize: 0x2C }
  - { offset: 0xA16E3, size: 0x8, addend: 0x0, symName: __RNvXs_NtNtCsliVzVx4luf9_4core3ops12control_flowINtB4_11ControlFlowIBK_TRNtNtCsaxBLFzn74Hr_3syn4data5FieldNtNtCsehVGFPP7CiK_11clap_derive4item4ItemEEEINtNtB6_9try_trait12FromResidualIBK_B12_NtNtB8_7convert10InfallibleEE13from_residualB1J_, symObjAddr: 0x472C, symBinAddr: 0x57C00, symSize: 0x50 }
  - { offset: 0xA173F, size: 0x8, addend: 0x0, symName: __RNvXs_NtNtCsliVzVx4luf9_4core3ops12control_flowINtB4_11ControlFlowIBK_TRNtNtCsaxBLFzn74Hr_3syn4data7VariantNtNtCsehVGFPP7CiK_11clap_derive4item4ItemEEEINtNtB6_9try_trait12FromResidualIBK_B12_NtNtB8_7convert10InfallibleEE13from_residualB1L_, symObjAddr: 0x477C, symBinAddr: 0x57C50, symSize: 0x50 }
  - { offset: 0xA179B, size: 0x8, addend: 0x0, symName: __RNvXs_NtNtCsliVzVx4luf9_4core3ops12control_flowINtB4_11ControlFlowNtCs3vPhoADqSdK_11proc_macro211TokenStreamEINtNtB6_9try_trait12FromResidualIBK_B12_NtNtB8_7convert10InfallibleEE13from_residualCsehVGFPP7CiK_11clap_derive, symObjAddr: 0x47CC, symBinAddr: 0x57CA0, symSize: 0x2C }
  - { offset: 0xA17F6, size: 0x8, addend: 0x0, symName: __RNvXs_NtNtCsliVzVx4luf9_4core3ops12control_flowINtB4_11ControlFlowNtNtCs69QEzRJvHMp_5alloc6string6StringEINtNtB6_9try_trait12FromResidualIBK_B12_NtNtB8_7convert10InfallibleEE13from_residualCsehVGFPP7CiK_11clap_derive, symObjAddr: 0x47F8, symBinAddr: 0x57CCC, symSize: 0x30 }
  - { offset: 0xA1851, size: 0x8, addend: 0x0, symName: __RNvXs_NtNtCsliVzVx4luf9_4core3ops12control_flowINtB4_11ControlFlowTRNtNtCsaxBLFzn74Hr_3syn4data5FieldNtNtCsehVGFPP7CiK_11clap_derive4item4ItemEEINtNtB6_9try_trait12FromResidualIBK_B12_NtNtB8_7convert10InfallibleEE13from_residualB1F_, symObjAddr: 0x4828, symBinAddr: 0x57CFC, symSize: 0x50 }
  - { offset: 0xA18AD, size: 0x8, addend: 0x0, symName: __RNvXs_NtNtCsliVzVx4luf9_4core3ops12control_flowINtB4_11ControlFlowTRNtNtCsaxBLFzn74Hr_3syn4data7VariantNtNtCsehVGFPP7CiK_11clap_derive4item4ItemEEINtNtB6_9try_trait12FromResidualIBK_B12_NtNtB8_7convert10InfallibleEE13from_residualB1H_, symObjAddr: 0x4878, symBinAddr: 0x57D4C, symSize: 0x50 }
  - { offset: 0xA1F54, size: 0x8, addend: 0x0, symName: __RNvXNtCsliVzVx4luf9_4core7convertReINtB2_5AsRefNtNtNtCs6P7HZtpS3La_3std3ffi6os_str5OsStrE6as_refCsehVGFPP7CiK_11clap_derive, symObjAddr: 0x3374, symBinAddr: 0x56848, symSize: 0x30 }
  - { offset: 0xA1F9A, size: 0x8, addend: 0x0, symName: __RNvXs1_NtCsliVzVx4luf9_4core7convertReINtB5_4IntoNtNtCs69QEzRJvHMp_5alloc6string6StringE4intoCsehVGFPP7CiK_11clap_derive, symObjAddr: 0x4690, symBinAddr: 0x57B64, symSize: 0x28 }
  - { offset: 0xA2524, size: 0x8, addend: 0x0, symName: __RNvNvNtNtCsliVzVx4luf9_4core4char7convert18from_u32_unchecked18precondition_checkCsehVGFPP7CiK_11clap_derive, symObjAddr: 0x32DC, symBinAddr: 0x567B0, symSize: 0x98 }
  - { offset: 0xA2771, size: 0x8, addend: 0x0, symName: __RINvNvNtCs6P7HZtpS3La_3std9panicking3try7do_callINtNtNtCsliVzVx4luf9_4core5panic11unwind_safe16AssertUnwindSafeNCINvNtNtCs39eHfitSTy1_10proc_macro6bridge6client10run_clientNtB1Q_11TokenStreamINtNtBR_6option6OptionB2K_ENCNCINvMs7_B1Q_INtB1Q_6ClientNtB1U_11TokenStreamB3X_E7expand1NvCsehVGFPP7CiK_11clap_derive10subcommandE00E0EuEB4v_, symObjAddr: 0x1078, symBinAddr: 0x5454C, symSize: 0x58 }
  - { offset: 0xA285E, size: 0x8, addend: 0x0, symName: __RINvNvNtCs6P7HZtpS3La_3std9panicking3try7do_callINtNtNtCsliVzVx4luf9_4core5panic11unwind_safe16AssertUnwindSafeNCINvNtNtCs39eHfitSTy1_10proc_macro6bridge6client10run_clientNtB1Q_11TokenStreamINtNtBR_6option6OptionB2K_ENCNCINvMs7_B1Q_INtB1Q_6ClientNtB1U_11TokenStreamB3X_E7expand1NvCsehVGFPP7CiK_11clap_derive10value_enumE00E0EuEB4v_, symObjAddr: 0x10D0, symBinAddr: 0x545A4, symSize: 0x58 }
  - { offset: 0xA294B, size: 0x8, addend: 0x0, symName: __RINvNvNtCs6P7HZtpS3La_3std9panicking3try7do_callINtNtNtCsliVzVx4luf9_4core5panic11unwind_safe16AssertUnwindSafeNCINvNtNtCs39eHfitSTy1_10proc_macro6bridge6client10run_clientNtB1Q_11TokenStreamINtNtBR_6option6OptionB2K_ENCNCINvMs7_B1Q_INtB1Q_6ClientNtB1U_11TokenStreamB3X_E7expand1NvCsehVGFPP7CiK_11clap_derive4argsE00E0EuEB4v_, symObjAddr: 0x1128, symBinAddr: 0x545FC, symSize: 0x58 }
  - { offset: 0xA2A38, size: 0x8, addend: 0x0, symName: __RINvNvNtCs6P7HZtpS3La_3std9panicking3try7do_callINtNtNtCsliVzVx4luf9_4core5panic11unwind_safe16AssertUnwindSafeNCINvNtNtCs39eHfitSTy1_10proc_macro6bridge6client10run_clientNtB1Q_11TokenStreamINtNtBR_6option6OptionB2K_ENCNCINvMs7_B1Q_INtB1Q_6ClientNtB1U_11TokenStreamB3X_E7expand1NvCsehVGFPP7CiK_11clap_derive6parserE00E0EuEB4v_, symObjAddr: 0x1180, symBinAddr: 0x54654, symSize: 0x58 }
  - { offset: 0xA2B25, size: 0x8, addend: 0x0, symName: __RINvNvNtCs6P7HZtpS3La_3std9panicking3try8do_catchINtNtNtCsliVzVx4luf9_4core5panic11unwind_safe16AssertUnwindSafeNCINvNtNtCs39eHfitSTy1_10proc_macro6bridge6client10run_clientNtB1R_11TokenStreamINtNtBS_6option6OptionB2L_ENCNCINvMs7_B1R_INtB1R_6ClientNtB1V_11TokenStreamB3Y_E7expand1NvCsehVGFPP7CiK_11clap_derive10subcommandE00E0EuEB4w_, symObjAddr: 0x11D8, symBinAddr: 0x546AC, symSize: 0x70 }
  - { offset: 0xA2BBA, size: 0x8, addend: 0x0, symName: __RINvNvNtCs6P7HZtpS3La_3std9panicking3try8do_catchINtNtNtCsliVzVx4luf9_4core5panic11unwind_safe16AssertUnwindSafeNCINvNtNtCs39eHfitSTy1_10proc_macro6bridge6client10run_clientNtB1R_11TokenStreamINtNtBS_6option6OptionB2L_ENCNCINvMs7_B1R_INtB1R_6ClientNtB1V_11TokenStreamB3Y_E7expand1NvCsehVGFPP7CiK_11clap_derive10value_enumE00E0EuEB4w_, symObjAddr: 0x1248, symBinAddr: 0x5471C, symSize: 0x70 }
  - { offset: 0xA2C4F, size: 0x8, addend: 0x0, symName: __RINvNvNtCs6P7HZtpS3La_3std9panicking3try8do_catchINtNtNtCsliVzVx4luf9_4core5panic11unwind_safe16AssertUnwindSafeNCINvNtNtCs39eHfitSTy1_10proc_macro6bridge6client10run_clientNtB1R_11TokenStreamINtNtBS_6option6OptionB2L_ENCNCINvMs7_B1R_INtB1R_6ClientNtB1V_11TokenStreamB3Y_E7expand1NvCsehVGFPP7CiK_11clap_derive4argsE00E0EuEB4w_, symObjAddr: 0x12B8, symBinAddr: 0x5478C, symSize: 0x70 }
  - { offset: 0xA2CE4, size: 0x8, addend: 0x0, symName: __RINvNvNtCs6P7HZtpS3La_3std9panicking3try8do_catchINtNtNtCsliVzVx4luf9_4core5panic11unwind_safe16AssertUnwindSafeNCINvNtNtCs39eHfitSTy1_10proc_macro6bridge6client10run_clientNtB1R_11TokenStreamINtNtBS_6option6OptionB2L_ENCNCINvMs7_B1R_INtB1R_6ClientNtB1V_11TokenStreamB3Y_E7expand1NvCsehVGFPP7CiK_11clap_derive6parserE00E0EuEB4w_, symObjAddr: 0x1328, symBinAddr: 0x547FC, symSize: 0x70 }
  - { offset: 0xA8B6A, size: 0x8, addend: 0x0, symName: __RNvNtCs69QEzRJvHMp_5alloc3fmt6formatCsehVGFPP7CiK_11clap_derive, symObjAddr: 0x3208, symBinAddr: 0x566DC, symSize: 0xD4 }
  - { offset: 0xA9FC1, size: 0x8, addend: 0x0, symName: __RINvYINtNtCsaxBLFzn74Hr_3syn10punctuated4IterNtNtB8_4data5FieldENtNtNtNtCsliVzVx4luf9_4core4iter6traits8iterator8Iterator3mapINtNtB18_6result6ResultTRBH_NtNtCsehVGFPP7CiK_11clap_derive4item4ItemENtNtB8_5error5ErrorENCNvNtNtB2v_7derives4args11derive_args0EB2v_, symObjAddr: 0x0, symBinAddr: 0x57EA8, symSize: 0x30 }
  - { offset: 0xAA455, size: 0x8, addend: 0x0, symName: __RNCNCNvXst_NtCsaxBLFzn74Hr_3syn10punctuatedINtB9_11PrivateIterNtNtBb_4data7VariantNtNtBb_5token5CommaENtNtNtNtCsliVzVx4luf9_4core4iter6traits12double_ended19DoubleEndedIterator9next_back00CsehVGFPP7CiK_11clap_derive, symObjAddr: 0x788, symBinAddr: 0x58630, symSize: 0x24 }
  - { offset: 0xAA4A0, size: 0x8, addend: 0x0, symName: __RNCNCNvXst_NtCsaxBLFzn74Hr_3syn10punctuatedINtB9_11PrivateIterNtNtBb_4path15GenericArgumentNtNtBb_5token5CommaENtNtNtNtCsliVzVx4luf9_4core4iter6traits12double_ended19DoubleEndedIterator9next_back00CsehVGFPP7CiK_11clap_derive, symObjAddr: 0x7AC, symBinAddr: 0x58654, symSize: 0x24 }
  - { offset: 0xAA4FA, size: 0x8, addend: 0x0, symName: __RNCNvXst_NtCsaxBLFzn74Hr_3syn10punctuatedINtB7_11PrivateIterNtNtB9_4data7VariantNtNtB9_5token5CommaENtNtNtNtCsliVzVx4luf9_4core4iter6traits12double_ended19DoubleEndedIterator9next_back0CsehVGFPP7CiK_11clap_derive, symObjAddr: 0x9F8, symBinAddr: 0x588A0, symSize: 0x38 }
  - { offset: 0xAA53C, size: 0x8, addend: 0x0, symName: __RNCNvXst_NtCsaxBLFzn74Hr_3syn10punctuatedINtB7_11PrivateIterNtNtB9_4path15GenericArgumentNtNtB9_5token5CommaENtNtNtNtCsliVzVx4luf9_4core4iter6traits12double_ended19DoubleEndedIterator9next_back0CsehVGFPP7CiK_11clap_derive, symObjAddr: 0xA30, symBinAddr: 0x588D8, symSize: 0x38 }
  - { offset: 0xAA57F, size: 0x8, addend: 0x0, symName: __RNvXst_NtCsaxBLFzn74Hr_3syn10punctuatedINtB5_11PrivateIterNtNtB7_4data7VariantNtNtB7_5token5CommaENtNtNtNtCsliVzVx4luf9_4core4iter6traits12double_ended19DoubleEndedIterator9next_backCsehVGFPP7CiK_11clap_derive, symObjAddr: 0x27D0, symBinAddr: 0x5A678, symSize: 0x40 }
  - { offset: 0xAA5BF, size: 0x8, addend: 0x0, symName: __RNvXst_NtCsaxBLFzn74Hr_3syn10punctuatedINtB5_11PrivateIterNtNtB7_4path15GenericArgumentNtNtB7_5token5CommaENtNtNtNtCsliVzVx4luf9_4core4iter6traits12double_ended19DoubleEndedIterator9next_backCsehVGFPP7CiK_11clap_derive, symObjAddr: 0x2810, symBinAddr: 0x5A6B8, symSize: 0x40 }
  - { offset: 0xAA60A, size: 0x8, addend: 0x0, symName: __RNCNvXs4_NtCsaxBLFzn74Hr_3syn10punctuatedINtB7_10PunctuatedNtNtB9_4expr4ExprNtNtB9_5token5CommaENtNtNtNtCsliVzVx4luf9_4core4iter6traits7collect12IntoIterator9into_iter0CsehVGFPP7CiK_11clap_derive, symObjAddr: 0x7D0, symBinAddr: 0x58678, symSize: 0x44 }
  - { offset: 0xAA656, size: 0x8, addend: 0x0, symName: __RNCNvXs4_NtCsaxBLFzn74Hr_3syn10punctuatedINtB7_10PunctuatedNtNtB9_4expr4ExprNtNtB9_5token5CommaENtNtNtNtCsliVzVx4luf9_4core4iter6traits7collect12IntoIterator9into_iters_0CsehVGFPP7CiK_11clap_derive, symObjAddr: 0x814, symBinAddr: 0x586BC, symSize: 0x78 }
  - { offset: 0xAA6A1, size: 0x8, addend: 0x0, symName: __RNCNvXs4_NtCsaxBLFzn74Hr_3syn10punctuatedINtB7_10PunctuatedNtNtCsehVGFPP7CiK_11clap_derive4attr8ClapAttrNtNtB9_5token5CommaENtNtNtNtCsliVzVx4luf9_4core4iter6traits7collect12IntoIterator9into_iter0BZ_, symObjAddr: 0x88C, symBinAddr: 0x58734, symSize: 0x44 }
  - { offset: 0xAA6ED, size: 0x8, addend: 0x0, symName: __RNCNvXs4_NtCsaxBLFzn74Hr_3syn10punctuatedINtB7_10PunctuatedNtNtCsehVGFPP7CiK_11clap_derive4attr8ClapAttrNtNtB9_5token5CommaENtNtNtNtCsliVzVx4luf9_4core4iter6traits7collect12IntoIterator9into_iters_0BZ_, symObjAddr: 0x8D0, symBinAddr: 0x58778, symSize: 0x78 }
  - { offset: 0xAA755, size: 0x8, addend: 0x0, symName: __RNvXs4_NtCsaxBLFzn74Hr_3syn10punctuatedINtB5_10PunctuatedNtNtB7_4expr4ExprNtNtB7_5token5CommaENtNtNtNtCsliVzVx4luf9_4core4iter6traits7collect12IntoIterator9into_iterCsehVGFPP7CiK_11clap_derive, symObjAddr: 0x17C8, symBinAddr: 0x59670, symSize: 0x1A8 }
  - { offset: 0xAA7AC, size: 0x8, addend: 0x0, symName: __RNvXs4_NtCsaxBLFzn74Hr_3syn10punctuatedINtB5_10PunctuatedNtNtCsehVGFPP7CiK_11clap_derive4attr8ClapAttrNtNtB7_5token5CommaENtNtNtNtCsliVzVx4luf9_4core4iter6traits7collect12IntoIterator9into_iterBX_, symObjAddr: 0x1970, symBinAddr: 0x59818, symSize: 0x1A8 }
  - { offset: 0xAA80E, size: 0x8, addend: 0x0, symName: __RNCNvXss_NtCsaxBLFzn74Hr_3syn10punctuatedINtB7_11PrivateIterNtNtB9_4data7VariantNtNtB9_5token5CommaENtNtNtNtCsliVzVx4luf9_4core4iter6traits8iterator8Iterator4next0CsehVGFPP7CiK_11clap_derive, symObjAddr: 0x948, symBinAddr: 0x587F0, symSize: 0x24 }
  - { offset: 0xAA859, size: 0x8, addend: 0x0, symName: __RNCNvXss_NtCsaxBLFzn74Hr_3syn10punctuatedINtB7_11PrivateIterNtNtB9_4data7VariantNtNtB9_5token5CommaENtNtNtNtCsliVzVx4luf9_4core4iter6traits8iterator8Iterator4nexts_0CsehVGFPP7CiK_11clap_derive, symObjAddr: 0x96C, symBinAddr: 0x58814, symSize: 0x34 }
  - { offset: 0xAA89B, size: 0x8, addend: 0x0, symName: __RNCNvXss_NtCsaxBLFzn74Hr_3syn10punctuatedINtB7_11PrivateIterNtNtB9_4path15GenericArgumentNtNtB9_5token5CommaENtNtNtNtCsliVzVx4luf9_4core4iter6traits8iterator8Iterator4next0CsehVGFPP7CiK_11clap_derive, symObjAddr: 0x9A0, symBinAddr: 0x58848, symSize: 0x24 }
  - { offset: 0xAA8E6, size: 0x8, addend: 0x0, symName: __RNCNvXss_NtCsaxBLFzn74Hr_3syn10punctuatedINtB7_11PrivateIterNtNtB9_4path15GenericArgumentNtNtB9_5token5CommaENtNtNtNtCsliVzVx4luf9_4core4iter6traits8iterator8Iterator4nexts_0CsehVGFPP7CiK_11clap_derive, symObjAddr: 0x9C4, symBinAddr: 0x5886C, symSize: 0x34 }
  - { offset: 0xAA937, size: 0x8, addend: 0x0, symName: __RNvXss_NtCsaxBLFzn74Hr_3syn10punctuatedINtB5_11PrivateIterNtNtB7_4data7VariantNtNtB7_5token5CommaENtNtNtNtCsliVzVx4luf9_4core4iter6traits8iterator8Iterator4nextCsehVGFPP7CiK_11clap_derive, symObjAddr: 0x2748, symBinAddr: 0x5A5F0, symSize: 0x44 }
  - { offset: 0xAA977, size: 0x8, addend: 0x0, symName: __RNvXss_NtCsaxBLFzn74Hr_3syn10punctuatedINtB5_11PrivateIterNtNtB7_4path15GenericArgumentNtNtB7_5token5CommaENtNtNtNtCsliVzVx4luf9_4core4iter6traits8iterator8Iterator4nextCsehVGFPP7CiK_11clap_derive, symObjAddr: 0x278C, symBinAddr: 0x5A634, symSize: 0x44 }
  - { offset: 0xAAB23, size: 0x8, addend: 0x0, symName: __RNvXs5_NtCsaxBLFzn74Hr_3syn10punctuatedRINtB5_10PunctuatedNtNtB7_4data7VariantNtNtB7_5token5CommaENtNtNtNtCsliVzVx4luf9_4core4iter6traits7collect12IntoIterator9into_iterCsehVGFPP7CiK_11clap_derive, symObjAddr: 0x1B18, symBinAddr: 0x599C0, symSize: 0x34 }
  - { offset: 0xAAB69, size: 0x8, addend: 0x0, symName: __RNvXsJ_NtCsaxBLFzn74Hr_3syn10punctuatedINtB5_10PunctuatedNtNtB7_4data5FieldNtNtB7_5token5CommaEINtNtNtCsliVzVx4luf9_4core3ops5index5IndexjE5indexCsehVGFPP7CiK_11clap_derive, symObjAddr: 0x1EEC, symBinAddr: 0x59D94, symSize: 0x128 }
  - { offset: 0xAABDC, size: 0x8, addend: 0x0, symName: __RNvXsj_NtCsaxBLFzn74Hr_3syn10punctuatedINtB5_8IntoIterNtNtB7_4expr4ExprENtNtNtNtCsliVzVx4luf9_4core4iter6traits8iterator8Iterator4nextCsehVGFPP7CiK_11clap_derive, symObjAddr: 0x2418, symBinAddr: 0x5A2C0, symSize: 0x34 }
  - { offset: 0xAAC13, size: 0x8, addend: 0x0, symName: __RNvXsj_NtCsaxBLFzn74Hr_3syn10punctuatedINtB5_8IntoIterNtNtB7_4expr4ExprENtNtNtNtCsliVzVx4luf9_4core4iter6traits8iterator8Iterator9size_hintCsehVGFPP7CiK_11clap_derive, symObjAddr: 0x244C, symBinAddr: 0x5A2F4, symSize: 0x7C }
  - { offset: 0xAAC4A, size: 0x8, addend: 0x0, symName: __RNvXsj_NtCsaxBLFzn74Hr_3syn10punctuatedINtB5_8IntoIterNtNtCsehVGFPP7CiK_11clap_derive4attr8ClapAttrENtNtNtNtCsliVzVx4luf9_4core4iter6traits8iterator8Iterator4nextBU_, symObjAddr: 0x24C8, symBinAddr: 0x5A370, symSize: 0x34 }
  - { offset: 0xAAC87, size: 0x8, addend: 0x0, symName: __RNvXsl_NtCsaxBLFzn74Hr_3syn10punctuatedINtB5_8IntoIterNtNtB7_4expr4ExprENtNtNtNtCsliVzVx4luf9_4core4iter6traits10exact_size17ExactSizeIterator3lenCsehVGFPP7CiK_11clap_derive, symObjAddr: 0x24FC, symBinAddr: 0x5A3A4, symSize: 0x34 }
  - { offset: 0xAACC4, size: 0x8, addend: 0x0, symName: __RNvXsp_NtCsaxBLFzn74Hr_3syn10punctuatedINtB5_4IterNtNtB7_4data5FieldENtNtNtNtCsliVzVx4luf9_4core4iter6traits8iterator8Iterator9size_hintCsehVGFPP7CiK_11clap_derive, symObjAddr: 0x2530, symBinAddr: 0x5A3D8, symSize: 0x7C }
  - { offset: 0xAACFB, size: 0x8, addend: 0x0, symName: __RNvXsp_NtCsaxBLFzn74Hr_3syn10punctuatedINtB5_4IterNtNtB7_4data7VariantENtNtNtNtCsliVzVx4luf9_4core4iter6traits8iterator8Iterator4nextCsehVGFPP7CiK_11clap_derive, symObjAddr: 0x25AC, symBinAddr: 0x5A454, symSize: 0x48 }
  - { offset: 0xAAD32, size: 0x8, addend: 0x0, symName: __RNvXsp_NtCsaxBLFzn74Hr_3syn10punctuatedINtB5_4IterNtNtB7_4data7VariantENtNtNtNtCsliVzVx4luf9_4core4iter6traits8iterator8Iterator9size_hintCsehVGFPP7CiK_11clap_derive, symObjAddr: 0x25F4, symBinAddr: 0x5A49C, symSize: 0x7C }
  - { offset: 0xAAD69, size: 0x8, addend: 0x0, symName: __RNvXsp_NtCsaxBLFzn74Hr_3syn10punctuatedINtB5_4IterNtNtB7_4path15GenericArgumentENtNtNtNtCsliVzVx4luf9_4core4iter6traits8iterator8Iterator4nextCsehVGFPP7CiK_11clap_derive, symObjAddr: 0x2670, symBinAddr: 0x5A518, symSize: 0x48 }
  - { offset: 0xAADA6, size: 0x8, addend: 0x0, symName: __RNvXsr_NtCsaxBLFzn74Hr_3syn10punctuatedINtB5_4IterNtNtB7_4data5FieldENtNtNtNtCsliVzVx4luf9_4core4iter6traits10exact_size17ExactSizeIterator3lenCsehVGFPP7CiK_11clap_derive, symObjAddr: 0x26B8, symBinAddr: 0x5A560, symSize: 0x48 }
  - { offset: 0xAADDD, size: 0x8, addend: 0x0, symName: __RNvXsr_NtCsaxBLFzn74Hr_3syn10punctuatedINtB5_4IterNtNtB7_4data7VariantENtNtNtNtCsliVzVx4luf9_4core4iter6traits10exact_size17ExactSizeIterator3lenCsehVGFPP7CiK_11clap_derive, symObjAddr: 0x2700, symBinAddr: 0x5A5A8, symSize: 0x48 }
  - { offset: 0xAAE1A, size: 0x8, addend: 0x0, symName: __RNvXsu_NtCsaxBLFzn74Hr_3syn10punctuatedINtB5_11PrivateIterNtNtB7_4data7VariantNtNtB7_5token5CommaENtNtNtNtCsliVzVx4luf9_4core4iter6traits10exact_size17ExactSizeIterator3lenCsehVGFPP7CiK_11clap_derive, symObjAddr: 0x2850, symBinAddr: 0x5A6F8, symSize: 0xC4 }
  - { offset: 0xAAF20, size: 0x8, addend: 0x0, symName: __RNvXsu_NtCsaxBLFzn74Hr_3syn10punctuatedINtB5_11PrivateIterNtNtB7_4path15GenericArgumentNtNtB7_5token5CommaENtNtNtNtCsliVzVx4luf9_4core4iter6traits10exact_size17ExactSizeIterator3lenCsehVGFPP7CiK_11clap_derive, symObjAddr: 0x2914, symBinAddr: 0x5A7BC, symSize: 0xC4 }
  - { offset: 0xAB02C, size: 0x8, addend: 0x0, symName: __RNvXsv_NtCsaxBLFzn74Hr_3syn10punctuatedINtB5_11PrivateIterNtNtB7_4data7VariantNtNtB7_5token5CommaENtNtCsliVzVx4luf9_4core5clone5Clone5cloneCsehVGFPP7CiK_11clap_derive, symObjAddr: 0x29D8, symBinAddr: 0x5A880, symSize: 0x68 }
  - { offset: 0xAB06C, size: 0x8, addend: 0x0, symName: __RNvXsv_NtCsaxBLFzn74Hr_3syn10punctuatedINtB5_11PrivateIterNtNtB7_4path15GenericArgumentNtNtB7_5token5CommaENtNtCsliVzVx4luf9_4core5clone5Clone5cloneCsehVGFPP7CiK_11clap_derive, symObjAddr: 0x2A40, symBinAddr: 0x5A8E8, symSize: 0x68 }
  - { offset: 0xAB0B2, size: 0x8, addend: 0x0, symName: __RNvXsw_NtCsaxBLFzn74Hr_3syn10punctuatedINtB5_11PrivateIterNtNtB7_4data7VariantNtNtB7_5token5CommaEINtB5_9IterTraitBU_E9clone_boxCsehVGFPP7CiK_11clap_derive, symObjAddr: 0x2AA8, symBinAddr: 0x5A950, symSize: 0x94 }
  - { offset: 0xAB110, size: 0x8, addend: 0x0, symName: __RNvXsw_NtCsaxBLFzn74Hr_3syn10punctuatedINtB5_11PrivateIterNtNtB7_4path15GenericArgumentNtNtB7_5token5CommaEINtB5_9IterTraitBU_E9clone_boxCsehVGFPP7CiK_11clap_derive, symObjAddr: 0x2B3C, symBinAddr: 0x5A9E4, symSize: 0x94 }
  - { offset: 0xAFAA5, size: 0x8, addend: 0x0, symName: __RNvXsh_NtCsaxBLFzn74Hr_3syn5parseNvMNtB7_10punctuatedINtBy_10PunctuatedNtNtCsehVGFPP7CiK_11clap_derive4attr8ClapAttrNtNtB7_5token5CommaE16parse_terminatedNtB5_6Parser14___parse_scopedB1b_, symObjAddr: 0x2014, symBinAddr: 0x59EBC, symSize: 0x404 }
  - { offset: 0xAFD3E, size: 0x8, addend: 0x0, symName: __RNvXNtCsaxBLFzn74Hr_3syn7spannedNtNtB4_4path4PathNtB2_7Spanned4spanCsehVGFPP7CiK_11clap_derive, symObjAddr: 0x1750, symBinAddr: 0x595F8, symSize: 0x34 }
  - { offset: 0xB1155, size: 0x8, addend: 0x0, symName: __RNvXs6_NtCs69QEzRJvHMp_5alloc5boxedINtB5_3BoxDNtNtCsliVzVx4luf9_4core5error5ErrorNtNtBM_6marker4SyncNtB1j_4SendEL_ENtNtNtBM_3ops4drop4Drop4dropCsehVGFPP7CiK_11clap_derive, symObjAddr: 0x1B4C, symBinAddr: 0x599F4, symSize: 0xA0 }
  - { offset: 0xB1341, size: 0x8, addend: 0x0, symName: __RNvXs6_NtCs69QEzRJvHMp_5alloc5boxedINtB5_3BoxINtNtCsaxBLFzn74Hr_3syn5drops6NoDropDINtNtBM_10punctuated9IterTraitNtNtBM_4data7VariantEp4ItemRB1M_EL_EENtNtNtCsliVzVx4luf9_4core3ops4drop4Drop4dropCsehVGFPP7CiK_11clap_derive, symObjAddr: 0x1BEC, symBinAddr: 0x59A94, symSize: 0xF4 }
  - { offset: 0xB152D, size: 0x8, addend: 0x0, symName: __RNvXs6_NtCs69QEzRJvHMp_5alloc5boxedINtB5_3BoxINtNtCsaxBLFzn74Hr_3syn5drops6NoDropDINtNtBM_10punctuated9IterTraitNtNtBM_4path15GenericArgumentEp4ItemRB1M_EL_EENtNtNtCsliVzVx4luf9_4core3ops4drop4Drop4dropCsehVGFPP7CiK_11clap_derive, symObjAddr: 0x1CE0, symBinAddr: 0x59B88, symSize: 0xF4 }
  - { offset: 0xB1719, size: 0x8, addend: 0x0, symName: __RNvXs6_NtCs69QEzRJvHMp_5alloc5boxedINtB5_3BoxNtNtCsehVGFPP7CiK_11clap_derive4attr8ClapAttrENtNtNtCsliVzVx4luf9_4core3ops4drop4Drop4dropBL_, symObjAddr: 0x1DD4, symBinAddr: 0x59C7C, symSize: 0x8C }
  - { offset: 0xB1902, size: 0x8, addend: 0x0, symName: __RNvXs6_NtCs69QEzRJvHMp_5alloc5boxedINtB5_3BoxNtNtNtCs6P7HZtpS3La_3std2io5error6CustomENtNtNtCsliVzVx4luf9_4core3ops4drop4Drop4dropCsehVGFPP7CiK_11clap_derive, symObjAddr: 0x1E60, symBinAddr: 0x59D08, symSize: 0x8C }
  - { offset: 0xB275F, size: 0x8, addend: 0x0, symName: __RNvMs9_NtCsliVzVx4luf9_4core3numj11checked_addCsehVGFPP7CiK_11clap_derive, symObjAddr: 0x146C, symBinAddr: 0x59314, symSize: 0x78 }
  - { offset: 0xB27E8, size: 0x8, addend: 0x0, symName: __RNvNvMs9_NtCsliVzVx4luf9_4core3numj13unchecked_add18precondition_checkCsehVGFPP7CiK_11clap_derive, symObjAddr: 0x1530, symBinAddr: 0x593D8, symSize: 0x4C }
  - { offset: 0xB289F, size: 0x8, addend: 0x0, symName: __RNvNvMs9_NtCsliVzVx4luf9_4core3numj13unchecked_mul18precondition_checkCsehVGFPP7CiK_11clap_derive, symObjAddr: 0x157C, symBinAddr: 0x59424, symSize: 0x54 }
  - { offset: 0xB2973, size: 0x8, addend: 0x0, symName: __RNvNvMs3_NtCsliVzVx4luf9_4core3numi13unchecked_neg18precondition_checkCsehVGFPP7CiK_11clap_derive, symObjAddr: 0x14E4, symBinAddr: 0x5938C, symSize: 0x4C }
  - { offset: 0xB3FD0, size: 0x8, addend: 0x0, symName: __RNvNvNtCsliVzVx4luf9_4core3ptr13read_volatile18precondition_checkCsehVGFPP7CiK_11clap_derive, symObjAddr: 0x15D0, symBinAddr: 0x59478, symSize: 0xEC }
  - { offset: 0xB6C1E, size: 0x8, addend: 0x0, symName: __RINvYINtNtCsaxBLFzn74Hr_3syn10punctuated4IterNtNtB8_4data5FieldENtNtNtNtCsliVzVx4luf9_4core4iter6traits8iterator8Iterator3mapINtNtB18_6result6ResultTRBH_NtNtCsehVGFPP7CiK_11clap_derive4item4ItemENtNtB8_5error5ErrorENCNvNtNtB2v_7derives4args11derive_args0EB2v_, symObjAddr: 0x0, symBinAddr: 0x57EA8, symSize: 0x30 }
  - { offset: 0xB6CAA, size: 0x8, addend: 0x0, symName: __RINvYINtNtCsaxBLFzn74Hr_3syn10punctuated4IterNtNtB8_4data5FieldENtNtNtNtCsliVzVx4luf9_4core4iter6traits8iterator8Iterator3mapINtNtB18_6result6ResultTRBH_NtNtCsehVGFPP7CiK_11clap_derive4item4ItemENtNtB8_5error5ErrorENCNvNtNtB2v_7derives4args19collect_args_fields0EB2v_, symObjAddr: 0x30, symBinAddr: 0x57ED8, symSize: 0x30 }
  - { offset: 0xB6D36, size: 0x8, addend: 0x0, symName: __RINvYINtNtCsaxBLFzn74Hr_3syn10punctuated4IterNtNtB8_4data5FieldENtNtNtNtCsliVzVx4luf9_4core4iter6traits8iterator8Iterator3mapINtNtB18_6result6ResultTRBH_NtNtCsehVGFPP7CiK_11clap_derive4item4ItemENtNtB8_5error5ErrorENCNvNtNtB2v_7derives6parser13derive_parser0EB2v_, symObjAddr: 0x60, symBinAddr: 0x57F08, symSize: 0x30 }
  - { offset: 0xB6DC2, size: 0x8, addend: 0x0, symName: __RINvYINtNtCsaxBLFzn74Hr_3syn10punctuated4IterNtNtB8_4data5FieldENtNtNtNtCsliVzVx4luf9_4core4iter6traits8iterator8Iterator3mapRNtCs3vPhoADqSdK_11proc_macro25IdentNCNCNvNtNtCsehVGFPP7CiK_11clap_derive7derives10subcommand27gen_update_from_arg_matchess0_00EB2J_, symObjAddr: 0x90, symBinAddr: 0x57F38, symSize: 0x1C }
  - { offset: 0xB6E1A, size: 0x8, addend: 0x0, symName: __RINvYINtNtCsaxBLFzn74Hr_3syn10punctuated4IterNtNtB8_4data5FieldENtNtNtNtCsliVzVx4luf9_4core4iter6traits8iterator8Iterator8try_folduNCINvNtNtB16_8adapters3map12map_try_foldRBH_INtNtB18_6result6ResultTB2J_NtNtCsehVGFPP7CiK_11clap_derive4item4ItemENtNtB8_5error5ErrorEuINtNtNtB18_3ops12control_flow11ControlFlowIB4h_B3a_EENCNvNtNtB3j_7derives4args11derive_args0NCINvXB2c_INtB2c_12GenericShuntINtB2a_3MapB3_B57_EIB2O_NtNtB18_7convert10InfallibleB3V_EEB10_8try_folduNCINvNvB10_12try_for_each4callB3a_B4W_NcNtB4W_5Break0E0B4W_E0E0B4g_EB3j_, symObjAddr: 0xAC, symBinAddr: 0x57F54, symSize: 0x14C }
  - { offset: 0xB6ED5, size: 0x8, addend: 0x0, symName: __RINvYINtNtCsaxBLFzn74Hr_3syn10punctuated4IterNtNtB8_4data5FieldENtNtNtNtCsliVzVx4luf9_4core4iter6traits8iterator8Iterator8try_folduNCINvNtNtB16_8adapters3map12map_try_foldRBH_INtNtB18_6result6ResultTB2J_NtNtCsehVGFPP7CiK_11clap_derive4item4ItemENtNtB8_5error5ErrorEuINtNtNtB18_3ops12control_flow11ControlFlowIB4h_B3a_EENCNvNtNtB3j_7derives4args19collect_args_fields0NCINvXB2c_INtB2c_12GenericShuntINtB2a_3MapB3_B57_EIB2O_NtNtB18_7convert10InfallibleB3V_EEB10_8try_folduNCINvNvB10_12try_for_each4callB3a_B4W_NcNtB4W_5Break0E0B4W_E0E0B4g_EB3j_, symObjAddr: 0x1F8, symBinAddr: 0x580A0, symSize: 0x14C }
  - { offset: 0xB6F90, size: 0x8, addend: 0x0, symName: __RINvYINtNtCsaxBLFzn74Hr_3syn10punctuated4IterNtNtB8_4data5FieldENtNtNtNtCsliVzVx4luf9_4core4iter6traits8iterator8Iterator8try_folduNCINvNtNtB16_8adapters3map12map_try_foldRBH_INtNtB18_6result6ResultTB2J_NtNtCsehVGFPP7CiK_11clap_derive4item4ItemENtNtB8_5error5ErrorEuINtNtNtB18_3ops12control_flow11ControlFlowIB4h_B3a_EENCNvNtNtB3j_7derives6parser13derive_parser0NCINvXB2c_INtB2c_12GenericShuntINtB2a_3MapB3_B57_EIB2O_NtNtB18_7convert10InfallibleB3V_EEB10_8try_folduNCINvNvB10_12try_for_each4callB3a_B4W_NcNtB4W_5Break0E0B4W_E0E0B4g_EB3j_, symObjAddr: 0x344, symBinAddr: 0x581EC, symSize: 0x14C }
  - { offset: 0xB704B, size: 0x8, addend: 0x0, symName: __RINvYINtNtCsaxBLFzn74Hr_3syn10punctuated4IterNtNtB8_4data7VariantENtNtNtNtCsliVzVx4luf9_4core4iter6traits8iterator8Iterator3mapINtNtB1a_6result6ResultTRBH_NtNtCsehVGFPP7CiK_11clap_derive4item4ItemENtNtB8_5error5ErrorENCNvNtNtB2x_7derives10subcommand17derive_subcommand0EB2x_, symObjAddr: 0x490, symBinAddr: 0x58338, symSize: 0x30 }
  - { offset: 0xB70D7, size: 0x8, addend: 0x0, symName: __RINvYINtNtCsaxBLFzn74Hr_3syn10punctuated4IterNtNtB8_4data7VariantENtNtNtNtCsliVzVx4luf9_4core4iter6traits8iterator8Iterator3mapINtNtB1a_6result6ResultTRBH_NtNtCsehVGFPP7CiK_11clap_derive4item4ItemENtNtB8_5error5ErrorENCNvNtNtB2x_7derives6parser13derive_parsers_0EB2x_, symObjAddr: 0x4C0, symBinAddr: 0x58368, symSize: 0x30 }
  - { offset: 0xB7163, size: 0x8, addend: 0x0, symName: __RINvYINtNtCsaxBLFzn74Hr_3syn10punctuated4IterNtNtB8_4data7VariantENtNtNtNtCsliVzVx4luf9_4core4iter6traits8iterator8Iterator8try_folduNCINvNtNtB18_8adapters3map12map_try_foldRBH_INtNtB1a_6result6ResultTB2L_NtNtCsehVGFPP7CiK_11clap_derive4item4ItemENtNtB8_5error5ErrorEuINtNtNtB1a_3ops12control_flow11ControlFlowIB4j_B3c_EENCNvNtNtB3l_7derives10subcommand17derive_subcommand0NCINvXB2e_INtB2e_12GenericShuntINtB2c_3MapB3_B59_EIB2Q_NtNtB1a_7convert10InfallibleB3X_EEB12_8try_folduNCINvNvB12_12try_for_each4callB3c_B4Y_NcNtB4Y_5Break0E0B4Y_E0E0B4i_EB3l_, symObjAddr: 0x4F0, symBinAddr: 0x58398, symSize: 0x14C }
  - { offset: 0xB721E, size: 0x8, addend: 0x0, symName: __RINvYINtNtCsaxBLFzn74Hr_3syn10punctuated4IterNtNtB8_4data7VariantENtNtNtNtCsliVzVx4luf9_4core4iter6traits8iterator8Iterator8try_folduNCINvNtNtB18_8adapters3map12map_try_foldRBH_INtNtB1a_6result6ResultTB2L_NtNtCsehVGFPP7CiK_11clap_derive4item4ItemENtNtB8_5error5ErrorEuINtNtNtB1a_3ops12control_flow11ControlFlowIB4j_B3c_EENCNvNtNtB3l_7derives6parser13derive_parsers_0NCINvXB2e_INtB2e_12GenericShuntINtB2c_3MapB3_B59_EIB2Q_NtNtB1a_7convert10InfallibleB3X_EEB12_8try_folduNCINvNvB12_12try_for_each4callB3c_B4Y_NcNtB4Y_5Break0E0B4Y_E0E0B4i_EB3l_, symObjAddr: 0x63C, symBinAddr: 0x584E4, symSize: 0x14C }
  - { offset: 0xB72D9, size: 0x8, addend: 0x0, symName: __RNvYINtNtCsaxBLFzn74Hr_3syn10punctuated11PrivateIterNtNtB7_4data7VariantNtNtB7_5token5CommaENtNtNtNtCsliVzVx4luf9_4core4iter6traits8iterator8Iterator10advance_byCsehVGFPP7CiK_11clap_derive, symObjAddr: 0x2D98, symBinAddr: 0x5AC40, symSize: 0x134 }
  - { offset: 0xB7480, size: 0x8, addend: 0x0, symName: __RNvYINtNtCsaxBLFzn74Hr_3syn10punctuated11PrivateIterNtNtB7_4data7VariantNtNtB7_5token5CommaENtNtNtNtCsliVzVx4luf9_4core4iter6traits8iterator8Iterator3nthCsehVGFPP7CiK_11clap_derive, symObjAddr: 0x2ECC, symBinAddr: 0x5AD74, symSize: 0x80 }
  - { offset: 0xB7565, size: 0x8, addend: 0x0, symName: __RNvYINtNtCsaxBLFzn74Hr_3syn10punctuated11PrivateIterNtNtB7_4data7VariantNtNtB7_5token5CommaENtNtNtNtCsliVzVx4luf9_4core4iter6traits8iterator8Iterator9size_hintCsehVGFPP7CiK_11clap_derive, symObjAddr: 0x2F4C, symBinAddr: 0x5ADF4, symSize: 0x34 }
  - { offset: 0xB759A, size: 0x8, addend: 0x0, symName: __RNvYINtNtCsaxBLFzn74Hr_3syn10punctuated11PrivateIterNtNtB7_4path15GenericArgumentNtNtB7_5token5CommaENtNtNtNtCsliVzVx4luf9_4core4iter6traits8iterator8Iterator10advance_byCsehVGFPP7CiK_11clap_derive, symObjAddr: 0x3148, symBinAddr: 0x5AFF0, symSize: 0x134 }
  - { offset: 0xB7741, size: 0x8, addend: 0x0, symName: __RNvYINtNtCsaxBLFzn74Hr_3syn10punctuated11PrivateIterNtNtB7_4path15GenericArgumentNtNtB7_5token5CommaENtNtNtNtCsliVzVx4luf9_4core4iter6traits8iterator8Iterator3nthCsehVGFPP7CiK_11clap_derive, symObjAddr: 0x327C, symBinAddr: 0x5B124, symSize: 0x80 }
  - { offset: 0xB7826, size: 0x8, addend: 0x0, symName: __RNvYINtNtCsaxBLFzn74Hr_3syn10punctuated11PrivateIterNtNtB7_4path15GenericArgumentNtNtB7_5token5CommaENtNtNtNtCsliVzVx4luf9_4core4iter6traits8iterator8Iterator9size_hintCsehVGFPP7CiK_11clap_derive, symObjAddr: 0x32FC, symBinAddr: 0x5B1A4, symSize: 0x34 }
  - { offset: 0xB7899, size: 0x8, addend: 0x0, symName: __RNvYINtNtCsaxBLFzn74Hr_3syn10punctuated11PrivateIterNtNtB7_4data7VariantNtNtB7_5token5CommaENtNtNtNtCsliVzVx4luf9_4core4iter6traits10exact_size17ExactSizeIterator8is_emptyCsehVGFPP7CiK_11clap_derive, symObjAddr: 0x2BD0, symBinAddr: 0x5AA78, symSize: 0x2C }
  - { offset: 0xB78CE, size: 0x8, addend: 0x0, symName: __RNvYINtNtCsaxBLFzn74Hr_3syn10punctuated11PrivateIterNtNtB7_4path15GenericArgumentNtNtB7_5token5CommaENtNtNtNtCsliVzVx4luf9_4core4iter6traits10exact_size17ExactSizeIterator8is_emptyCsehVGFPP7CiK_11clap_derive, symObjAddr: 0x2F80, symBinAddr: 0x5AE28, symSize: 0x2C }
  - { offset: 0xB790F, size: 0x8, addend: 0x0, symName: __RNvYINtNtCsaxBLFzn74Hr_3syn10punctuated11PrivateIterNtNtB7_4data7VariantNtNtB7_5token5CommaENtNtNtNtCsliVzVx4luf9_4core4iter6traits12double_ended19DoubleEndedIterator15advance_back_byCsehVGFPP7CiK_11clap_derive, symObjAddr: 0x2BFC, symBinAddr: 0x5AAA4, symSize: 0x134 }
  - { offset: 0xB7AAE, size: 0x8, addend: 0x0, symName: __RNvYINtNtCsaxBLFzn74Hr_3syn10punctuated11PrivateIterNtNtB7_4data7VariantNtNtB7_5token5CommaENtNtNtNtCsliVzVx4luf9_4core4iter6traits12double_ended19DoubleEndedIterator8nth_backCsehVGFPP7CiK_11clap_derive, symObjAddr: 0x2D30, symBinAddr: 0x5ABD8, symSize: 0x68 }
  - { offset: 0xB7B48, size: 0x8, addend: 0x0, symName: __RNvYINtNtCsaxBLFzn74Hr_3syn10punctuated11PrivateIterNtNtB7_4path15GenericArgumentNtNtB7_5token5CommaENtNtNtNtCsliVzVx4luf9_4core4iter6traits12double_ended19DoubleEndedIterator15advance_back_byCsehVGFPP7CiK_11clap_derive, symObjAddr: 0x2FAC, symBinAddr: 0x5AE54, symSize: 0x134 }
  - { offset: 0xB7CE7, size: 0x8, addend: 0x0, symName: __RNvYINtNtCsaxBLFzn74Hr_3syn10punctuated11PrivateIterNtNtB7_4path15GenericArgumentNtNtB7_5token5CommaENtNtNtNtCsliVzVx4luf9_4core4iter6traits12double_ended19DoubleEndedIterator8nth_backCsehVGFPP7CiK_11clap_derive, symObjAddr: 0x30E0, symBinAddr: 0x5AF88, symSize: 0x68 }
  - { offset: 0xB869C, size: 0x8, addend: 0x0, symName: __RNvNvNtCsliVzVx4luf9_4core4hint16assert_unchecked18precondition_checkCsehVGFPP7CiK_11clap_derive, symObjAddr: 0x16BC, symBinAddr: 0x59564, symSize: 0x38 }
  - { offset: 0xB86CA, size: 0x8, addend: 0x0, symName: __RNvNvNtCsliVzVx4luf9_4core4hint21unreachable_unchecked18precondition_checkCsehVGFPP7CiK_11clap_derive, symObjAddr: 0x16F4, symBinAddr: 0x5959C, symSize: 0x1C }
  - { offset: 0xB930F, size: 0x8, addend: 0x0, symName: ___rustc_proc_macro_decls_a66f66b5c350c8fc__, symObjAddr: 0x6C88, symBinAddr: 0x3DA140, symSize: 0x0 }
  - { offset: 0xB97FC, size: 0x8, addend: 0x0, symName: __RINvXNtNtCsehVGFPP7CiK_11clap_derive5utils5errorNtNtCsaxBLFzn74Hr_3syn3lit6LitStrNtB3_13ToTokensError25EXPECTED_Span_OR_ToTokensNtNtCs69QEzRJvHMp_5alloc6string6StringEB7_, symObjAddr: 0x4AF0, symBinAddr: 0x5C998, symSize: 0xB0 }
  - { offset: 0xB9A48, size: 0x8, addend: 0x0, symName: __RNCNvNtNtCsehVGFPP7CiK_11clap_derive7derives6parser13derive_parser0B7_, symObjAddr: 0x3E9C, symBinAddr: 0x5BD44, symSize: 0x144 }
  - { offset: 0xB9AC1, size: 0x8, addend: 0x0, symName: __RNCNvNtNtCsehVGFPP7CiK_11clap_derive7derives6parser13derive_parsers_0B7_, symObjAddr: 0x3FE0, symBinAddr: 0x5BE88, symSize: 0x144 }
  - { offset: 0xB9B3B, size: 0x8, addend: 0x0, symName: __RNvNtNtCsehVGFPP7CiK_11clap_derive7derives6parser13derive_parser, symObjAddr: 0x3410, symBinAddr: 0x5B2B8, symSize: 0xA8C }
  - { offset: 0xB9E83, size: 0x8, addend: 0x0, symName: __RNvNtNtCsehVGFPP7CiK_11clap_derive7derives6parser14gen_for_struct, symObjAddr: 0x4124, symBinAddr: 0x5BFCC, symSize: 0x594 }
  - { offset: 0xBA00B, size: 0x8, addend: 0x0, symName: __RNvNtNtCsehVGFPP7CiK_11clap_derive7derives6parser12gen_for_enum, symObjAddr: 0x46B8, symBinAddr: 0x5C560, symSize: 0x438 }
  - { offset: 0xBA19B, size: 0x8, addend: 0x0, symName: __RNvCsehVGFPP7CiK_11clap_derive10value_enum, symObjAddr: 0x4BA0, symBinAddr: 0x5CA48, symSize: 0x1A0 }
  - { offset: 0xBA215, size: 0x8, addend: 0x0, symName: __RNCNvCsehVGFPP7CiK_11clap_derive10value_enum0B3_, symObjAddr: 0x4D40, symBinAddr: 0x5CBE8, symSize: 0xB0 }
  - { offset: 0xBA270, size: 0x8, addend: 0x0, symName: __RNvCsehVGFPP7CiK_11clap_derive6parser, symObjAddr: 0x4DF0, symBinAddr: 0x5CC98, symSize: 0x1A0 }
  - { offset: 0xBA2EA, size: 0x8, addend: 0x0, symName: __RNCNvCsehVGFPP7CiK_11clap_derive6parser0B3_, symObjAddr: 0x4F90, symBinAddr: 0x5CE38, symSize: 0x238 }
  - { offset: 0xBA386, size: 0x8, addend: 0x0, symName: __RNCNCNvCsehVGFPP7CiK_11clap_derive6parser00B5_, symObjAddr: 0x51C8, symBinAddr: 0x5D070, symSize: 0xF8 }
  - { offset: 0xBA3ED, size: 0x8, addend: 0x0, symName: __RNCNCNvCsehVGFPP7CiK_11clap_derive6parser0s_0B5_, symObjAddr: 0x52C0, symBinAddr: 0x5D168, symSize: 0x2C }
  - { offset: 0xBA41E, size: 0x8, addend: 0x0, symName: __RNvCsehVGFPP7CiK_11clap_derive10subcommand, symObjAddr: 0x52EC, symBinAddr: 0x5D194, symSize: 0x1A0 }
  - { offset: 0xBA498, size: 0x8, addend: 0x0, symName: __RNCNvCsehVGFPP7CiK_11clap_derive10subcommand0B3_, symObjAddr: 0x548C, symBinAddr: 0x5D334, symSize: 0xB0 }
  - { offset: 0xBA4F3, size: 0x8, addend: 0x0, symName: __RNvCsehVGFPP7CiK_11clap_derive4args, symObjAddr: 0x553C, symBinAddr: 0x5D3E4, symSize: 0x1A0 }
  - { offset: 0xBA56D, size: 0x8, addend: 0x0, symName: __RNCNvCsehVGFPP7CiK_11clap_derive4args0B3_, symObjAddr: 0x56DC, symBinAddr: 0x5D584, symSize: 0xB0 }
  - { offset: 0xBA5C8, size: 0x8, addend: 0x0, symName: __RNvCsehVGFPP7CiK_11clap_derive16to_compile_error, symObjAddr: 0x578C, symBinAddr: 0x5D634, symSize: 0x11C }
  - { offset: 0xBAAAB, size: 0x8, addend: 0x0, symName: __RNvMNtCsaxBLFzn74Hr_3syn10punctuatedINtB2_10PunctuatedNtNtB4_4data7VariantNtNtB4_5token5CommaE4iterCsehVGFPP7CiK_11clap_derive, symObjAddr: 0xA68, symBinAddr: 0x58910, symSize: 0xC8 }
  - { offset: 0xBAB44, size: 0x8, addend: 0x0, symName: __RNvMNtCsaxBLFzn74Hr_3syn10punctuatedINtB2_10PunctuatedNtNtB4_4path15GenericArgumentNtNtB4_5token5CommaE4iterCsehVGFPP7CiK_11clap_derive, symObjAddr: 0xB30, symBinAddr: 0x589D8, symSize: 0xC8 }
  - { offset: 0xBAC12, size: 0x8, addend: 0x0, symName: __RNvMNtCsaxBLFzn74Hr_3syn10punctuatedINtB2_10PunctuatedNtNtCsehVGFPP7CiK_11clap_derive4attr8ClapAttrNtNtB4_5token5CommaE10push_punctBU_, symObjAddr: 0xBF8, symBinAddr: 0x58AA0, symSize: 0x1D8 }
  - { offset: 0xBAC90, size: 0x8, addend: 0x0, symName: __RNvMNtCsaxBLFzn74Hr_3syn10punctuatedINtB2_10PunctuatedNtNtCsehVGFPP7CiK_11clap_derive4attr8ClapAttrNtNtB4_5token5CommaE10push_valueBU_, symObjAddr: 0xDD0, symBinAddr: 0x58C78, symSize: 0x1B4 }
  - { offset: 0xBAD39, size: 0x8, addend: 0x0, symName: __RNvMNtCsaxBLFzn74Hr_3syn10punctuatedINtB2_10PunctuatedNtNtCsehVGFPP7CiK_11clap_derive4attr8ClapAttrNtNtB4_5token5CommaE16parse_terminatedBU_, symObjAddr: 0xF84, symBinAddr: 0x58E2C, symSize: 0x3C }
  - { offset: 0xBAD7B, size: 0x8, addend: 0x0, symName: __RNvMNtCsaxBLFzn74Hr_3syn10punctuatedINtB2_10PunctuatedNtNtCsehVGFPP7CiK_11clap_derive4attr8ClapAttrNtNtB4_5token5CommaE17empty_or_trailingBU_, symObjAddr: 0xFC0, symBinAddr: 0x58E68, symSize: 0x34 }
  - { offset: 0xBADC7, size: 0x8, addend: 0x0, symName: __RNvMNtCsaxBLFzn74Hr_3syn10punctuatedINtB2_10PunctuatedNtNtCsehVGFPP7CiK_11clap_derive4attr8ClapAttrNtNtB4_5token5CommaE21parse_terminated_withBU_, symObjAddr: 0xFF4, symBinAddr: 0x58E9C, symSize: 0x384 }
  - { offset: 0xBAECA, size: 0x8, addend: 0x0, symName: __RNvMNtCsaxBLFzn74Hr_3syn10punctuatedINtB2_10PunctuatedNtNtCsehVGFPP7CiK_11clap_derive4attr8ClapAttrNtNtB4_5token5CommaE3lenBU_, symObjAddr: 0x1378, symBinAddr: 0x59220, symSize: 0xA0 }
  - { offset: 0xBAEFE, size: 0x8, addend: 0x0, symName: __RNvMNtCsaxBLFzn74Hr_3syn10punctuatedINtB2_10PunctuatedNtNtCsehVGFPP7CiK_11clap_derive4attr8ClapAttrNtNtB4_5token5CommaE3newBU_, symObjAddr: 0x1418, symBinAddr: 0x592C0, symSize: 0x54 }
  - { offset: 0xBB06C, size: 0x8, addend: 0x0, symName: __RNvXNtCs5Bhy1SxosHa_5quote9to_tokensRNtNtCsaxBLFzn74Hr_3syn4path4PathNtB2_8ToTokens9to_tokensCsehVGFPP7CiK_11clap_derive, symObjAddr: 0x1710, symBinAddr: 0x595B8, symSize: 0x40 }
  - { offset: 0xBB0B1, size: 0x8, addend: 0x0, symName: __RNvYRNtNtCsaxBLFzn74Hr_3syn4path4PathNtNtCs5Bhy1SxosHa_5quote9to_tokens8ToTokens15to_token_streamCsehVGFPP7CiK_11clap_derive, symObjAddr: 0x3330, symBinAddr: 0x5B1D8, symSize: 0x8C }
  - { offset: 0xBB0FB, size: 0x8, addend: 0x0, symName: __RNvYRNtNtCsaxBLFzn74Hr_3syn4path4PathNtNtCs5Bhy1SxosHa_5quote9to_tokens8ToTokens17into_token_streamCsehVGFPP7CiK_11clap_derive, symObjAddr: 0x33BC, symBinAddr: 0x5B264, symSize: 0x54 }
  - { offset: 0xBB13C, size: 0x8, addend: 0x0, symName: __RNvXs0_NtCs5Bhy1SxosHa_5quote7spannedNtNtCsaxBLFzn74Hr_3syn4path4PathNtB5_7Spanned6___spanCsehVGFPP7CiK_11clap_derive, symObjAddr: 0x1784, symBinAddr: 0x5962C, symSize: 0x44 }
  - { offset: 0xBBE81, size: 0x8, addend: 0x0, symName: __RINvNtNtNtCs6P7HZtpS3La_3std2io5error14repr_bitpacked11decode_reprINtNtCs69QEzRJvHMp_5alloc5boxed3BoxNtB4_6CustomENCNvXs1_B2_NtB2_4ReprNtNtNtCsliVzVx4luf9_4core3ops4drop4Drop4drop0ECsehVGFPP7CiK_11clap_derive, symObjAddr: 0x0, symBinAddr: 0x5D750, symSize: 0x234 }
  - { offset: 0xBC000, size: 0x8, addend: 0x0, symName: __RNCNvXs1_NtNtNtCs6P7HZtpS3La_3std2io5error14repr_bitpackedNtB7_4ReprNtNtNtCsliVzVx4luf9_4core3ops4drop4Drop4drop0CsehVGFPP7CiK_11clap_derive, symObjAddr: 0xEE8, symBinAddr: 0x5E638, symSize: 0x34 }
  - { offset: 0xBC0ED, size: 0x8, addend: 0x0, symName: __RNvXs1_NtNtNtCs6P7HZtpS3La_3std2io5error14repr_bitpackedNtB5_4ReprNtNtNtCsliVzVx4luf9_4core3ops4drop4Drop4dropCsehVGFPP7CiK_11clap_derive, symObjAddr: 0x1854, symBinAddr: 0x5EFA4, symSize: 0x38 }
  - { offset: 0xBC116, size: 0x8, addend: 0x0, symName: __RINvNtNtNtCs6P7HZtpS3La_3std2io5error14repr_bitpacked11decode_reprINtNtCs69QEzRJvHMp_5alloc5boxed3BoxNtB4_6CustomENCNvXs1_B2_NtB2_4ReprNtNtNtCsliVzVx4luf9_4core3ops4drop4Drop4drop0ECsehVGFPP7CiK_11clap_derive, symObjAddr: 0x0, symBinAddr: 0x5D750, symSize: 0x234 }
  - { offset: 0xBC49C, size: 0x8, addend: 0x0, symName: __RNvNtNtNtCs6P7HZtpS3La_3std2io5error14repr_bitpacked14kind_from_primCsehVGFPP7CiK_11clap_derive, symObjAddr: 0xF1C, symBinAddr: 0x5E66C, symSize: 0x5E4 }
  - { offset: 0xC09B2, size: 0x8, addend: 0x0, symName: __RINvNtNtNtCsliVzVx4luf9_4core4iter6traits7collect20default_extend_tupleNtCs3vPhoADqSdK_11proc_macro211TokenStreamNtB19_5IdentINtNtCs69QEzRJvHMp_5alloc3vec3VecB17_EIB20_B1N_EINtNtNtB6_8adapters6cloned6ClonedINtNtNtB8_5slice4iter4IterTB17_B1N_EEEECsehVGFPP7CiK_11clap_derive, symObjAddr: 0x234, symBinAddr: 0x5D984, symSize: 0xCC }
  - { offset: 0xC0A6D, size: 0x8, addend: 0x0, symName: __RNCINvNvNtNtNtCsliVzVx4luf9_4core4iter6traits7collect20default_extend_tuple6extendNtCs3vPhoADqSdK_11proc_macro211TokenStreamNtB1k_5IdentINtNtCs69QEzRJvHMp_5alloc3vec3VecB1i_EIB2b_B1Y_EE0CsehVGFPP7CiK_11clap_derive, symObjAddr: 0x86C, symBinAddr: 0x5DFBC, symSize: 0xBC }
  - { offset: 0xC0B3C, size: 0x8, addend: 0x0, symName: __RNCINvNvXs3_NtNtNtCsliVzVx4luf9_4core4iter6traits7collectpINtBa_15SpecTupleExtendppE6extend6extendNtCs3vPhoADqSdK_11proc_macro211TokenStreamNtB1A_5IdentINtNtCs69QEzRJvHMp_5alloc3vec3VecB1y_EIB2r_B2e_EE0CsehVGFPP7CiK_11clap_derive, symObjAddr: 0xDE4, symBinAddr: 0x5E534, symSize: 0xBC }
  - { offset: 0xC0BDE, size: 0x8, addend: 0x0, symName: __RNvXs3_NtNtNtCsliVzVx4luf9_4core4iter6traits7collectINtNtNtB9_8adapters6cloned6ClonedINtNtNtBb_5slice4iter4IterTNtCs3vPhoADqSdK_11proc_macro211TokenStreamNtB1O_5IdentEEEINtB5_15SpecTupleExtendINtNtCs69QEzRJvHMp_5alloc3vec3VecB1M_EIB35_B2s_EE6extendCsehVGFPP7CiK_11clap_derive, symObjAddr: 0x1EF0, symBinAddr: 0x5F640, symSize: 0x11C }
  - { offset: 0xC0CDF, size: 0x8, addend: 0x0, symName: __RNvXs_NtNtNtCsliVzVx4luf9_4core4iter6traits7collectINtNtNtB8_7sources7from_fn6FromFnNCNvNtNtCsehVGFPP7CiK_11clap_derive5utils12doc_comments16split_paragraphs0ENtB4_12IntoIterator9into_iterB1s_, symObjAddr: 0x2118, symBinAddr: 0x5F868, symSize: 0x18 }
  - { offset: 0xC0D16, size: 0x8, addend: 0x0, symName: __RNvXs_NtNtNtCsliVzVx4luf9_4core4iter6traits7collectINtNtNtB8_8adapters6cloned6ClonedINtNtNtBa_5slice4iter4IterTNtCs3vPhoADqSdK_11proc_macro211TokenStreamNtB1N_5IdentEEENtB4_12IntoIterator9into_iterCsehVGFPP7CiK_11clap_derive, symObjAddr: 0x2130, symBinAddr: 0x5F880, symSize: 0x1C }
  - { offset: 0xC0D59, size: 0x8, addend: 0x0, symName: __RINvYINtNtNtCs69QEzRJvHMp_5alloc3vec9into_iter8IntoIterTNtNtCsaxBLFzn74Hr_3syn4expr4ExprNtNtBW_5token5CommaEENtNtNtNtCsliVzVx4luf9_4core4iter6traits8iterator8Iterator3mapBS_NCNvXs4_NtBW_10punctuatedINtB2T_10PunctuatedBS_B1o_ENtNtB1N_7collect12IntoIterator9into_iter0ECsehVGFPP7CiK_11clap_derive, symObjAddr: 0x76C, symBinAddr: 0x5DEBC, symSize: 0x1C }
  - { offset: 0xC0DE5, size: 0x8, addend: 0x0, symName: __RINvYINtNtNtCs69QEzRJvHMp_5alloc3vec9into_iter8IntoIterTNtNtCsehVGFPP7CiK_11clap_derive4attr8ClapAttrNtNtCsaxBLFzn74Hr_3syn5token5CommaEENtNtNtNtCsliVzVx4luf9_4core4iter6traits8iterator8Iterator3mapBS_NCNvXs4_NtB1F_10punctuatedINtB3l_10PunctuatedBS_B1B_ENtNtB2f_7collect12IntoIterator9into_iter0EBW_, symObjAddr: 0x788, symBinAddr: 0x5DED8, symSize: 0x1C }
  - { offset: 0xC0E71, size: 0x8, addend: 0x0, symName: __RINvYINtNtNtNtCsliVzVx4luf9_4core4iter7sources7from_fn6FromFnNCNvNtNtCsehVGFPP7CiK_11clap_derive5utils12doc_comments16split_paragraphs0ENtNtNtBa_6traits8iterator8Iterator7collectINtNtCs69QEzRJvHMp_5alloc3vec3VecNtNtB2V_6string6StringEEB15_, symObjAddr: 0x7A4, symBinAddr: 0x5DEF4, symSize: 0x14 }
  - { offset: 0xC0EB2, size: 0x8, addend: 0x0, symName: __RINvYINtNtNtNtCsliVzVx4luf9_4core4iter8adapters6cloned6ClonedINtNtNtBc_5slice4iter4IterTNtCs3vPhoADqSdK_11proc_macro211TokenStreamNtB1q_5IdentEEENtNtNtBa_6traits8iterator8Iterator5unzipB1o_B24_INtNtCs69QEzRJvHMp_5alloc3vec3VecB1o_EIB36_B24_EECsehVGFPP7CiK_11clap_derive, symObjAddr: 0x7B8, symBinAddr: 0x5DF08, symSize: 0xB4 }
  - { offset: 0xC0F2D, size: 0x8, addend: 0x0, symName: __RNCINvNvNtNtNtNtCsliVzVx4luf9_4core4iter6traits8iterator8Iterator12try_for_each4callNtCs3vPhoADqSdK_11proc_macro211TokenStreamINtNtNtBe_3ops12control_flow11ControlFlowB1k_ENcNtB20_5Break0E0CsehVGFPP7CiK_11clap_derive, symObjAddr: 0x928, symBinAddr: 0x5E078, symSize: 0x3C }
  - { offset: 0xC0F92, size: 0x8, addend: 0x0, symName: __RNCINvNvNtNtNtNtCsliVzVx4luf9_4core4iter6traits8iterator8Iterator12try_for_each4callTRNtNtCsaxBLFzn74Hr_3syn4data5FieldNtNtCsehVGFPP7CiK_11clap_derive4item4ItemEINtNtNtBe_3ops12control_flow11ControlFlowB1k_ENcNtB2z_5Break0E0B1X_, symObjAddr: 0x964, symBinAddr: 0x5E0B4, symSize: 0x50 }
  - { offset: 0xC0FF7, size: 0x8, addend: 0x0, symName: __RNCINvNvNtNtNtNtCsliVzVx4luf9_4core4iter6traits8iterator8Iterator12try_for_each4callTRNtNtCsaxBLFzn74Hr_3syn4data7VariantNtNtCsehVGFPP7CiK_11clap_derive4item4ItemEINtNtNtBe_3ops12control_flow11ControlFlowB1k_ENcNtB2B_5Break0E0B1Z_, symObjAddr: 0x9B4, symBinAddr: 0x5E104, symSize: 0x50 }
  - { offset: 0xC1068, size: 0x8, addend: 0x0, symName: __RNCINvNvNtNtNtNtCsliVzVx4luf9_4core4iter6traits8iterator8Iterator4find5checkNtNtCs69QEzRJvHMp_5alloc6string6StringNCINvNvXs0_NtNtBc_8adapters10skip_whileINtB1Z_9SkipWhileppEB6_4next5checkB1c_NCNvNtNtCsehVGFPP7CiK_11clap_derive5utils12doc_comments19extract_doc_comments0_0E0E0B3b_, symObjAddr: 0xA04, symBinAddr: 0x5E154, symSize: 0xAC }
  - { offset: 0xC10D1, size: 0x8, addend: 0x0, symName: __RNCINvNvNtNtNtNtCsliVzVx4luf9_4core4iter6traits8iterator8Iterator8for_each4callNtNtCs69QEzRJvHMp_5alloc6string6StringNCINvMsi_NtB1j_3vecINtB20_3VecB1f_E14extend_trustedINtNtNtBc_8adapters3map3MapINtNtNtBe_5slice4iter4IterB1f_ENCINvNtNtCsehVGFPP7CiK_11clap_derive5utils12doc_comments11merge_linesRB1f_RSB1f_E0EE0E0B3L_, symObjAddr: 0xAB0, symBinAddr: 0x5E200, symSize: 0x3C }
  - { offset: 0xC112A, size: 0x8, addend: 0x0, symName: __RNCINvNvNtNtNtNtCsliVzVx4luf9_4core4iter6traits8iterator8Iterator8for_each4callNtNtCs69QEzRJvHMp_5alloc6string6StringNCINvMsi_NtB1j_3vecINtB20_3VecB1f_E14extend_trustedINtNtNtBc_8adapters3map3MapINtNtNtBe_5slice4iter4IterNtNtCsehVGFPP7CiK_11clap_derive4attr8AttrKindENCNvNtB3B_4item16assert_attr_kind0EE0E0B3B_, symObjAddr: 0xAEC, symBinAddr: 0x5E23C, symSize: 0x3C }
  - { offset: 0xC1183, size: 0x8, addend: 0x0, symName: __RNCINvNvNtNtNtNtCsliVzVx4luf9_4core4iter6traits8iterator8Iterator8for_each4callNtNtCsaxBLFzn74Hr_3syn4expr4ExprNCINvMsi_NtCs69QEzRJvHMp_5alloc3vecINtB1U_3VecB1f_E14extend_trustedINtNtBe_6option8IntoIterB1f_EE0E0CsehVGFPP7CiK_11clap_derive, symObjAddr: 0xB28, symBinAddr: 0x5E278, symSize: 0x40 }
  - { offset: 0xC11DC, size: 0x8, addend: 0x0, symName: __RNCINvNvNtNtNtNtCsliVzVx4luf9_4core4iter6traits8iterator8Iterator8for_each4callNtNtCsaxBLFzn74Hr_3syn4expr4ExprNCINvMsi_NtCs69QEzRJvHMp_5alloc3vecINtB1U_3VecB1f_E14extend_trustedINtNtNtBc_8adapters3map3MapINtNtB1U_9into_iter8IntoIterTB1f_NtNtB1j_5token5CommaEENCNvXs4_NtB1j_10punctuatedINtB4i_10PunctuatedB1f_B3O_ENtNtBa_7collect12IntoIterator9into_iter0EE0E0CsehVGFPP7CiK_11clap_derive, symObjAddr: 0xB68, symBinAddr: 0x5E2B8, symSize: 0x40 }
  - { offset: 0xC1235, size: 0x8, addend: 0x0, symName: __RNCINvNvNtNtNtNtCsliVzVx4luf9_4core4iter6traits8iterator8Iterator8for_each4callNtNtCsehVGFPP7CiK_11clap_derive4attr8ClapAttrNCINvMsi_NtCs69QEzRJvHMp_5alloc3vecINtB27_3VecB1f_E14extend_trustedINtNtBe_6option8IntoIterB1f_EE0E0B1j_, symObjAddr: 0xBA8, symBinAddr: 0x5E2F8, symSize: 0x48 }
  - { offset: 0xC128E, size: 0x8, addend: 0x0, symName: __RNCINvNvNtNtNtNtCsliVzVx4luf9_4core4iter6traits8iterator8Iterator8for_each4callNtNtCsehVGFPP7CiK_11clap_derive4attr8ClapAttrNCINvMsi_NtCs69QEzRJvHMp_5alloc3vecINtB27_3VecB1f_E14extend_trustedINtNtNtBc_8adapters3map3MapINtNtB27_9into_iter8IntoIterTB1f_NtNtCsaxBLFzn74Hr_3syn5token5CommaEENCNvXs4_NtB45_10punctuatedINtB4J_10PunctuatedB1f_B41_ENtNtBa_7collect12IntoIterator9into_iter0EE0E0B1j_, symObjAddr: 0xBF0, symBinAddr: 0x5E340, symSize: 0x48 }
  - { offset: 0xC12E7, size: 0x8, addend: 0x0, symName: __RNCINvNvNtNtNtNtCsliVzVx4luf9_4core4iter6traits8iterator8Iterator8for_each4callRNtCs3vPhoADqSdK_11proc_macro25IdentNCINvMsi_NtCs69QEzRJvHMp_5alloc3vecINtB1Y_3VecB1f_E14extend_trustedINtNtNtBc_8adapters3map3MapINtNtNtBe_5slice4iter4IterTNtB1i_11TokenStreamB1g_EENCNvNtNtCsehVGFPP7CiK_11clap_derive7derives10value_enum18gen_value_variants0EE0E0B4j_, symObjAddr: 0xC38, symBinAddr: 0x5E388, symSize: 0x2C }
  - { offset: 0xC1371, size: 0x8, addend: 0x0, symName: __RNCINvNvNtNtNtNtCsliVzVx4luf9_4core4iter6traits8iterator8Iterator9partition6extendTRRNtNtCsaxBLFzn74Hr_3syn4data7VariantRNtNtCsehVGFPP7CiK_11clap_derive4item4ItemEINtNtCs69QEzRJvHMp_5alloc3vec3VecB1i_ENCNvNtNtB1Z_7derives10subcommand18gen_has_subcommands_0E0B1Z_, symObjAddr: 0xC64, symBinAddr: 0x5E3B4, symSize: 0xC0 }
  - { offset: 0xC13F7, size: 0x8, addend: 0x0, symName: __RNCINvNvNtNtNtNtCsliVzVx4luf9_4core4iter6traits8iterator8Iterator9partition6extendTRRNtNtCsaxBLFzn74Hr_3syn4data7VariantRNtNtCsehVGFPP7CiK_11clap_derive4item4ItemEINtNtCs69QEzRJvHMp_5alloc3vec3VecB1i_ENCNvNtNtB1Z_7derives10subcommand27gen_update_from_arg_matchess_0E0B1Z_, symObjAddr: 0xD24, symBinAddr: 0x5E474, symSize: 0xC0 }
  - { offset: 0xC147F, size: 0x8, addend: 0x0, symName: __RNvYINtNtNtNtCsliVzVx4luf9_4core4iter7sources7from_fn6FromFnNCNvNtNtCsehVGFPP7CiK_11clap_derive5utils12doc_comments16split_paragraphs0ENtNtNtB9_6traits8iterator8Iterator9size_hintB14_, symObjAddr: 0x28DC, symBinAddr: 0x6002C, symSize: 0x34 }
  - { offset: 0xC14C5, size: 0x8, addend: 0x0, symName: __RNCINvXsK_NtNtNtCsliVzVx4luf9_4core4iter6traits5accumjNtB8_3Sum3sumINtNtNtBc_8adapters3map3MapINtNtNtBe_5slice4iter4IterTRNtNtCsaxBLFzn74Hr_3syn4data5FieldNtNtCsehVGFPP7CiK_11clap_derive4item4ItemEENCINvNvXs1_NtB18_6filterINtB3l_6FilterppENtNtBa_8iterator8Iterator5count8to_usizeRB1U_NCNvNtNtB2x_7derives4args11gen_augments_0E0EE0B2x_, symObjAddr: 0xEA0, symBinAddr: 0x5E5F0, symSize: 0x48 }
  - { offset: 0xC15EF, size: 0x8, addend: 0x0, symName: __RNvYINtNtNtCs69QEzRJvHMp_5alloc3vec9into_iter8IntoIterNtNtB9_6string6StringENtNtNtNtCsliVzVx4luf9_4core4iter6traits10exact_size17ExactSizeIterator3lenCsehVGFPP7CiK_11clap_derive, symObjAddr: 0x2468, symBinAddr: 0x5FBB8, symSize: 0xE4 }
  - { offset: 0xC16F5, size: 0x8, addend: 0x0, symName: __RNvYINtNtNtCs69QEzRJvHMp_5alloc3vec9into_iter8IntoIterNtNtCsaxBLFzn74Hr_3syn4expr4ExprENtNtNtNtCsliVzVx4luf9_4core4iter6traits10exact_size17ExactSizeIterator3lenCsehVGFPP7CiK_11clap_derive, symObjAddr: 0x254C, symBinAddr: 0x5FC9C, symSize: 0xE4 }
  - { offset: 0xC17FB, size: 0x8, addend: 0x0, symName: __RNvYINtNtNtCs69QEzRJvHMp_5alloc3vec9into_iter8IntoIterNtNtCsehVGFPP7CiK_11clap_derive4attr8ClapAttrENtNtNtNtCsliVzVx4luf9_4core4iter6traits10exact_size17ExactSizeIterator3lenBU_, symObjAddr: 0x2630, symBinAddr: 0x5FD80, symSize: 0xE4 }
  - { offset: 0xC1901, size: 0x8, addend: 0x0, symName: __RNvYINtNtNtCs69QEzRJvHMp_5alloc3vec9into_iter8IntoIterTNtNtCsaxBLFzn74Hr_3syn4expr4ExprNtNtBV_5token5CommaEENtNtNtNtCsliVzVx4luf9_4core4iter6traits10exact_size17ExactSizeIterator3lenCsehVGFPP7CiK_11clap_derive, symObjAddr: 0x2714, symBinAddr: 0x5FE64, symSize: 0xE4 }
  - { offset: 0xC1A07, size: 0x8, addend: 0x0, symName: __RNvYINtNtNtCs69QEzRJvHMp_5alloc3vec9into_iter8IntoIterTNtNtCsehVGFPP7CiK_11clap_derive4attr8ClapAttrNtNtCsaxBLFzn74Hr_3syn5token5CommaEENtNtNtNtCsliVzVx4luf9_4core4iter6traits10exact_size17ExactSizeIterator3lenBV_, symObjAddr: 0x27F8, symBinAddr: 0x5FF48, symSize: 0xE4 }
  - { offset: 0xC1B1A, size: 0x8, addend: 0x0, symName: __RINvNtNtNtCsliVzVx4luf9_4core4iter7sources7from_fn7from_fnNtNtCs69QEzRJvHMp_5alloc6string6StringNCNvNtNtCsehVGFPP7CiK_11clap_derive5utils12doc_comments16split_paragraphs0EB1E_, symObjAddr: 0x300, symBinAddr: 0x5DA50, symSize: 0x18 }
  - { offset: 0xC1B5D, size: 0x8, addend: 0x0, symName: __RNvXNtNtNtCsliVzVx4luf9_4core4iter7sources7from_fnINtB2_6FromFnNCNvNtNtCsehVGFPP7CiK_11clap_derive5utils12doc_comments16split_paragraphs0ENtNtNtB6_6traits8iterator8Iterator4nextB17_, symObjAddr: 0x1500, symBinAddr: 0x5EC50, symSize: 0x24 }
  - { offset: 0xC1F12, size: 0x8, addend: 0x0, symName: __RINvXs_NtNtNtCsliVzVx4luf9_4core4iter8adapters6clonedINtB5_6ClonedINtNtNtBb_5slice4iter4IterTNtCs3vPhoADqSdK_11proc_macro211TokenStreamNtB1v_5IdentEEENtNtNtB9_6traits8iterator8Iterator4folduNCINvNvNtB2s_7collect20default_extend_tuple6extendB1t_B29_INtNtCs69QEzRJvHMp_5alloc3vec3VecB1t_EIB3Z_B29_EE0ECsehVGFPP7CiK_11clap_derive, symObjAddr: 0x5D4, symBinAddr: 0x5DD24, symSize: 0xCC }
  - { offset: 0xC1FDA, size: 0x8, addend: 0x0, symName: __RINvXs_NtNtNtCsliVzVx4luf9_4core4iter8adapters6clonedINtB5_6ClonedINtNtNtBb_5slice4iter4IterTNtCs3vPhoADqSdK_11proc_macro211TokenStreamNtB1v_5IdentEEENtNtNtB9_6traits8iterator8Iterator4folduNCINvNvXs3_NtB2s_7collectpINtB3d_15SpecTupleExtendppE6extend6extendB1t_B29_INtNtCs69QEzRJvHMp_5alloc3vec3VecB1t_EIB4g_B29_EE0ECsehVGFPP7CiK_11clap_derive, symObjAddr: 0x6A0, symBinAddr: 0x5DDF0, symSize: 0xCC }
  - { offset: 0xC20A2, size: 0x8, addend: 0x0, symName: __RNvXs_NtNtNtCsliVzVx4luf9_4core4iter8adapters6clonedINtB4_6ClonedINtNtNtBa_5slice4iter4IterTNtCs3vPhoADqSdK_11proc_macro211TokenStreamNtB1u_5IdentEEENtNtNtB8_6traits8iterator8Iterator9size_hintCsehVGFPP7CiK_11clap_derive, symObjAddr: 0x214C, symBinAddr: 0x5F89C, symSize: 0x24 }
  - { offset: 0xC2216, size: 0x8, addend: 0x0, symName: __RNvXs9_NtNtNtCsliVzVx4luf9_4core4iter8adapters4fuseINtB5_4FuseINtNtB7_3map3MapINtNtB7_10skip_while9SkipWhileINtNtB7_10filter_map9FilterMapINtNtB7_6filter6FilterINtNtNtBb_5slice4iter4IterNtNtCsaxBLFzn74Hr_3syn4attr9AttributeENCNvNtNtCsehVGFPP7CiK_11clap_derive5utils12doc_comments19extract_doc_comment0ENCB3C_s_0ENCB3C_s0_0ENCB3C_s1_0EEINtB5_8FuseImplBY_E4nextB3I_, symObjAddr: 0x2090, symBinAddr: 0x5F7E0, symSize: 0x88 }
  - { offset: 0xC2F2A, size: 0x8, addend: 0x0, symName: __RNvXs1J_NtCs39eHfitSTy1_10proc_macro6bridgeINtB6_11ExpnGlobalsNtNtB6_6client4SpanEINtNtB6_3rpc9DecodeMutuE6decodeCsehVGFPP7CiK_11clap_derive, symObjAddr: 0x17A4, symBinAddr: 0x5EEF4, symSize: 0xB0 }
  - { offset: 0xC2F81, size: 0x8, addend: 0x0, symName: __RNvXs9_NtNtCs39eHfitSTy1_10proc_macro6bridge3rpcTINtB7_11ExpnGlobalsNtNtB7_6client4SpanENtB16_11TokenStreamEINtB5_9DecodeMutuE6decodeCsehVGFPP7CiK_11clap_derive, symObjAddr: 0x200C, symBinAddr: 0x5F75C, symSize: 0x84 }
  - { offset: 0xC8F22, size: 0x8, addend: 0x0, symName: __RINvXs3_NtNtCs69QEzRJvHMp_5alloc3vec9into_iterINtB6_8IntoIterTNtNtCsaxBLFzn74Hr_3syn4expr4ExprNtNtB12_5token5CommaEENtNtNtNtCsliVzVx4luf9_4core4iter6traits8iterator8Iterator4folduNCINvNtNtB1W_8adapters3map8map_foldBX_BY_uNCNvXs4_NtB12_10punctuatedINtB3F_10PunctuatedBY_B1u_ENtNtB1U_7collect12IntoIterator9into_iter0NCINvNvB1Q_8for_each4callBY_NCINvMsi_B8_INtB8_3VecBY_E14extend_trustedINtB2W_3MapBI_B3x_EE0E0E0ECsehVGFPP7CiK_11clap_derive, symObjAddr: 0x318, symBinAddr: 0x5DA68, symSize: 0x15C }
  - { offset: 0xC91C5, size: 0x8, addend: 0x0, symName: __RINvXs3_NtNtCs69QEzRJvHMp_5alloc3vec9into_iterINtB6_8IntoIterTNtNtCsehVGFPP7CiK_11clap_derive4attr8ClapAttrNtNtCsaxBLFzn74Hr_3syn5token5CommaEENtNtNtNtCsliVzVx4luf9_4core4iter6traits8iterator8Iterator4folduNCINvNtNtB2n_8adapters3map8map_foldBX_BY_uNCNvXs4_NtB1L_10punctuatedINtB46_10PunctuatedBY_B1H_ENtNtB2l_7collect12IntoIterator9into_iter0NCINvNvB2h_8for_each4callBY_NCINvMsi_B8_INtB8_3VecBY_E14extend_trustedINtB3n_3MapBI_B3Y_EE0E0E0EB12_, symObjAddr: 0x474, symBinAddr: 0x5DBC4, symSize: 0x160 }
  - { offset: 0xC9468, size: 0x8, addend: 0x0, symName: __RNvXs3_NtNtCs69QEzRJvHMp_5alloc3vec9into_iterINtB5_8IntoIterNtNtB9_6string6StringENtNtNtNtCsliVzVx4luf9_4core4iter6traits8iterator8Iterator4nextCsehVGFPP7CiK_11clap_derive, symObjAddr: 0x188C, symBinAddr: 0x5EFDC, symSize: 0xE4 }
  - { offset: 0xC969E, size: 0x8, addend: 0x0, symName: __RNvXs3_NtNtCs69QEzRJvHMp_5alloc3vec9into_iterINtB5_8IntoIterNtNtB9_6string6StringENtNtNtNtCsliVzVx4luf9_4core4iter6traits8iterator8Iterator9size_hintCsehVGFPP7CiK_11clap_derive, symObjAddr: 0x1970, symBinAddr: 0x5F0C0, symSize: 0xB8 }
  - { offset: 0xC978B, size: 0x8, addend: 0x0, symName: __RNvXs3_NtNtCs69QEzRJvHMp_5alloc3vec9into_iterINtB5_8IntoIterNtNtCsaxBLFzn74Hr_3syn4expr4ExprENtNtNtNtCsliVzVx4luf9_4core4iter6traits8iterator8Iterator4nextCsehVGFPP7CiK_11clap_derive, symObjAddr: 0x1A28, symBinAddr: 0x5F178, symSize: 0xF4 }
  - { offset: 0xC99BE, size: 0x8, addend: 0x0, symName: __RNvXs3_NtNtCs69QEzRJvHMp_5alloc3vec9into_iterINtB5_8IntoIterNtNtCsaxBLFzn74Hr_3syn4expr4ExprENtNtNtNtCsliVzVx4luf9_4core4iter6traits8iterator8Iterator9size_hintCsehVGFPP7CiK_11clap_derive, symObjAddr: 0x1B1C, symBinAddr: 0x5F26C, symSize: 0xB8 }
  - { offset: 0xC9AAB, size: 0x8, addend: 0x0, symName: __RNvXs3_NtNtCs69QEzRJvHMp_5alloc3vec9into_iterINtB5_8IntoIterNtNtCsehVGFPP7CiK_11clap_derive4attr8ClapAttrENtNtNtNtCsliVzVx4luf9_4core4iter6traits8iterator8Iterator4nextB10_, symObjAddr: 0x1BD4, symBinAddr: 0x5F324, symSize: 0xF4 }
  - { offset: 0xC9CDD, size: 0x8, addend: 0x0, symName: __RNvXs3_NtNtCs69QEzRJvHMp_5alloc3vec9into_iterINtB5_8IntoIterNtNtCsehVGFPP7CiK_11clap_derive4attr8ClapAttrENtNtNtNtCsliVzVx4luf9_4core4iter6traits8iterator8Iterator9size_hintB10_, symObjAddr: 0x1CC8, symBinAddr: 0x5F418, symSize: 0xB8 }
  - { offset: 0xC9DCA, size: 0x8, addend: 0x0, symName: __RNvXs3_NtNtCs69QEzRJvHMp_5alloc3vec9into_iterINtB5_8IntoIterTNtNtCsaxBLFzn74Hr_3syn4expr4ExprNtNtB11_5token5CommaEENtNtNtNtCsliVzVx4luf9_4core4iter6traits8iterator8Iterator9size_hintCsehVGFPP7CiK_11clap_derive, symObjAddr: 0x1D80, symBinAddr: 0x5F4D0, symSize: 0xB8 }
  - { offset: 0xC9EB7, size: 0x8, addend: 0x0, symName: __RNvXs3_NtNtCs69QEzRJvHMp_5alloc3vec9into_iterINtB5_8IntoIterTNtNtCsehVGFPP7CiK_11clap_derive4attr8ClapAttrNtNtCsaxBLFzn74Hr_3syn5token5CommaEENtNtNtNtCsliVzVx4luf9_4core4iter6traits8iterator8Iterator9size_hintB11_, symObjAddr: 0x1E38, symBinAddr: 0x5F588, symSize: 0xB8 }
  - { offset: 0xCA0C8, size: 0x8, addend: 0x0, symName: __RNvXNvXsd_NtNtCs69QEzRJvHMp_5alloc3vec9into_iterINtB8_8IntoIterppENtNtNtCsliVzVx4luf9_4core3ops4drop4Drop4dropINtB2_9DropGuardNtNtBc_6string6StringNtNtBc_5alloc6GlobalEB12_4dropCsehVGFPP7CiK_11clap_derive, symObjAddr: 0x1524, symBinAddr: 0x5EC74, symSize: 0x80 }
  - { offset: 0xCA19F, size: 0x8, addend: 0x0, symName: __RNvXNvXsd_NtNtCs69QEzRJvHMp_5alloc3vec9into_iterINtB8_8IntoIterppENtNtNtCsliVzVx4luf9_4core3ops4drop4Drop4dropINtB2_9DropGuardNtNtCsaxBLFzn74Hr_3syn4expr4ExprNtNtBc_5alloc6GlobalEB12_4dropCsehVGFPP7CiK_11clap_derive, symObjAddr: 0x15A4, symBinAddr: 0x5ECF4, symSize: 0x80 }
  - { offset: 0xCA276, size: 0x8, addend: 0x0, symName: __RNvXNvXsd_NtNtCs69QEzRJvHMp_5alloc3vec9into_iterINtB8_8IntoIterppENtNtNtCsliVzVx4luf9_4core3ops4drop4Drop4dropINtB2_9DropGuardNtNtCsehVGFPP7CiK_11clap_derive4attr8ClapAttrNtNtBc_5alloc6GlobalEB12_4dropB24_, symObjAddr: 0x1624, symBinAddr: 0x5ED74, symSize: 0x80 }
  - { offset: 0xCA34D, size: 0x8, addend: 0x0, symName: __RNvXNvXsd_NtNtCs69QEzRJvHMp_5alloc3vec9into_iterINtB8_8IntoIterppENtNtNtCsliVzVx4luf9_4core3ops4drop4Drop4dropINtB2_9DropGuardTNtNtCsaxBLFzn74Hr_3syn4expr4ExprNtNtB25_5token5CommaENtNtBc_5alloc6GlobalEB12_4dropCsehVGFPP7CiK_11clap_derive, symObjAddr: 0x16A4, symBinAddr: 0x5EDF4, symSize: 0x80 }
  - { offset: 0xCA424, size: 0x8, addend: 0x0, symName: __RNvXNvXsd_NtNtCs69QEzRJvHMp_5alloc3vec9into_iterINtB8_8IntoIterppENtNtNtCsliVzVx4luf9_4core3ops4drop4Drop4dropINtB2_9DropGuardTNtNtCsehVGFPP7CiK_11clap_derive4attr8ClapAttrNtNtCsaxBLFzn74Hr_3syn5token5CommaENtNtBc_5alloc6GlobalEB12_4dropB25_, symObjAddr: 0x1724, symBinAddr: 0x5EE74, symSize: 0x80 }
  - { offset: 0xCA5C0, size: 0x8, addend: 0x0, symName: __RNvXsd_NtNtCs69QEzRJvHMp_5alloc3vec9into_iterINtB5_8IntoIterNtNtB9_6string6StringENtNtNtCsliVzVx4luf9_4core3ops4drop4Drop4dropCsehVGFPP7CiK_11clap_derive, symObjAddr: 0x2170, symBinAddr: 0x5F8C0, symSize: 0x98 }
  - { offset: 0xCA674, size: 0x8, addend: 0x0, symName: __RNvXsd_NtNtCs69QEzRJvHMp_5alloc3vec9into_iterINtB5_8IntoIterNtNtCsaxBLFzn74Hr_3syn4expr4ExprENtNtNtCsliVzVx4luf9_4core3ops4drop4Drop4dropCsehVGFPP7CiK_11clap_derive, symObjAddr: 0x2208, symBinAddr: 0x5F958, symSize: 0x98 }
  - { offset: 0xCA728, size: 0x8, addend: 0x0, symName: __RNvXsd_NtNtCs69QEzRJvHMp_5alloc3vec9into_iterINtB5_8IntoIterNtNtCsehVGFPP7CiK_11clap_derive4attr8ClapAttrENtNtNtCsliVzVx4luf9_4core3ops4drop4Drop4dropB10_, symObjAddr: 0x22A0, symBinAddr: 0x5F9F0, symSize: 0x98 }
  - { offset: 0xCA7DC, size: 0x8, addend: 0x0, symName: __RNvXsd_NtNtCs69QEzRJvHMp_5alloc3vec9into_iterINtB5_8IntoIterTNtNtCsaxBLFzn74Hr_3syn4expr4ExprNtNtB11_5token5CommaEENtNtNtCsliVzVx4luf9_4core3ops4drop4Drop4dropCsehVGFPP7CiK_11clap_derive, symObjAddr: 0x2338, symBinAddr: 0x5FA88, symSize: 0x98 }
  - { offset: 0xCA890, size: 0x8, addend: 0x0, symName: __RNvXsd_NtNtCs69QEzRJvHMp_5alloc3vec9into_iterINtB5_8IntoIterTNtNtCsehVGFPP7CiK_11clap_derive4attr8ClapAttrNtNtCsaxBLFzn74Hr_3syn5token5CommaEENtNtNtCsliVzVx4luf9_4core3ops4drop4Drop4dropB11_, symObjAddr: 0x23D0, symBinAddr: 0x5FB20, symSize: 0x98 }
  - { offset: 0xCCCE8, size: 0x8, addend: 0x0, symName: __RINvMs2_NtNtCs6P7HZtpS3La_3std6thread5localINtB6_8LocalKeyINtNtCsliVzVx4luf9_4core4cell4CellPuEE8try_withNCNvMs3_B6_BF_7replace0B1s_ECsehVGFPP7CiK_11clap_derive, symObjAddr: 0x0, symBinAddr: 0x60060, symSize: 0xE8 }
  - { offset: 0xCD044, size: 0x8, addend: 0x0, symName: __RNCNvMs3_NtNtCs6P7HZtpS3La_3std6thread5localINtB7_8LocalKeyINtNtCsliVzVx4luf9_4core4cell4CellPuEE7replace0CsehVGFPP7CiK_11clap_derive, symObjAddr: 0x60C, symBinAddr: 0x6066C, symSize: 0x44 }
  - { offset: 0xD0DFE, size: 0x8, addend: 0x0, symName: __RINvYINtNtNtCsliVzVx4luf9_4core3str4iter5SplitcENtNtNtNtBa_4iter6traits8iterator8Iterator3mapNtNtCs69QEzRJvHMp_5alloc6string6StringNCNCNvNtNtCsehVGFPP7CiK_11clap_derive5utils12doc_comments19extract_doc_comments1_00EB2f_, symObjAddr: 0x5A8, symBinAddr: 0x60608, symSize: 0x30 }
  - { offset: 0xD0E8B, size: 0x8, addend: 0x0, symName: __RNvYINtNtNtCsliVzVx4luf9_4core3str4iter5SplitcENtNtNtNtB9_4iter6traits8iterator8Iterator9size_hintCsehVGFPP7CiK_11clap_derive, symObjAddr: 0x2020, symBinAddr: 0x62080, symSize: 0x34 }
  - { offset: 0xD0F44, size: 0x8, addend: 0x0, symName: __RNCNvMsp_NtNtCsliVzVx4luf9_4core3str4iterINtB7_20MatchIndicesInternalcE4next0CsehVGFPP7CiK_11clap_derive, symObjAddr: 0x650, symBinAddr: 0x606B0, symSize: 0xA0 }
  - { offset: 0xD1108, size: 0x8, addend: 0x0, symName: __RNvXNtNtCsliVzVx4luf9_4core3str4iterNtB2_5CharsNtNtNtNtB6_4iter6traits8iterator8Iterator4nextCsehVGFPP7CiK_11clap_derive, symObjAddr: 0x90C, symBinAddr: 0x6096C, symSize: 0x70 }
  - { offset: 0xD11F0, size: 0x8, addend: 0x0, symName: __RNvXs3_NtNtCsliVzVx4luf9_4core3str4iterNtB5_11CharIndicesNtNtNtNtB9_4iter6traits8iterator8Iterator4nextCsehVGFPP7CiK_11clap_derive, symObjAddr: 0xC88, symBinAddr: 0x60CE8, symSize: 0x1A8 }
  - { offset: 0xD1580, size: 0x8, addend: 0x0, symName: __RNvXs4_NtNtCsliVzVx4luf9_4core3str4iterNtB5_11CharIndicesNtNtNtNtB9_4iter6traits12double_ended19DoubleEndedIterator9next_backCsehVGFPP7CiK_11clap_derive, symObjAddr: 0x104C, symBinAddr: 0x610AC, symSize: 0x188 }
  - { offset: 0xD182F, size: 0x8, addend: 0x0, symName: __RNvXs2_NtNtCsliVzVx4luf9_4core3str7patterncNtB5_7Pattern13into_searcherCsehVGFPP7CiK_11clap_derive, symObjAddr: 0xB10, symBinAddr: 0x60B70, symSize: 0x114 }
  - { offset: 0xD198B, size: 0x8, addend: 0x0, symName: __RNvXs2_NtNtCsliVzVx4luf9_4core3str7patterncNtB5_7Pattern15strip_prefix_ofCsehVGFPP7CiK_11clap_derive, symObjAddr: 0xC24, symBinAddr: 0x60C84, symSize: 0x64 }
  - { offset: 0xD1A02, size: 0x8, addend: 0x0, symName: __RNvXs7_NtNtCsliVzVx4luf9_4core3str7patternINtB5_18MultiCharEqPatternNCNvMB7_e4trim0ENtB5_7Pattern13into_searcherCsehVGFPP7CiK_11clap_derive, symObjAddr: 0x11D4, symBinAddr: 0x61234, symSize: 0x90 }
  - { offset: 0xD1A6A, size: 0x8, addend: 0x0, symName: __RNvXs8_NtNtCsliVzVx4luf9_4core3str7patternINtB5_19MultiCharEqSearcherNCNvMB7_e4trim0ENtB5_8Searcher4nextCsehVGFPP7CiK_11clap_derive, symObjAddr: 0x1264, symBinAddr: 0x612C4, symSize: 0x1B0 }
  - { offset: 0xD1CBF, size: 0x8, addend: 0x0, symName: __RNvXs9_NtNtCsliVzVx4luf9_4core3str7patternINtB5_19MultiCharEqSearcherNCNvMB7_e4trim0ENtB5_15ReverseSearcher9next_backCsehVGFPP7CiK_11clap_derive, symObjAddr: 0x1414, symBinAddr: 0x61474, symSize: 0x1B0 }
  - { offset: 0xD1F14, size: 0x8, addend: 0x0, symName: __RNvXs_NtNtCsliVzVx4luf9_4core3str7patternNtB4_12CharSearcherNtB4_8Searcher10next_matchCsehVGFPP7CiK_11clap_derive, symObjAddr: 0x1658, symBinAddr: 0x616B8, symSize: 0x3F8 }
  - { offset: 0xD25C4, size: 0x8, addend: 0x0, symName: __RNvXs_NtNtCsliVzVx4luf9_4core3str7patternNtB4_12CharSearcherNtB4_8Searcher8haystackCsehVGFPP7CiK_11clap_derive, symObjAddr: 0x1A50, symBinAddr: 0x61AB0, symSize: 0x20 }
  - { offset: 0xD25F8, size: 0x8, addend: 0x0, symName: __RNvXso_NtNtCsliVzVx4luf9_4core3str7patternINtB5_21CharPredicateSearcherNCNvMB7_e4trim0ENtB5_8Searcher11next_rejectCsehVGFPP7CiK_11clap_derive, symObjAddr: 0x1E78, symBinAddr: 0x61ED8, symSize: 0x24 }
  - { offset: 0xD2635, size: 0x8, addend: 0x0, symName: __RNvXsp_NtNtCsliVzVx4luf9_4core3str7patternINtB5_21CharPredicateSearcherNCNvMB7_e4trim0ENtB5_15ReverseSearcher16next_reject_backCsehVGFPP7CiK_11clap_derive, symObjAddr: 0x1E9C, symBinAddr: 0x61EFC, symSize: 0x24 }
  - { offset: 0xD2672, size: 0x8, addend: 0x0, symName: __RNvXst_NtNtCsliVzVx4luf9_4core3str7patternReNtB5_7Pattern12is_suffix_ofCsehVGFPP7CiK_11clap_derive, symObjAddr: 0x1EE4, symBinAddr: 0x61F44, symSize: 0x4C }
  - { offset: 0xD26DB, size: 0x8, addend: 0x0, symName: __RNvXst_NtNtCsliVzVx4luf9_4core3str7patternReNtB5_7Pattern15strip_prefix_ofCsehVGFPP7CiK_11clap_derive, symObjAddr: 0x1F30, symBinAddr: 0x61F90, symSize: 0xE0 }
  - { offset: 0xD28B1, size: 0x8, addend: 0x0, symName: __RNvYINtNtNtCsliVzVx4luf9_4core3str7pattern19MultiCharEqSearcherNCNvMB7_e4trim0ENtB5_15ReverseSearcher16next_reject_backCsehVGFPP7CiK_11clap_derive, symObjAddr: 0x2054, symBinAddr: 0x620B4, symSize: 0x90 }
  - { offset: 0xD291C, size: 0x8, addend: 0x0, symName: __RNvYINtNtNtCsliVzVx4luf9_4core3str7pattern19MultiCharEqSearcherNCNvMB7_e4trim0ENtB5_8Searcher11next_rejectCsehVGFPP7CiK_11clap_derive, symObjAddr: 0x20E4, symBinAddr: 0x62144, symSize: 0x90 }
  - { offset: 0xD2CE1, size: 0x8, addend: 0x0, symName: __RNvMNtCsliVzVx4luf9_4core5sliceSTRNtNtCsaxBLFzn74Hr_3syn4data5FieldNtNtCsehVGFPP7CiK_11clap_derive4item4ItemE4iterB17_, symObjAddr: 0x6F0, symBinAddr: 0x60750, symSize: 0x28 }
  - { offset: 0xD2D18, size: 0x8, addend: 0x0, symName: __RNvMNtCsliVzVx4luf9_4core5sliceSTRNtNtCsaxBLFzn74Hr_3syn4data7VariantNtNtCsehVGFPP7CiK_11clap_derive4item4ItemE4iterB19_, symObjAddr: 0x718, symBinAddr: 0x60778, symSize: 0x28 }
  - { offset: 0xD2D4F, size: 0x8, addend: 0x0, symName: __RNvMNtCsliVzVx4luf9_4core5sliceSTRRNtNtCsaxBLFzn74Hr_3syn4data7VariantRNtNtCsehVGFPP7CiK_11clap_derive4item4ItemE4iterB1b_, symObjAddr: 0x740, symBinAddr: 0x607A0, symSize: 0x28 }
  - { offset: 0xD2F4C, size: 0x8, addend: 0x0, symName: __RNvXs_NtNtCsliVzVx4luf9_4core5slice4iterRSTRNtNtCsaxBLFzn74Hr_3syn4data5FieldNtNtCsehVGFPP7CiK_11clap_derive4item4ItemENtNtNtNtB8_4iter6traits7collect12IntoIterator9into_iterB1h_, symObjAddr: 0x1A70, symBinAddr: 0x61AD0, symSize: 0x58 }
  - { offset: 0xD30D1, size: 0x8, addend: 0x0, symName: __RNvXs_NtNtCsliVzVx4luf9_4core5slice4iterRSTRNtNtCsaxBLFzn74Hr_3syn4data7VariantNtNtCsehVGFPP7CiK_11clap_derive4item4ItemENtNtNtNtB8_4iter6traits7collect12IntoIterator9into_iterB1j_, symObjAddr: 0x1AC8, symBinAddr: 0x61B28, symSize: 0x58 }
  - { offset: 0xD39FA, size: 0x8, addend: 0x0, symName: __RINvNtNtNtCs39eHfitSTy1_10proc_macro6bridge6client5state3setINtNtCsliVzVx4luf9_4core6option6OptionNtB4_11TokenStreamENCNCINvB4_10run_clientB1y_BW_NCNCINvMs7_B4_INtB4_6ClientNtB8_11TokenStreamB2L_E7expand1NvCsehVGFPP7CiK_11clap_derive10subcommandE00E00EB3i_, symObjAddr: 0x108, symBinAddr: 0x60168, symSize: 0x128 }
  - { offset: 0xD3B08, size: 0x8, addend: 0x0, symName: __RINvNtNtNtCs39eHfitSTy1_10proc_macro6bridge6client5state3setINtNtCsliVzVx4luf9_4core6option6OptionNtB4_11TokenStreamENCNCINvB4_10run_clientB1y_BW_NCNCINvMs7_B4_INtB4_6ClientNtB8_11TokenStreamB2L_E7expand1NvCsehVGFPP7CiK_11clap_derive10value_enumE00E00EB3i_, symObjAddr: 0x230, symBinAddr: 0x60290, symSize: 0x128 }
  - { offset: 0xD3C16, size: 0x8, addend: 0x0, symName: __RINvNtNtNtCs39eHfitSTy1_10proc_macro6bridge6client5state3setINtNtCsliVzVx4luf9_4core6option6OptionNtB4_11TokenStreamENCNCINvB4_10run_clientB1y_BW_NCNCINvMs7_B4_INtB4_6ClientNtB8_11TokenStreamB2L_E7expand1NvCsehVGFPP7CiK_11clap_derive4argsE00E00EB3i_, symObjAddr: 0x358, symBinAddr: 0x603B8, symSize: 0x128 }
  - { offset: 0xD3D24, size: 0x8, addend: 0x0, symName: __RINvNtNtNtCs39eHfitSTy1_10proc_macro6bridge6client5state3setINtNtCsliVzVx4luf9_4core6option6OptionNtB4_11TokenStreamENCNCINvB4_10run_clientB1y_BW_NCNCINvMs7_B4_INtB4_6ClientNtB8_11TokenStreamB2L_E7expand1NvCsehVGFPP7CiK_11clap_derive6parserE00E00EB3i_, symObjAddr: 0x480, symBinAddr: 0x604E0, symSize: 0x128 }
  - { offset: 0xD3E3C, size: 0x8, addend: 0x0, symName: __RNCNkNvNtNtNtCs39eHfitSTy1_10proc_macro6bridge6client5state12BRIDGE_STATE0s_0CsehVGFPP7CiK_11clap_derive, symObjAddr: 0x5D8, symBinAddr: 0x60638, symSize: 0x34 }
  - { offset: 0xD409E, size: 0x8, addend: 0x0, symName: __RNvXNtNtCs39eHfitSTy1_10proc_macro6bridge3rpcuINtB2_6EncodeuE6encodeCsehVGFPP7CiK_11clap_derive, symObjAddr: 0x8F8, symBinAddr: 0x60958, symSize: 0x14 }
  - { offset: 0xD4127, size: 0x8, addend: 0x0, symName: __RNvXsa_NtNtCs39eHfitSTy1_10proc_macro6bridge3rpcRShINtB5_6EncodeuE6encodeCsehVGFPP7CiK_11clap_derive, symObjAddr: 0x1B20, symBinAddr: 0x61B80, symSize: 0xD0 }
  - { offset: 0xD426A, size: 0x8, addend: 0x0, symName: __RNvXsc_NtNtCs39eHfitSTy1_10proc_macro6bridge3rpcReINtB5_6EncodeuE6encodeCsehVGFPP7CiK_11clap_derive, symObjAddr: 0x1BF0, symBinAddr: 0x61C50, symSize: 0x38 }
  - { offset: 0xD4352, size: 0x8, addend: 0x0, symName: __RNvXsl_NtNtCs39eHfitSTy1_10proc_macro6bridge3rpcNtB5_12PanicMessageINtB5_6EncodeuE6encodeCsehVGFPP7CiK_11clap_derive, symObjAddr: 0x1C28, symBinAddr: 0x61C88, symSize: 0x13C }
  - { offset: 0xD45AB, size: 0x8, addend: 0x0, symName: __RNvXso_NtNtCs39eHfitSTy1_10proc_macro6bridge3rpcmINtB5_9DecodeMutuE6decodeCsehVGFPP7CiK_11clap_derive, symObjAddr: 0x1D64, symBinAddr: 0x61DC4, symSize: 0x114 }
  - { offset: 0xD4E60, size: 0x8, addend: 0x0, symName: __RNvXsA_NtCs3vPhoADqSdK_11proc_macro28fallbackNtB5_5IdentNtNtCsliVzVx4luf9_4core5clone5Clone5cloneCsehVGFPP7CiK_11clap_derive, symObjAddr: 0x15C4, symBinAddr: 0x61624, symSize: 0x94 }
  - { offset: 0xD4E94, size: 0x8, addend: 0x0, symName: __RNvXss_NtCs3vPhoADqSdK_11proc_macro28fallbackNtB5_11TokenStreamNtNtCsliVzVx4luf9_4core5clone5Clone5cloneCsehVGFPP7CiK_11clap_derive, symObjAddr: 0x1EC0, symBinAddr: 0x61F20, symSize: 0x24 }
  - { offset: 0xD4EC6, size: 0x8, addend: 0x0, symName: __RNvXsu_NtCs3vPhoADqSdK_11proc_macro28fallbackNtB5_4SpanNtNtCsliVzVx4luf9_4core5clone5Clone5cloneCsehVGFPP7CiK_11clap_derive, symObjAddr: 0x2010, symBinAddr: 0x62070, symSize: 0x10 }
  - { offset: 0xD55E6, size: 0x8, addend: 0x0, symName: __RINvXNtNtCsehVGFPP7CiK_11clap_derive5utils5errorRNtNtCsaxBLFzn74Hr_3syn4data7VariantNtB3_13ToTokensError25EXPECTED_Span_OR_ToTokensNtNtCs69QEzRJvHMp_5alloc6string6StringEB7_, symObjAddr: 0x4A00, symBinAddr: 0x64A60, symSize: 0xB0 }
  - { offset: 0xD5633, size: 0x8, addend: 0x0, symName: __RINvXNtNtCsehVGFPP7CiK_11clap_derive5utils5errorRRNtNtCsaxBLFzn74Hr_3syn4data7VariantNtB3_13ToTokensError25EXPECTED_Span_OR_ToTokensNtNtCs69QEzRJvHMp_5alloc6string6StringEB7_, symObjAddr: 0x4AB0, symBinAddr: 0x64B10, symSize: 0xB0 }
  - { offset: 0xD573C, size: 0x8, addend: 0x0, symName: __RNvNtCsehVGFPP7CiK_11clap_derive7dummies6parser, symObjAddr: 0x24F4, symBinAddr: 0x62554, symSize: 0x1E8 }
  - { offset: 0xD57A8, size: 0x8, addend: 0x0, symName: __RNvNtCsehVGFPP7CiK_11clap_derive7dummies8into_app, symObjAddr: 0x26DC, symBinAddr: 0x6273C, symSize: 0x4EC }
  - { offset: 0xD5841, size: 0x8, addend: 0x0, symName: __RNvNtCsehVGFPP7CiK_11clap_derive7dummies16from_arg_matches, symObjAddr: 0x2BC8, symBinAddr: 0x62C28, symSize: 0x798 }
  - { offset: 0xD5906, size: 0x8, addend: 0x0, symName: __RNvNtCsehVGFPP7CiK_11clap_derive7dummies10subcommand, symObjAddr: 0x3360, symBinAddr: 0x633C0, symSize: 0x7A4 }
  - { offset: 0xD5A0C, size: 0x8, addend: 0x0, symName: __RNvNtCsehVGFPP7CiK_11clap_derive7dummies4args, symObjAddr: 0x3B04, symBinAddr: 0x63B64, symSize: 0x600 }
  - { offset: 0xD5AE6, size: 0x8, addend: 0x0, symName: __RNvNtCsehVGFPP7CiK_11clap_derive7dummies10value_enum, symObjAddr: 0x4104, symBinAddr: 0x64164, symSize: 0x8FC }
  - { offset: 0xD5C75, size: 0x8, addend: 0x0, symName: __RINvMs2_NtNtCs6P7HZtpS3La_3std6thread5localINtB6_8LocalKeyINtNtCsliVzVx4luf9_4core4cell4CellPuEE8try_withNCNvMs3_B6_BF_7replace0B1s_ECsehVGFPP7CiK_11clap_derive, symObjAddr: 0x0, symBinAddr: 0x60060, symSize: 0xE8 }
  - { offset: 0xD5E14, size: 0x8, addend: 0x0, symName: __RINvNtCs5Bhy1SxosHa_5quote9___private8get_spanNtCs3vPhoADqSdK_11proc_macro24SpanECsehVGFPP7CiK_11clap_derive, symObjAddr: 0xE8, symBinAddr: 0x60148, symSize: 0x20 }
  - { offset: 0xD5E4E, size: 0x8, addend: 0x0, symName: __RNvXs4_NtCs5Bhy1SxosHa_5quote9___privateINtB5_9RepInterpNtCs3vPhoADqSdK_11proc_macro211TokenStreamENtNtB7_9to_tokens8ToTokens9to_tokensCsehVGFPP7CiK_11clap_derive, symObjAddr: 0xE30, symBinAddr: 0x60E90, symSize: 0x3C }
  - { offset: 0xD5E8D, size: 0x8, addend: 0x0, symName: __RNvXs4_NtCs5Bhy1SxosHa_5quote9___privateINtB5_9RepInterpRINtNtCsliVzVx4luf9_4core6option6OptionNtCs3vPhoADqSdK_11proc_macro211TokenStreamEENtNtB7_9to_tokens8ToTokens9to_tokensCsehVGFPP7CiK_11clap_derive, symObjAddr: 0xE6C, symBinAddr: 0x60ECC, symSize: 0x3C }
  - { offset: 0xD5ECC, size: 0x8, addend: 0x0, symName: __RNvXs4_NtCs5Bhy1SxosHa_5quote9___privateINtB5_9RepInterpRNtCs3vPhoADqSdK_11proc_macro211TokenStreamENtNtB7_9to_tokens8ToTokens9to_tokensCsehVGFPP7CiK_11clap_derive, symObjAddr: 0xEA8, symBinAddr: 0x60F08, symSize: 0x3C }
  - { offset: 0xD5F0B, size: 0x8, addend: 0x0, symName: __RNvXs4_NtCs5Bhy1SxosHa_5quote9___privateINtB5_9RepInterpRNtCs3vPhoADqSdK_11proc_macro25IdentENtNtB7_9to_tokens8ToTokens9to_tokensCsehVGFPP7CiK_11clap_derive, symObjAddr: 0xEE4, symBinAddr: 0x60F44, symSize: 0x3C }
  - { offset: 0xD5F4A, size: 0x8, addend: 0x0, symName: __RNvXs4_NtCs5Bhy1SxosHa_5quote9___privateINtB5_9RepInterpRNtNtCsaxBLFzn74Hr_3syn4expr4ExprENtNtB7_9to_tokens8ToTokens9to_tokensCsehVGFPP7CiK_11clap_derive, symObjAddr: 0xF20, symBinAddr: 0x60F80, symSize: 0x3C }
  - { offset: 0xD5F89, size: 0x8, addend: 0x0, symName: __RNvXs4_NtCs5Bhy1SxosHa_5quote9___privateINtB5_9RepInterpRNtNtCsehVGFPP7CiK_11clap_derive4item11DeprecationENtNtB7_9to_tokens8ToTokens9to_tokensBX_, symObjAddr: 0xF5C, symBinAddr: 0x60FBC, symSize: 0x3C }
  - { offset: 0xD5FC8, size: 0x8, addend: 0x0, symName: __RNvXs4_NtCs5Bhy1SxosHa_5quote9___privateINtB5_9RepInterpRNtNtCsehVGFPP7CiK_11clap_derive4item6MethodENtNtB7_9to_tokens8ToTokens9to_tokensBX_, symObjAddr: 0xF98, symBinAddr: 0x60FF8, symSize: 0x3C }
  - { offset: 0xD6007, size: 0x8, addend: 0x0, symName: __RNvXs4_NtCs5Bhy1SxosHa_5quote9___privateINtB5_9RepInterpRRNtCs3vPhoADqSdK_11proc_macro25IdentENtNtB7_9to_tokens8ToTokens9to_tokensCsehVGFPP7CiK_11clap_derive, symObjAddr: 0xFD4, symBinAddr: 0x61034, symSize: 0x3C }
  - { offset: 0xD6046, size: 0x8, addend: 0x0, symName: __RNvXs4_NtCs5Bhy1SxosHa_5quote9___privateINtB5_9RepInterpRRNtNtCsehVGFPP7CiK_11clap_derive4item4NameENtNtB7_9to_tokens8ToTokens9to_tokensBY_, symObjAddr: 0x1010, symBinAddr: 0x61070, symSize: 0x3C }
  - { offset: 0xD61FF, size: 0x8, addend: 0x0, symName: __RNvXNtCs5Bhy1SxosHa_5quote9to_tokensRNtNtCsaxBLFzn74Hr_3syn8generics11WhereClauseNtB2_8ToTokens9to_tokensCsehVGFPP7CiK_11clap_derive, symObjAddr: 0x768, symBinAddr: 0x607C8, symSize: 0x40 }
  - { offset: 0xD623E, size: 0x8, addend: 0x0, symName: __RNvXNtCs5Bhy1SxosHa_5quote9to_tokensRRNtNtCsaxBLFzn74Hr_3syn4data5FieldNtB2_8ToTokens9to_tokensCsehVGFPP7CiK_11clap_derive, symObjAddr: 0x7A8, symBinAddr: 0x60808, symSize: 0x40 }
  - { offset: 0xD627D, size: 0x8, addend: 0x0, symName: __RNvXNtCs5Bhy1SxosHa_5quote9to_tokensRRNtNtCsaxBLFzn74Hr_3syn4data7VariantNtB2_8ToTokens9to_tokensCsehVGFPP7CiK_11clap_derive, symObjAddr: 0x7E8, symBinAddr: 0x60848, symSize: 0x40 }
  - { offset: 0xD62C2, size: 0x8, addend: 0x0, symName: __RNvYRNtNtCsaxBLFzn74Hr_3syn4data5FieldNtNtCs5Bhy1SxosHa_5quote9to_tokens8ToTokens15to_token_streamCsehVGFPP7CiK_11clap_derive, symObjAddr: 0x2174, symBinAddr: 0x621D4, symSize: 0x8C }
  - { offset: 0xD630C, size: 0x8, addend: 0x0, symName: __RNvYRNtNtCsaxBLFzn74Hr_3syn4data5FieldNtNtCs5Bhy1SxosHa_5quote9to_tokens8ToTokens17into_token_streamCsehVGFPP7CiK_11clap_derive, symObjAddr: 0x2200, symBinAddr: 0x62260, symSize: 0x54 }
  - { offset: 0xD6341, size: 0x8, addend: 0x0, symName: __RNvYRNtNtCsaxBLFzn74Hr_3syn4data7VariantNtNtCs5Bhy1SxosHa_5quote9to_tokens8ToTokens15to_token_streamCsehVGFPP7CiK_11clap_derive, symObjAddr: 0x2254, symBinAddr: 0x622B4, symSize: 0x8C }
  - { offset: 0xD638B, size: 0x8, addend: 0x0, symName: __RNvYRNtNtCsaxBLFzn74Hr_3syn4data7VariantNtNtCs5Bhy1SxosHa_5quote9to_tokens8ToTokens17into_token_streamCsehVGFPP7CiK_11clap_derive, symObjAddr: 0x22E0, symBinAddr: 0x62340, symSize: 0x54 }
  - { offset: 0xD63C0, size: 0x8, addend: 0x0, symName: __RNvYRRNtNtCsaxBLFzn74Hr_3syn4data5FieldNtNtCs5Bhy1SxosHa_5quote9to_tokens8ToTokens15to_token_streamCsehVGFPP7CiK_11clap_derive, symObjAddr: 0x2334, symBinAddr: 0x62394, symSize: 0x8C }
  - { offset: 0xD640A, size: 0x8, addend: 0x0, symName: __RNvYRRNtNtCsaxBLFzn74Hr_3syn4data5FieldNtNtCs5Bhy1SxosHa_5quote9to_tokens8ToTokens17into_token_streamCsehVGFPP7CiK_11clap_derive, symObjAddr: 0x23C0, symBinAddr: 0x62420, symSize: 0x54 }
  - { offset: 0xD643F, size: 0x8, addend: 0x0, symName: __RNvYRRNtNtCsaxBLFzn74Hr_3syn4data7VariantNtNtCs5Bhy1SxosHa_5quote9to_tokens8ToTokens15to_token_streamCsehVGFPP7CiK_11clap_derive, symObjAddr: 0x2414, symBinAddr: 0x62474, symSize: 0x8C }
  - { offset: 0xD6489, size: 0x8, addend: 0x0, symName: __RNvYRRNtNtCsaxBLFzn74Hr_3syn4data7VariantNtNtCs5Bhy1SxosHa_5quote9to_tokens8ToTokens17into_token_streamCsehVGFPP7CiK_11clap_derive, symObjAddr: 0x24A0, symBinAddr: 0x62500, symSize: 0x54 }
  - { offset: 0xD64CA, size: 0x8, addend: 0x0, symName: __RNvXs0_NtCs5Bhy1SxosHa_5quote7spannedNtNtCsaxBLFzn74Hr_3syn4data5FieldNtB5_7Spanned6___spanCsehVGFPP7CiK_11clap_derive, symObjAddr: 0xA00, symBinAddr: 0x60A60, symSize: 0x44 }
  - { offset: 0xD64FF, size: 0x8, addend: 0x0, symName: __RNvXs0_NtCs5Bhy1SxosHa_5quote7spannedNtNtCsaxBLFzn74Hr_3syn4data7VariantNtB5_7Spanned6___spanCsehVGFPP7CiK_11clap_derive, symObjAddr: 0xA44, symBinAddr: 0x60AA4, symSize: 0x44 }
  - { offset: 0xD6534, size: 0x8, addend: 0x0, symName: __RNvXs0_NtCs5Bhy1SxosHa_5quote7spannedRNtNtCsaxBLFzn74Hr_3syn4data5FieldNtB5_7Spanned6___spanCsehVGFPP7CiK_11clap_derive, symObjAddr: 0xA88, symBinAddr: 0x60AE8, symSize: 0x44 }
  - { offset: 0xD6569, size: 0x8, addend: 0x0, symName: __RNvXs0_NtCs5Bhy1SxosHa_5quote7spannedRNtNtCsaxBLFzn74Hr_3syn4data7VariantNtB5_7Spanned6___spanCsehVGFPP7CiK_11clap_derive, symObjAddr: 0xACC, symBinAddr: 0x60B2C, symSize: 0x44 }
  - { offset: 0xD68EA, size: 0x8, addend: 0x0, symName: __RNvXNtCsaxBLFzn74Hr_3syn7spannedNtNtB4_4data5FieldNtB2_7Spanned4spanCsehVGFPP7CiK_11clap_derive, symObjAddr: 0x828, symBinAddr: 0x60888, symSize: 0x34 }
  - { offset: 0xD691F, size: 0x8, addend: 0x0, symName: __RNvXNtCsaxBLFzn74Hr_3syn7spannedNtNtB4_4data7VariantNtB2_7Spanned4spanCsehVGFPP7CiK_11clap_derive, symObjAddr: 0x85C, symBinAddr: 0x608BC, symSize: 0x34 }
  - { offset: 0xD6954, size: 0x8, addend: 0x0, symName: __RNvXNtCsaxBLFzn74Hr_3syn7spannedRNtNtB4_4data5FieldNtB2_7Spanned4spanCsehVGFPP7CiK_11clap_derive, symObjAddr: 0x890, symBinAddr: 0x608F0, symSize: 0x34 }
  - { offset: 0xD6989, size: 0x8, addend: 0x0, symName: __RNvXNtCsaxBLFzn74Hr_3syn7spannedRNtNtB4_4data7VariantNtB2_7Spanned4spanCsehVGFPP7CiK_11clap_derive, symObjAddr: 0x8C4, symBinAddr: 0x60924, symSize: 0x34 }
  - { offset: 0xDC535, size: 0x8, addend: 0x0, symName: __RNvXNvXNtNtCs69QEzRJvHMp_5alloc5slice4hackpNtB5_10ConvertVec6to_vecINtB2_9DropGuardNtNtCsaxBLFzn74Hr_3syn4expr4ExprNtNtB9_5alloc6GlobalENtNtNtCsliVzVx4luf9_4core3ops4drop4Drop4dropCsehVGFPP7CiK_11clap_derive, symObjAddr: 0x97C, symBinAddr: 0x609DC, symSize: 0x2C }
  - { offset: 0xDC5A2, size: 0x8, addend: 0x0, symName: __RNvXNvXNtNtCs69QEzRJvHMp_5alloc5slice4hackpNtB5_10ConvertVec6to_vecINtB2_9DropGuardNtNtCsehVGFPP7CiK_11clap_derive4item11DeprecationNtNtB9_5alloc6GlobalENtNtNtCsliVzVx4luf9_4core3ops4drop4Drop4dropB1n_, symObjAddr: 0x9A8, symBinAddr: 0x60A08, symSize: 0x2C }
  - { offset: 0xDC60F, size: 0x8, addend: 0x0, symName: __RNvXNvXNtNtCs69QEzRJvHMp_5alloc5slice4hackpNtB5_10ConvertVec6to_vecINtB2_9DropGuardNtNtCsehVGFPP7CiK_11clap_derive4item6MethodNtNtB9_5alloc6GlobalENtNtNtCsliVzVx4luf9_4core3ops4drop4Drop4dropB1n_, symObjAddr: 0x9D4, symBinAddr: 0x60A34, symSize: 0x2C }
  - { offset: 0xDD70F, size: 0x8, addend: 0x0, symName: __RINvCsaxBLFzn74Hr_3syn5parseNtNtB2_6derive11DeriveInputECsehVGFPP7CiK_11clap_derive, symObjAddr: 0x0, symBinAddr: 0x64BC0, symSize: 0x30 }
  - { offset: 0xDDCD7, size: 0x8, addend: 0x0, symName: __RNvXsR_NtCs39eHfitSTy1_10proc_macro6bridgeINtNtCsliVzVx4luf9_4core6option6OptionNtNtB5_6client11TokenStreamEINtNtB5_3rpc6EncodeuE6encodeCsehVGFPP7CiK_11clap_derive, symObjAddr: 0x2FD0, symBinAddr: 0x67B90, symSize: 0xCC }
  - { offset: 0xDDD87, size: 0x8, addend: 0x0, symName: __RNvXsR_NtCs39eHfitSTy1_10proc_macro6bridgeINtNtCsliVzVx4luf9_4core6option6OptionReEINtNtB5_3rpc6EncodeuE6encodeCsehVGFPP7CiK_11clap_derive, symObjAddr: 0x309C, symBinAddr: 0x67C5C, symSize: 0xD8 }
  - { offset: 0xDE1AF, size: 0x8, addend: 0x0, symName: __RNvXsA_NtCs3vPhoADqSdK_11proc_macro23impNtB5_11TokenStreamNtNtCsliVzVx4luf9_4core5clone5Clone5cloneCsehVGFPP7CiK_11clap_derive, symObjAddr: 0x2D0C, symBinAddr: 0x678CC, symSize: 0x98 }
  - { offset: 0xDE21B, size: 0x8, addend: 0x0, symName: __RNvXsB_NtCs3vPhoADqSdK_11proc_macro23impNtB5_19DeferredTokenStreamNtNtCsliVzVx4luf9_4core5clone5Clone5cloneCsehVGFPP7CiK_11clap_derive, symObjAddr: 0x2DA4, symBinAddr: 0x67964, symSize: 0x88 }
  - { offset: 0xDE24D, size: 0x8, addend: 0x0, symName: __RNvXsG_NtCs3vPhoADqSdK_11proc_macro23impNtB5_5IdentNtNtCsliVzVx4luf9_4core5clone5Clone5cloneCsehVGFPP7CiK_11clap_derive, symObjAddr: 0x2E2C, symBinAddr: 0x679EC, symSize: 0x9C }
  - { offset: 0xE3121, size: 0x8, addend: 0x0, symName: __RNvXs3_NtCsliVzVx4luf9_4core6optionINtB5_6OptionNtNtCsehVGFPP7CiK_11clap_derive4attr13MagicAttrNameENtNtB7_5clone5Clone5cloneBO_, symObjAddr: 0x29F4, symBinAddr: 0x675B4, symSize: 0x60 }
  - { offset: 0xE3176, size: 0x8, addend: 0x0, symName: __RNvXs3_NtCsliVzVx4luf9_4core6optionINtB5_6OptionNtNtCsehVGFPP7CiK_11clap_derive4attr9AttrValueENtNtB7_5clone5Clone5cloneBO_, symObjAddr: 0x2A54, symBinAddr: 0x67614, symSize: 0x7C }
  - { offset: 0xE31CB, size: 0x8, addend: 0x0, symName: __RNvXs3_NtCsliVzVx4luf9_4core6optionINtB5_6OptionNtNtCsehVGFPP7CiK_11clap_derive4item11ValueParserENtNtB7_5clone5Clone5cloneBO_, symObjAddr: 0x2AD0, symBinAddr: 0x67690, symSize: 0x88 }
  - { offset: 0xE3220, size: 0x8, addend: 0x0, symName: __RNvXs3_NtCsliVzVx4luf9_4core6optionINtB5_6OptionNtNtCsehVGFPP7CiK_11clap_derive4item6ActionENtNtB7_5clone5Clone5cloneBO_, symObjAddr: 0x2B58, symBinAddr: 0x67718, symSize: 0x88 }
  - { offset: 0xE3275, size: 0x8, addend: 0x0, symName: __RNvXs3_NtCsliVzVx4luf9_4core6optionINtB5_6OptionNtNtCsehVGFPP7CiK_11clap_derive4item6MethodENtNtB7_5clone5Clone5cloneBO_, symObjAddr: 0x2BE0, symBinAddr: 0x677A0, symSize: 0x80 }
  - { offset: 0xE3340, size: 0x8, addend: 0x0, symName: __RNvXs5_NtCsliVzVx4luf9_4core6optionINtB5_6OptionNtNtCsaxBLFzn74Hr_3syn4expr4ExprENtNtNtNtB7_4iter6traits7collect12IntoIterator9into_iterCsehVGFPP7CiK_11clap_derive, symObjAddr: 0x2C60, symBinAddr: 0x67820, symSize: 0x48 }
  - { offset: 0xE3378, size: 0x8, addend: 0x0, symName: __RNvXs5_NtCsliVzVx4luf9_4core6optionINtB5_6OptionNtNtCsehVGFPP7CiK_11clap_derive4attr8ClapAttrENtNtNtNtB7_4iter6traits7collect12IntoIterator9into_iterBO_, symObjAddr: 0x2CA8, symBinAddr: 0x67868, symSize: 0x50 }
  - { offset: 0xE33B0, size: 0x8, addend: 0x0, symName: __RNvXs5_NtCsliVzVx4luf9_4core6optionINtB5_6OptionRNtNtCsehVGFPP7CiK_11clap_derive4item6MethodENtNtNtNtB7_4iter6traits7collect12IntoIterator9into_iterBP_, symObjAddr: 0x2CF8, symBinAddr: 0x678B8, symSize: 0x14 }
  - { offset: 0xE33ED, size: 0x8, addend: 0x0, symName: __RNvXsK_NtCsliVzVx4luf9_4core6optionINtB5_4ItemRNtNtCsaxBLFzn74Hr_3syn4data7VariantENtNtB7_5clone5Clone5cloneCsehVGFPP7CiK_11clap_derive, symObjAddr: 0x2EC8, symBinAddr: 0x67A88, symSize: 0x60 }
  - { offset: 0xE3484, size: 0x8, addend: 0x0, symName: __RNvXsK_NtCsliVzVx4luf9_4core6optionINtB5_4ItemRNtNtCsaxBLFzn74Hr_3syn4path15GenericArgumentENtNtB7_5clone5Clone5cloneCsehVGFPP7CiK_11clap_derive, symObjAddr: 0x2F28, symBinAddr: 0x67AE8, symSize: 0x60 }
  - { offset: 0xE3521, size: 0x8, addend: 0x0, symName: __RNvXsO_NtCsliVzVx4luf9_4core6optionINtB5_8IntoIterRNtNtCsaxBLFzn74Hr_3syn4data7VariantENtNtB7_5clone5Clone5cloneCsehVGFPP7CiK_11clap_derive, symObjAddr: 0x2F88, symBinAddr: 0x67B48, symSize: 0x24 }
  - { offset: 0xE3558, size: 0x8, addend: 0x0, symName: __RNvXsO_NtCsliVzVx4luf9_4core6optionINtB5_8IntoIterRNtNtCsaxBLFzn74Hr_3syn4path15GenericArgumentENtNtB7_5clone5Clone5cloneCsehVGFPP7CiK_11clap_derive, symObjAddr: 0x2FAC, symBinAddr: 0x67B6C, symSize: 0x24 }
  - { offset: 0xE38FE, size: 0x8, addend: 0x0, symName: __RNvXsc_NtCsliVzVx4luf9_4core6optionINtB5_6OptionNtNtCsehVGFPP7CiK_11clap_derive4attr13MagicAttrNameENtNtB7_3cmp9PartialEq2eqBO_, symObjAddr: 0x3414, symBinAddr: 0x67FD4, symSize: 0xB8 }
  - { offset: 0xE3B99, size: 0x8, addend: 0x0, symName: __RNvXsv_NtCsliVzVx4luf9_4core6optionINtB5_8IntoIterNtNtCsaxBLFzn74Hr_3syn4expr4ExprENtNtNtNtB7_4iter6traits8iterator8Iterator4nextCsehVGFPP7CiK_11clap_derive, symObjAddr: 0x34CC, symBinAddr: 0x6808C, symSize: 0x78 }
  - { offset: 0xE3CBC, size: 0x8, addend: 0x0, symName: __RNvXsv_NtCsliVzVx4luf9_4core6optionINtB5_8IntoIterNtNtCsaxBLFzn74Hr_3syn4expr4ExprENtNtNtNtB7_4iter6traits8iterator8Iterator9size_hintCsehVGFPP7CiK_11clap_derive, symObjAddr: 0x3544, symBinAddr: 0x68104, symSize: 0x5C }
  - { offset: 0xE3DA3, size: 0x8, addend: 0x0, symName: __RNvXsv_NtCsliVzVx4luf9_4core6optionINtB5_8IntoIterNtNtCsehVGFPP7CiK_11clap_derive4attr8ClapAttrENtNtNtNtB7_4iter6traits8iterator8Iterator4nextBQ_, symObjAddr: 0x35A0, symBinAddr: 0x68160, symSize: 0x78 }
  - { offset: 0xE3EC6, size: 0x8, addend: 0x0, symName: __RNvXsv_NtCsliVzVx4luf9_4core6optionINtB5_8IntoIterNtNtCsehVGFPP7CiK_11clap_derive4attr8ClapAttrENtNtNtNtB7_4iter6traits8iterator8Iterator9size_hintBQ_, symObjAddr: 0x3618, symBinAddr: 0x681D8, symSize: 0x5C }
  - { offset: 0xE3FAD, size: 0x8, addend: 0x0, symName: __RNvXsv_NtCsliVzVx4luf9_4core6optionINtB5_8IntoIterRNtNtCsaxBLFzn74Hr_3syn4data7VariantENtNtNtNtB7_4iter6traits8iterator8Iterator9size_hintCsehVGFPP7CiK_11clap_derive, symObjAddr: 0x3674, symBinAddr: 0x68234, symSize: 0x5C }
  - { offset: 0xE4094, size: 0x8, addend: 0x0, symName: __RNvXsv_NtCsliVzVx4luf9_4core6optionINtB5_8IntoIterRNtNtCsaxBLFzn74Hr_3syn4path15GenericArgumentENtNtNtNtB7_4iter6traits8iterator8Iterator9size_hintCsehVGFPP7CiK_11clap_derive, symObjAddr: 0x36D0, symBinAddr: 0x68290, symSize: 0x5C }
  - { offset: 0xE417B, size: 0x8, addend: 0x0, symName: __RNvXsv_NtCsliVzVx4luf9_4core6optionINtB5_8IntoIterRNtNtCsehVGFPP7CiK_11clap_derive4item6MethodENtNtNtNtB7_4iter6traits8iterator8Iterator4nextBR_, symObjAddr: 0x372C, symBinAddr: 0x682EC, symSize: 0x3C }
  - { offset: 0xE4FD6, size: 0x8, addend: 0x0, symName: __RNvMNtCsliVzVx4luf9_4core5sliceSINtNtB4_6option6OptionNtCs3vPhoADqSdK_11proc_macro211TokenStreamE4iterCsehVGFPP7CiK_11clap_derive, symObjAddr: 0x1C34, symBinAddr: 0x667F4, symSize: 0x28 }
  - { offset: 0xE5073, size: 0x8, addend: 0x0, symName: __RNvNtNtCsliVzVx4luf9_4core5slice6memchr6memchrCsehVGFPP7CiK_11clap_derive, symObjAddr: 0x26A0, symBinAddr: 0x67260, symSize: 0x114 }
  - { offset: 0xE51B3, size: 0x8, addend: 0x0, symName: __RINvYINtNtCsliVzVx4luf9_4core6option8IntoIterNtNtCsaxBLFzn74Hr_3syn4expr4ExprENtNtNtNtB8_4iter6traits8iterator8Iterator4folduNCINvNvB1e_8for_each4callBH_NCINvMsi_NtCs69QEzRJvHMp_5alloc3vecINtB2A_3VecBH_E14extend_trustedB3_E0E0ECsehVGFPP7CiK_11clap_derive, symObjAddr: 0x1944, symBinAddr: 0x66504, symSize: 0x144 }
  - { offset: 0xE52DA, size: 0x8, addend: 0x0, symName: __RINvYINtNtCsliVzVx4luf9_4core6option8IntoIterNtNtCsaxBLFzn74Hr_3syn4expr4ExprENtNtNtNtB8_4iter6traits8iterator8Iterator8for_eachNCINvMsi_NtCs69QEzRJvHMp_5alloc3vecINtB2b_3VecBH_E14extend_trustedB3_E0ECsehVGFPP7CiK_11clap_derive, symObjAddr: 0x1A88, symBinAddr: 0x66648, symSize: 0x34 }
  - { offset: 0xE5354, size: 0x8, addend: 0x0, symName: __RINvYINtNtCsliVzVx4luf9_4core6option8IntoIterNtNtCsehVGFPP7CiK_11clap_derive4attr8ClapAttrENtNtNtNtB8_4iter6traits8iterator8Iterator4folduNCINvNvB1r_8for_each4callBH_NCINvMsi_NtCs69QEzRJvHMp_5alloc3vecINtB2N_3VecBH_E14extend_trustedB3_E0E0EBL_, symObjAddr: 0x1ABC, symBinAddr: 0x6667C, symSize: 0x144 }
  - { offset: 0xE53E5, size: 0x8, addend: 0x0, symName: __RINvYINtNtCsliVzVx4luf9_4core6option8IntoIterNtNtCsehVGFPP7CiK_11clap_derive4attr8ClapAttrENtNtNtNtB8_4iter6traits8iterator8Iterator8for_eachNCINvMsi_NtCs69QEzRJvHMp_5alloc3vecINtB2o_3VecBH_E14extend_trustedB3_E0EBL_, symObjAddr: 0x1C00, symBinAddr: 0x667C0, symSize: 0x34 }
  - { offset: 0xE546B, size: 0x8, addend: 0x0, symName: __RNvYINtNtCsliVzVx4luf9_4core6option8IntoIterRNtNtCsaxBLFzn74Hr_3syn4data7VariantENtNtNtNtB7_4iter6traits10exact_size17ExactSizeIterator3lenCsehVGFPP7CiK_11clap_derive, symObjAddr: 0x3768, symBinAddr: 0x68328, symSize: 0xE4 }
  - { offset: 0xE5571, size: 0x8, addend: 0x0, symName: __RNvYINtNtCsliVzVx4luf9_4core6option8IntoIterRNtNtCsaxBLFzn74Hr_3syn4path15GenericArgumentENtNtNtNtB7_4iter6traits10exact_size17ExactSizeIterator3lenCsehVGFPP7CiK_11clap_derive, symObjAddr: 0x384C, symBinAddr: 0x6840C, symSize: 0xE4 }
  - { offset: 0xE5689, size: 0x8, addend: 0x0, symName: __RNvXs_NtNtNtCsliVzVx4luf9_4core4iter8adapters9enumerateINtB4_9EnumerateINtNtNtBa_5slice4iter4IterNtNtCsaxBLFzn74Hr_3syn4expr4ExprEENtNtNtB8_6traits8iterator8Iterator4nextCsehVGFPP7CiK_11clap_derive, symObjAddr: 0x3174, symBinAddr: 0x67D34, symSize: 0xE0 }
  - { offset: 0xE5766, size: 0x8, addend: 0x0, symName: __RNvXs_NtNtNtCsliVzVx4luf9_4core4iter8adapters9enumerateINtB4_9EnumerateINtNtNtBa_5slice4iter4IterNtNtCsehVGFPP7CiK_11clap_derive4item11DeprecationEENtNtNtB8_6traits8iterator8Iterator4nextB1B_, symObjAddr: 0x3254, symBinAddr: 0x67E14, symSize: 0xE0 }
  - { offset: 0xE5843, size: 0x8, addend: 0x0, symName: __RNvXs_NtNtNtCsliVzVx4luf9_4core4iter8adapters9enumerateINtB4_9EnumerateINtNtNtBa_5slice4iter4IterNtNtCsehVGFPP7CiK_11clap_derive4item6MethodEENtNtNtB8_6traits8iterator8Iterator4nextB1B_, symObjAddr: 0x3334, symBinAddr: 0x67EF4, symSize: 0xE0 }
  - { offset: 0xE59EC, size: 0x8, addend: 0x0, symName: __RNvNvMNtNtCsliVzVx4luf9_4core5alloc6layoutNtB4_6Layout5array5innerCsehVGFPP7CiK_11clap_derive, symObjAddr: 0x27B4, symBinAddr: 0x67374, symSize: 0xF4 }
  - { offset: 0xE5D79, size: 0x8, addend: 0x0, symName: __RINvCsaxBLFzn74Hr_3syn5parseNtNtB2_6derive11DeriveInputECsehVGFPP7CiK_11clap_derive, symObjAddr: 0x0, symBinAddr: 0x64BC0, symSize: 0x30 }
  - { offset: 0xEC224, size: 0x8, addend: 0x0, symName: __RINvMNtCsliVzVx4luf9_4core6optionINtB3_6OptionINtNtCs69QEzRJvHMp_5alloc5boxed3BoxNtNtCsaxBLFzn74Hr_3syn4expr4ExprEE3mapB1h_NCNvXs4_NtB1l_10punctuatedINtB25_10PunctuatedB1h_NtNtB1l_5token5CommaENtNtNtNtB5_4iter6traits7collect12IntoIterator9into_iters_0ECsehVGFPP7CiK_11clap_derive, symObjAddr: 0x30, symBinAddr: 0x64BF0, symSize: 0x70 }
  - { offset: 0xEC2A9, size: 0x8, addend: 0x0, symName: __RINvMNtCsliVzVx4luf9_4core6optionINtB3_6OptionINtNtCs69QEzRJvHMp_5alloc5boxed3BoxNtNtCsehVGFPP7CiK_11clap_derive4attr8ClapAttrEE3mapB1h_NCNvXs4_NtCsaxBLFzn74Hr_3syn10punctuatedINtB2i_10PunctuatedB1h_NtNtB2k_5token5CommaENtNtNtNtB5_4iter6traits7collect12IntoIterator9into_iters_0EB1l_, symObjAddr: 0xA0, symBinAddr: 0x64C60, symSize: 0x78 }
  - { offset: 0xEC34C, size: 0x8, addend: 0x0, symName: __RINvMNtCsliVzVx4luf9_4core6optionINtB3_6OptionINtNtNtCsehVGFPP7CiK_11clap_derive5utils7spanned2SpNtNtBN_2ty2TyEE14unwrap_or_elseNCNvMNtBP_4itemNtB27_4Item10infer_kind0EBP_, symObjAddr: 0x118, symBinAddr: 0x64CD8, symSize: 0x74 }
  - { offset: 0xEC3AD, size: 0x8, addend: 0x0, symName: __RINvMNtCsliVzVx4luf9_4core6optionINtB3_6OptionINtNtNtCsehVGFPP7CiK_11clap_derive5utils7spanned2SpNtNtBN_2ty2TyEE14unwrap_or_elseNCNvMNtBP_4itemNtB27_4Item10infer_kinds0_0EBP_, symObjAddr: 0x18C, symBinAddr: 0x64D4C, symSize: 0x74 }
  - { offset: 0xEC40E, size: 0x8, addend: 0x0, symName: __RINvMNtCsliVzVx4luf9_4core6optionINtB3_6OptionINtNtNtCsehVGFPP7CiK_11clap_derive5utils7spanned2SpNtNtBN_2ty2TyEE14unwrap_or_elseNCNvMNtBP_4itemNtB27_4Item10infer_kinds_0EBP_, symObjAddr: 0x200, symBinAddr: 0x64DC0, symSize: 0x74 }
  - { offset: 0xEC46F, size: 0x8, addend: 0x0, symName: __RINvMNtCsliVzVx4luf9_4core6optionINtB3_6OptionNtCs3vPhoADqSdK_11proc_macro211TokenStreamE14unwrap_or_elseNCNCNvCsehVGFPP7CiK_11clap_derive6parser0s_0EB1L_, symObjAddr: 0x274, symBinAddr: 0x64E34, symSize: 0x70 }
  - { offset: 0xEC4D2, size: 0x8, addend: 0x0, symName: __RINvMNtCsliVzVx4luf9_4core6optionINtB3_6OptionNtCs3vPhoADqSdK_11proc_macro211TokenStreamE14unwrap_or_elseNCNvMNtCsehVGFPP7CiK_11clap_derive4itemNtB1K_4Item16push_doc_comments1_0EB1M_, symObjAddr: 0x2E4, symBinAddr: 0x64EA4, symSize: 0x70 }
  - { offset: 0xEC535, size: 0x8, addend: 0x0, symName: __RINvMNtCsliVzVx4luf9_4core6optionINtB3_6OptionNtCs3vPhoADqSdK_11proc_macro211TokenStreamE14unwrap_or_elseNCNvMNtCsehVGFPP7CiK_11clap_derive4itemNtB1K_4Item16push_doc_comments_0EB1M_, symObjAddr: 0x354, symBinAddr: 0x64F14, symSize: 0x70 }
  - { offset: 0xEC5A5, size: 0x8, addend: 0x0, symName: __RINvMNtCsliVzVx4luf9_4core6optionINtB3_6OptionNtCs3vPhoADqSdK_11proc_macro211TokenStreamE3mapBI_NCNCNvCsehVGFPP7CiK_11clap_derive6parser00EB1C_, symObjAddr: 0x3C4, symBinAddr: 0x64F84, symSize: 0x9C }
  - { offset: 0xEC638, size: 0x8, addend: 0x0, symName: __RINvMNtCsliVzVx4luf9_4core6optionINtB3_6OptionNtCs3vPhoADqSdK_11proc_macro24SpanE14unwrap_or_elseNCNCNvMNtCsehVGFPP7CiK_11clap_derive4itemNtB1E_4Item12value_parsers_0s_0EB1G_, symObjAddr: 0x460, symBinAddr: 0x65020, symSize: 0x58 }
  - { offset: 0xEC699, size: 0x8, addend: 0x0, symName: __RINvMNtCsliVzVx4luf9_4core6optionINtB3_6OptionNtCs3vPhoADqSdK_11proc_macro24SpanE14unwrap_or_elseNCNCNvMNtCsehVGFPP7CiK_11clap_derive4itemNtB1E_4Item6actions_0s_0EB1G_, symObjAddr: 0x4B8, symBinAddr: 0x65078, symSize: 0x58 }
  - { offset: 0xEC6FA, size: 0x8, addend: 0x0, symName: __RINvMNtCsliVzVx4luf9_4core6optionINtB3_6OptionNtNtCs69QEzRJvHMp_5alloc6string6StringE3mapNtCs3vPhoADqSdK_11proc_macro211TokenStreamNCNvMNtCsehVGFPP7CiK_11clap_derive4itemNtB2a_4Item16push_doc_comment0EB2c_, symObjAddr: 0x510, symBinAddr: 0x650D0, symSize: 0x90 }
  - { offset: 0xEC766, size: 0x8, addend: 0x0, symName: __RINvMNtCsliVzVx4luf9_4core6optionINtB3_6OptionNtNtCs69QEzRJvHMp_5alloc6string6StringE3mapNtCs3vPhoADqSdK_11proc_macro211TokenStreamNCNvMNtCsehVGFPP7CiK_11clap_derive4itemNtB2a_4Item16push_doc_comments0_0EB2c_, symObjAddr: 0x5A0, symBinAddr: 0x65160, symSize: 0x90 }
  - { offset: 0xEC7DF, size: 0x8, addend: 0x0, symName: __RINvMNtCsliVzVx4luf9_4core6optionINtB3_6OptionNtNtCsehVGFPP7CiK_11clap_derive4item11ValueParserE3mapNtBK_6MethodNCNvMBK_NtBK_4Item12value_parser0EBM_, symObjAddr: 0x630, symBinAddr: 0x651F0, symSize: 0xB4 }
  - { offset: 0xEC84C, size: 0x8, addend: 0x0, symName: __RINvMNtCsliVzVx4luf9_4core6optionINtB3_6OptionNtNtCsehVGFPP7CiK_11clap_derive4item6ActionE3mapNtBK_6MethodNCNvMBK_NtBK_4Item6action0EBM_, symObjAddr: 0x6E4, symBinAddr: 0x652A4, symSize: 0xB4 }
  - { offset: 0xEC8B9, size: 0x8, addend: 0x0, symName: __RINvMNtCsliVzVx4luf9_4core6optionINtB3_6OptionNtNtCsehVGFPP7CiK_11clap_derive4item6MethodE14unwrap_or_elseNCNvMBK_NtBK_4Item12value_parsers_0EBM_, symObjAddr: 0x798, symBinAddr: 0x65358, symSize: 0x8C }
  - { offset: 0xEC91C, size: 0x8, addend: 0x0, symName: __RINvMNtCsliVzVx4luf9_4core6optionINtB3_6OptionNtNtCsehVGFPP7CiK_11clap_derive4item6MethodE14unwrap_or_elseNCNvMBK_NtBK_4Item6actions_0EBM_, symObjAddr: 0x824, symBinAddr: 0x653E4, symSize: 0x8C }
  - { offset: 0xEC9CF, size: 0x8, addend: 0x0, symName: __RINvMNtCsliVzVx4luf9_4core6optionINtB3_6OptionRINtNtNtCs69QEzRJvHMp_5alloc3vec9into_iter8IntoIterNtNtBQ_6string6StringEE6map_orTjIBw_jEENvYBJ_NtNtNtNtB5_4iter6traits8iterator8Iterator9size_hintECsehVGFPP7CiK_11clap_derive, symObjAddr: 0x8B0, symBinAddr: 0x65470, symSize: 0xAC }
  - { offset: 0xECA57, size: 0x8, addend: 0x0, symName: __RINvMNtCsliVzVx4luf9_4core6optionINtB3_6OptionRNtNtCs69QEzRJvHMp_5alloc6string6StringE3mapbNCNvNtNtCsehVGFPP7CiK_11clap_derive5utils12doc_comments19extract_doc_comments2_0EB1z_, symObjAddr: 0x95C, symBinAddr: 0x6551C, symSize: 0x54 }
  - { offset: 0xECAE7, size: 0x8, addend: 0x0, symName: __RINvNtCs6P7HZtpS3La_3std3env3varReECsehVGFPP7CiK_11clap_derive, symObjAddr: 0x18DC, symBinAddr: 0x6649C, symSize: 0x68 }
  - { offset: 0xECBC8, size: 0x8, addend: 0x0, symName: __RINvMNtCsliVzVx4luf9_4core6optionINtB3_6OptionRNtNtCsaxBLFzn74Hr_3syn2ty4TypeE10ok_or_elseNtNtBN_5error5ErrorNCNvNtNtCsehVGFPP7CiK_11clap_derive7derives10subcommand11gen_augment0EB1R_, symObjAddr: 0x9B0, symBinAddr: 0x65570, symSize: 0x7C }
  - { offset: 0xECC4B, size: 0x8, addend: 0x0, symName: __RINvMNtCsliVzVx4luf9_4core6optionINtB3_6OptionRNtNtCsaxBLFzn74Hr_3syn2ty4TypeE8and_thenBI_NvNtNtCsehVGFPP7CiK_11clap_derive5utils2ty8sub_typeEB1w_, symObjAddr: 0xA2C, symBinAddr: 0x655EC, symSize: 0x50 }
  - { offset: 0xECCD0, size: 0x8, addend: 0x0, symName: __RINvMNtCsliVzVx4luf9_4core6optionINtB3_6OptionRNtNtCsaxBLFzn74Hr_3syn4data7VariantE7or_elseNCNvXss_NtBN_10punctuatedINtB1z_11PrivateIterBJ_NtNtBN_5token5CommaENtNtNtNtB5_4iter6traits8iterator8Iterator4nexts_0ECsehVGFPP7CiK_11clap_derive, symObjAddr: 0xA7C, symBinAddr: 0x6563C, symSize: 0xA8 }
  - { offset: 0xECD4C, size: 0x8, addend: 0x0, symName: __RINvMNtCsliVzVx4luf9_4core6optionINtB3_6OptionRNtNtCsaxBLFzn74Hr_3syn4data7VariantE7or_elseNCNvXst_NtBN_10punctuatedINtB1z_11PrivateIterBJ_NtNtBN_5token5CommaENtNtNtNtB5_4iter6traits12double_ended19DoubleEndedIterator9next_back0ECsehVGFPP7CiK_11clap_derive, symObjAddr: 0xB24, symBinAddr: 0x656E4, symSize: 0xA8 }
  - { offset: 0xECDC8, size: 0x8, addend: 0x0, symName: __RINvMNtCsliVzVx4luf9_4core6optionINtB3_6OptionRNtNtCsaxBLFzn74Hr_3syn4path11PathSegmentE3mapbNCNvNtNtCsehVGFPP7CiK_11clap_derive5utils2ty12is_simple_ty0EB1B_, symObjAddr: 0xBCC, symBinAddr: 0x6578C, symSize: 0x60 }
  - { offset: 0xECE88, size: 0x8, addend: 0x0, symName: __RINvMNtCsliVzVx4luf9_4core6optionINtB3_6OptionRNtNtCsaxBLFzn74Hr_3syn4path11PathSegmentE6filterNCINvNtNtCsehVGFPP7CiK_11clap_derive5utils2ty8only_oneINtNtBN_10punctuated4IterBJ_EBI_E0EB1E_, symObjAddr: 0xC2C, symBinAddr: 0x657EC, symSize: 0x104 }
  - { offset: 0xECEE2, size: 0x8, addend: 0x0, symName: __RINvMNtCsliVzVx4luf9_4core6optionINtB3_6OptionRNtNtCsaxBLFzn74Hr_3syn4path11PathSegmentE6filterNCINvNtNtCsehVGFPP7CiK_11clap_derive5utils2ty8subty_ifNCNvB1A_13subty_if_name0E0EB1E_, symObjAddr: 0xD30, symBinAddr: 0x658F0, symSize: 0x104 }
  - { offset: 0xECF3C, size: 0x8, addend: 0x0, symName: __RINvMNtCsliVzVx4luf9_4core6optionINtB3_6OptionRNtNtCsaxBLFzn74Hr_3syn4path11PathSegmentE6filterNCINvNtNtCsehVGFPP7CiK_11clap_derive5utils2ty8subty_ifNCNvB1A_8sub_type0E0EB1E_, symObjAddr: 0xE34, symBinAddr: 0x659F4, symSize: 0xF8 }
  - { offset: 0xECF96, size: 0x8, addend: 0x0, symName: __RINvMNtCsliVzVx4luf9_4core6optionINtB3_6OptionRNtNtCsaxBLFzn74Hr_3syn4path11PathSegmentE8and_thenRNtNtBN_2ty4TypeNCINvNtNtCsehVGFPP7CiK_11clap_derive5utils2ty8subty_ifNCNvB1S_13subty_if_name0Es_0EB1W_, symObjAddr: 0xF2C, symBinAddr: 0x65AEC, symSize: 0x50 }
  - { offset: 0xED001, size: 0x8, addend: 0x0, symName: __RINvMNtCsliVzVx4luf9_4core6optionINtB3_6OptionRNtNtCsaxBLFzn74Hr_3syn4path11PathSegmentE8and_thenRNtNtBN_2ty4TypeNCINvNtNtCsehVGFPP7CiK_11clap_derive5utils2ty8subty_ifNCNvB1S_8sub_type0Es_0EB1W_, symObjAddr: 0xF7C, symBinAddr: 0x65B3C, symSize: 0x50 }
  - { offset: 0xED0B4, size: 0x8, addend: 0x0, symName: __RINvMNtCsliVzVx4luf9_4core6optionINtB3_6OptionRNtNtCsaxBLFzn74Hr_3syn4path15GenericArgumentE6filterNCINvNtNtCsehVGFPP7CiK_11clap_derive5utils2ty8only_oneINtNtBN_10punctuated4IterBJ_EBI_E0EB1I_, symObjAddr: 0xFCC, symBinAddr: 0x65B8C, symSize: 0x104 }
  - { offset: 0xED11B, size: 0x8, addend: 0x0, symName: __RINvMNtCsliVzVx4luf9_4core6optionINtB3_6OptionRNtNtCsaxBLFzn74Hr_3syn4path15GenericArgumentE7or_elseNCNvXss_NtBN_10punctuatedINtB1I_11PrivateIterBJ_NtNtBN_5token5CommaENtNtNtNtB5_4iter6traits8iterator8Iterator4nexts_0ECsehVGFPP7CiK_11clap_derive, symObjAddr: 0x10D0, symBinAddr: 0x65C90, symSize: 0xA8 }
  - { offset: 0xED197, size: 0x8, addend: 0x0, symName: __RINvMNtCsliVzVx4luf9_4core6optionINtB3_6OptionRNtNtCsaxBLFzn74Hr_3syn4path15GenericArgumentE7or_elseNCNvXst_NtBN_10punctuatedINtB1I_11PrivateIterBJ_NtNtBN_5token5CommaENtNtNtNtB5_4iter6traits12double_ended19DoubleEndedIterator9next_back0ECsehVGFPP7CiK_11clap_derive, symObjAddr: 0x1178, symBinAddr: 0x65D38, symSize: 0xA8 }
  - { offset: 0xED1F9, size: 0x8, addend: 0x0, symName: __RINvMNtCsliVzVx4luf9_4core6optionINtB3_6OptionRNtNtCsaxBLFzn74Hr_3syn4path15GenericArgumentE8and_thenRNtNtBN_2ty4TypeNCNCINvNtNtCsehVGFPP7CiK_11clap_derive5utils2ty8subty_ifNCNvB1Y_13subty_if_name0Es_00EB22_, symObjAddr: 0x1220, symBinAddr: 0x65DE0, symSize: 0x50 }
  - { offset: 0xED264, size: 0x8, addend: 0x0, symName: __RINvMNtCsliVzVx4luf9_4core6optionINtB3_6OptionRNtNtCsaxBLFzn74Hr_3syn4path15GenericArgumentE8and_thenRNtNtBN_2ty4TypeNCNCINvNtNtCsehVGFPP7CiK_11clap_derive5utils2ty8subty_ifNCNvB1Y_8sub_type0Es_00EB22_, symObjAddr: 0x1270, symBinAddr: 0x65E30, symSize: 0x50 }
  - { offset: 0xED2E9, size: 0x8, addend: 0x0, symName: __RINvMNtCsliVzVx4luf9_4core6optionINtB3_6OptionRNtNtCsehVGFPP7CiK_11clap_derive4attr9AttrValueE10ok_or_elseNtNtCsaxBLFzn74Hr_3syn5error5ErrorNCNvMBL_NtBL_8ClapAttr14value_or_abort0EBN_, symObjAddr: 0x12C0, symBinAddr: 0x65E80, symSize: 0x7C }
  - { offset: 0xED361, size: 0x8, addend: 0x0, symName: __RINvMNtCsliVzVx4luf9_4core6optionINtB3_6OptionRNtNtCsehVGFPP7CiK_11clap_derive4item11ValueParserE3mapNtCs3vPhoADqSdK_11proc_macro24SpanNCNCNvMBL_NtBL_4Item6actions_00EBN_, symObjAddr: 0x133C, symBinAddr: 0x65EFC, symSize: 0x5C }
  - { offset: 0xED3D9, size: 0x8, addend: 0x0, symName: __RINvMNtCsliVzVx4luf9_4core6optionINtB3_6OptionRNtNtCsehVGFPP7CiK_11clap_derive4item6ActionE3mapNtCs3vPhoADqSdK_11proc_macro24SpanNCNCNvMBL_NtBL_4Item12value_parsers_00EBN_, symObjAddr: 0x1398, symBinAddr: 0x65F58, symSize: 0x5C }
  - { offset: 0xED444, size: 0x8, addend: 0x0, symName: __RINvMNtCsliVzVx4luf9_4core6optionINtB3_6OptionRTNtNtCsaxBLFzn74Hr_3syn4data7VariantNtNtBO_5token5CommaEE3mapRBK_NCNCNvXst_NtBO_10punctuatedINtB1W_11PrivateIterBK_B1j_ENtNtNtNtB5_4iter6traits12double_ended19DoubleEndedIterator9next_back00ECsehVGFPP7CiK_11clap_derive, symObjAddr: 0x13F4, symBinAddr: 0x65FB4, symSize: 0x50 }
  - { offset: 0xED4AF, size: 0x8, addend: 0x0, symName: __RINvMNtCsliVzVx4luf9_4core6optionINtB3_6OptionRTNtNtCsaxBLFzn74Hr_3syn4data7VariantNtNtBO_5token5CommaEE3mapRBK_NCNvXss_NtBO_10punctuatedINtB1U_11PrivateIterBK_B1j_ENtNtNtNtB5_4iter6traits8iterator8Iterator4next0ECsehVGFPP7CiK_11clap_derive, symObjAddr: 0x1444, symBinAddr: 0x66004, symSize: 0x50 }
  - { offset: 0xED51A, size: 0x8, addend: 0x0, symName: __RINvMNtCsliVzVx4luf9_4core6optionINtB3_6OptionRTNtNtCsaxBLFzn74Hr_3syn4path15GenericArgumentNtNtBO_5token5CommaEE3mapRBK_NCNCNvXst_NtBO_10punctuatedINtB25_11PrivateIterBK_B1s_ENtNtNtNtB5_4iter6traits12double_ended19DoubleEndedIterator9next_back00ECsehVGFPP7CiK_11clap_derive, symObjAddr: 0x1494, symBinAddr: 0x66054, symSize: 0x50 }
  - { offset: 0xED585, size: 0x8, addend: 0x0, symName: __RINvMNtCsliVzVx4luf9_4core6optionINtB3_6OptionRTNtNtCsaxBLFzn74Hr_3syn4path15GenericArgumentNtNtBO_5token5CommaEE3mapRBK_NCNvXss_NtBO_10punctuatedINtB23_11PrivateIterBK_B1s_ENtNtNtNtB5_4iter6traits8iterator8Iterator4next0ECsehVGFPP7CiK_11clap_derive, symObjAddr: 0x14E4, symBinAddr: 0x660A4, symSize: 0x50 }
  - { offset: 0xED7BD, size: 0x8, addend: 0x0, symName: __RINvMs3_NtNtCs39eHfitSTy1_10proc_macro6bridge6bufferNtB6_6Buffer17extend_from_arrayKj4_ECsehVGFPP7CiK_11clap_derive, symObjAddr: 0x1534, symBinAddr: 0x660F4, symSize: 0x1D4 }
  - { offset: 0xEDCB6, size: 0x8, addend: 0x0, symName: __RINvMs3_NtNtCs39eHfitSTy1_10proc_macro6bridge6bufferNtB6_6Buffer17extend_from_arrayKj8_ECsehVGFPP7CiK_11clap_derive, symObjAddr: 0x1708, symBinAddr: 0x662C8, symSize: 0x1D4 }
  - { offset: 0xEE0A6, size: 0x8, addend: 0x0, symName: __RNvMNtCsliVzVx4luf9_4core6optionINtB2_6OptionINtNtCs69QEzRJvHMp_5alloc5boxed3BoxNtNtCsehVGFPP7CiK_11clap_derive4attr8ClapAttrEE4takeB1k_, symObjAddr: 0x1C5C, symBinAddr: 0x6681C, symSize: 0x2C }
  - { offset: 0xEE1A7, size: 0x8, addend: 0x0, symName: __RNvMNtCsliVzVx4luf9_4core6optionINtB2_6OptionINtNtCs69QEzRJvHMp_5alloc5boxed3BoxNtNtCsehVGFPP7CiK_11clap_derive4attr8ClapAttrEE7is_noneB1k_, symObjAddr: 0x1C88, symBinAddr: 0x66848, symSize: 0x4C }
  - { offset: 0xEE1FF, size: 0x8, addend: 0x0, symName: __RNvMNtCsliVzVx4luf9_4core6optionINtB2_6OptionINtNtCs69QEzRJvHMp_5alloc5boxed3BoxNtNtCsehVGFPP7CiK_11clap_derive4attr8ClapAttrEE7is_someB1k_, symObjAddr: 0x1CD4, symBinAddr: 0x66894, symSize: 0x48 }
  - { offset: 0xEE238, size: 0x8, addend: 0x0, symName: __RNvMNtCsliVzVx4luf9_4core6optionINtB2_6OptionNtCs3vPhoADqSdK_11proc_macro25IdentE6as_refCsehVGFPP7CiK_11clap_derive, symObjAddr: 0x1D1C, symBinAddr: 0x668DC, symSize: 0x4C }
  - { offset: 0xEE282, size: 0x8, addend: 0x0, symName: __RNvMNtCsliVzVx4luf9_4core6optionINtB2_6OptionNtNtCs69QEzRJvHMp_5alloc6string6StringE17unwrap_or_defaultCsehVGFPP7CiK_11clap_derive, symObjAddr: 0x1D68, symBinAddr: 0x66928, symSize: 0x70 }
  - { offset: 0xEE2DA, size: 0x8, addend: 0x0, symName: __RNvMNtCsliVzVx4luf9_4core6optionINtB2_6OptionNtNtCsaxBLFzn74Hr_3syn2ty4TypeE6as_refCsehVGFPP7CiK_11clap_derive, symObjAddr: 0x1DD8, symBinAddr: 0x66998, symSize: 0x4C }
  - { offset: 0xEE331, size: 0x8, addend: 0x0, symName: __RNvMNtCsliVzVx4luf9_4core6optionINtB2_6OptionNtNtCsehVGFPP7CiK_11clap_derive4attr9AttrValueE6as_refBL_, symObjAddr: 0x1E24, symBinAddr: 0x669E4, symSize: 0x4C }
  - { offset: 0xEE399, size: 0x8, addend: 0x0, symName: __RNvMNtCsliVzVx4luf9_4core6optionINtB2_6OptionNtNtCsehVGFPP7CiK_11clap_derive4attr9AttrValueE7is_noneBL_, symObjAddr: 0x1E70, symBinAddr: 0x66A30, symSize: 0x4C }
  - { offset: 0xEE3F1, size: 0x8, addend: 0x0, symName: __RNvMNtCsliVzVx4luf9_4core6optionINtB2_6OptionNtNtCsehVGFPP7CiK_11clap_derive4attr9AttrValueE7is_someBL_, symObjAddr: 0x1EBC, symBinAddr: 0x66A7C, symSize: 0x48 }
  - { offset: 0xEE42A, size: 0x8, addend: 0x0, symName: __RNvMNtCsliVzVx4luf9_4core6optionINtB2_6OptionNtNtCsehVGFPP7CiK_11clap_derive4item11ValueParserE6as_refBL_, symObjAddr: 0x1F04, symBinAddr: 0x66AC4, symSize: 0x54 }
  - { offset: 0xEE481, size: 0x8, addend: 0x0, symName: __RNvMNtCsliVzVx4luf9_4core6optionINtB2_6OptionNtNtCsehVGFPP7CiK_11clap_derive4item6ActionE6as_refBL_, symObjAddr: 0x1F58, symBinAddr: 0x66B18, symSize: 0x54 }
  - { offset: 0xEE4E5, size: 0x8, addend: 0x0, symName: __RNvMNtCsliVzVx4luf9_4core6optionINtB2_6OptionNtNtCsehVGFPP7CiK_11clap_derive4item6MethodE6as_refBL_, symObjAddr: 0x1FAC, symBinAddr: 0x66B6C, symSize: 0x50 }
  - { offset: 0xEE53C, size: 0x8, addend: 0x0, symName: __RNvMNtCsliVzVx4luf9_4core6optionINtB2_6OptionRNtNtCsaxBLFzn74Hr_3syn2ty4TypeE7is_someCsehVGFPP7CiK_11clap_derive, symObjAddr: 0x1FFC, symBinAddr: 0x66BBC, symSize: 0x48 }
  - { offset: 0xEE568, size: 0x8, addend: 0x0, symName: __RNvMNtCsliVzVx4luf9_4core6optionINtB2_6OptionRNtNtCsaxBLFzn74Hr_3syn2ty4TypeE9unwrap_orCsehVGFPP7CiK_11clap_derive, symObjAddr: 0x2044, symBinAddr: 0x66C04, symSize: 0x4C }
  - { offset: 0xEE5EC, size: 0x8, addend: 0x0, symName: __RNvMNtCsliVzVx4luf9_4core6optionINtB2_6OptionRNtNtCsaxBLFzn74Hr_3syn4path11PathSegmentE7is_noneCsehVGFPP7CiK_11clap_derive, symObjAddr: 0x2090, symBinAddr: 0x66C50, symSize: 0x4C }
  - { offset: 0xEE66F, size: 0x8, addend: 0x0, symName: __RNvMNtCsliVzVx4luf9_4core6optionINtB2_6OptionRNtNtCsaxBLFzn74Hr_3syn4path15GenericArgumentE7is_noneCsehVGFPP7CiK_11clap_derive, symObjAddr: 0x20DC, symBinAddr: 0x66C9C, symSize: 0x4C }
  - { offset: 0xEE6F2, size: 0x8, addend: 0x0, symName: __RNvMNtCsliVzVx4luf9_4core6optionINtB2_6OptionRNtNtCsehVGFPP7CiK_11clap_derive4item6MethodE7is_noneBM_, symObjAddr: 0x2128, symBinAddr: 0x66CE8, symSize: 0x4C }
  - { offset: 0xEE74A, size: 0x8, addend: 0x0, symName: __RNvMNtCsliVzVx4luf9_4core6optionINtB2_6OptionReE9unwrap_orCsehVGFPP7CiK_11clap_derive, symObjAddr: 0x2174, symBinAddr: 0x66D34, symSize: 0x70 }
  - { offset: 0xEE7DA, size: 0x8, addend: 0x0, symName: __RNvMNtCsliVzVx4luf9_4core6optionINtB2_6OptionTNtCs3vPhoADqSdK_11proc_macro24SpanRNtBK_5IdentNtBK_11TokenStreamEE7is_someCsehVGFPP7CiK_11clap_derive, symObjAddr: 0x21E4, symBinAddr: 0x66DA4, symSize: 0x4C }
  - { offset: 0xEE806, size: 0x8, addend: 0x0, symName: __RNvMNtCsliVzVx4luf9_4core6optionINtB2_6OptionbE9unwrap_orCsehVGFPP7CiK_11clap_derive, symObjAddr: 0x2230, symBinAddr: 0x66DF0, symSize: 0x5C }
  - { offset: 0xEE85E, size: 0x8, addend: 0x0, symName: __RNvMNtCsliVzVx4luf9_4core6optionINtB2_6OptionjE9unwrap_orCsehVGFPP7CiK_11clap_derive, symObjAddr: 0x228C, symBinAddr: 0x66E4C, symSize: 0x48 }
  - { offset: 0xEE8C4, size: 0x8, addend: 0x0, symName: __RNvMs0_NtCsliVzVx4luf9_4core6optionINtB5_6OptionRINtNtNtCsehVGFPP7CiK_11clap_derive5utils7spanned2SpNtNtBQ_2ty2TyEE6clonedBS_, symObjAddr: 0x22D4, symBinAddr: 0x66E94, symSize: 0x5C }
  - { offset: 0xEEA31, size: 0x8, addend: 0x0, symName: __RNvMs3_NtNtCs39eHfitSTy1_10proc_macro6bridge6bufferNtB5_6Buffer17extend_from_sliceCsehVGFPP7CiK_11clap_derive, symObjAddr: 0x2330, symBinAddr: 0x66EF0, symSize: 0x1CC }
  - { offset: 0xEEF30, size: 0x8, addend: 0x0, symName: __RNvMs3_NtNtCs39eHfitSTy1_10proc_macro6bridge6bufferNtB5_6Buffer4pushCsehVGFPP7CiK_11clap_derive, symObjAddr: 0x24FC, symBinAddr: 0x670BC, symSize: 0x1A4 }
  - { offset: 0xEF278, size: 0x8, addend: 0x0, symName: __RNvXNtCs5Bhy1SxosHa_5quote9to_tokensRINtNtCsliVzVx4luf9_4core6option6OptionNtCs3vPhoADqSdK_11proc_macro211TokenStreamENtB2_8ToTokens9to_tokensCsehVGFPP7CiK_11clap_derive, symObjAddr: 0x28A8, symBinAddr: 0x67468, symSize: 0x40 }
  - { offset: 0xEF2BD, size: 0x8, addend: 0x0, symName: __RNvXs3_NtCs5Bhy1SxosHa_5quote9to_tokensINtNtCsliVzVx4luf9_4core6option6OptionNtCs3vPhoADqSdK_11proc_macro211TokenStreamENtB5_8ToTokens9to_tokensCsehVGFPP7CiK_11clap_derive, symObjAddr: 0x28E8, symBinAddr: 0x674A8, symSize: 0x88 }
  - { offset: 0xEF319, size: 0x8, addend: 0x0, symName: __RNvXs3_NtCs5Bhy1SxosHa_5quote9to_tokensINtNtCsliVzVx4luf9_4core6option6OptionRNtNtCsaxBLFzn74Hr_3syn8generics11WhereClauseENtB5_8ToTokens9to_tokensCsehVGFPP7CiK_11clap_derive, symObjAddr: 0x2970, symBinAddr: 0x67530, symSize: 0x84 }
  - { offset: 0xEF386, size: 0x8, addend: 0x0, symName: __RNvYINtNtCsliVzVx4luf9_4core6option8IntoIterRNtNtCsehVGFPP7CiK_11clap_derive4item6MethodENtNtNtCs5Bhy1SxosHa_5quote9___private3ext14RepIteratorExt15quote_into_iterBL_, symObjAddr: 0x3930, symBinAddr: 0x684F0, symSize: 0x24 }
  - { offset: 0xEF7EF, size: 0x8, addend: 0x0, symName: __RINvMNtCsliVzVx4luf9_4core6resultINtB3_6ResultNtCs3vPhoADqSdK_11proc_macro211TokenStreamNtNtCsaxBLFzn74Hr_3syn5error5ErrorE14unwrap_or_elseNCNvCsehVGFPP7CiK_11clap_derive10subcommand0EB2h_, symObjAddr: 0x0, symBinAddr: 0x68514, symSize: 0xA8 }
  - { offset: 0xEF8C4, size: 0x8, addend: 0x0, symName: __RNvXsS_NtNtCs6P7HZtpS3La_3std3ffi6os_streINtNtCsliVzVx4luf9_4core7convert5AsRefNtB5_5OsStrE6as_refCsehVGFPP7CiK_11clap_derive, symObjAddr: 0x2810, symBinAddr: 0x6AD24, symSize: 0x30 }
  - { offset: 0xEFD62, size: 0x8, addend: 0x0, symName: __RINvNvNtNtCs39eHfitSTy1_10proc_macro6bridge14selfless_reify31reify_to_extern_c_fn_hrt_bridge7wrapperNtNtB6_6buffer6BufferNCINvMs7_NtB6_6clientINtB24_6ClientNtB8_11TokenStreamB2u_E7expand1NvCsehVGFPP7CiK_11clap_derive10subcommandE0EB31_, symObjAddr: 0x3A0, symBinAddr: 0x688B4, symSize: 0x4C }
  - { offset: 0xEFDBD, size: 0x8, addend: 0x0, symName: __RINvNvNtNtCs39eHfitSTy1_10proc_macro6bridge14selfless_reify31reify_to_extern_c_fn_hrt_bridge7wrapperNtNtB6_6buffer6BufferNCINvMs7_NtB6_6clientINtB24_6ClientNtB8_11TokenStreamB2u_E7expand1NvCsehVGFPP7CiK_11clap_derive10value_enumE0EB31_, symObjAddr: 0x3EC, symBinAddr: 0x68900, symSize: 0x4C }
  - { offset: 0xEFE18, size: 0x8, addend: 0x0, symName: __RINvNvNtNtCs39eHfitSTy1_10proc_macro6bridge14selfless_reify31reify_to_extern_c_fn_hrt_bridge7wrapperNtNtB6_6buffer6BufferNCINvMs7_NtB6_6clientINtB24_6ClientNtB8_11TokenStreamB2u_E7expand1NvCsehVGFPP7CiK_11clap_derive4argsE0EB31_, symObjAddr: 0x438, symBinAddr: 0x6894C, symSize: 0x4C }
  - { offset: 0xEFE73, size: 0x8, addend: 0x0, symName: __RINvNvNtNtCs39eHfitSTy1_10proc_macro6bridge14selfless_reify31reify_to_extern_c_fn_hrt_bridge7wrapperNtNtB6_6buffer6BufferNCINvMs7_NtB6_6clientINtB24_6ClientNtB8_11TokenStreamB2u_E7expand1NvCsehVGFPP7CiK_11clap_derive6parserE0EB31_, symObjAddr: 0x484, symBinAddr: 0x68998, symSize: 0x4C }
  - { offset: 0xF0037, size: 0x8, addend: 0x0, symName: __RNvXsV_NtCs39eHfitSTy1_10proc_macro6bridgeINtNtCsliVzVx4luf9_4core6result6ResultINtNtBJ_6option6OptionNtNtB5_6client11TokenStreamEuEINtNtB5_3rpc6EncodeuE6encodeCsehVGFPP7CiK_11clap_derive, symObjAddr: 0x2840, symBinAddr: 0x6AD54, symSize: 0x108 }
  - { offset: 0xF0104, size: 0x8, addend: 0x0, symName: __RNvXsV_NtCs39eHfitSTy1_10proc_macro6bridgeINtNtCsliVzVx4luf9_4core6result6ResultuNtNtB5_3rpc12PanicMessageEINtB1j_6EncodeuE6encodeCsehVGFPP7CiK_11clap_derive, symObjAddr: 0x2948, symBinAddr: 0x6AE5C, symSize: 0x12C }
  - { offset: 0xF1EA6, size: 0x8, addend: 0x0, symName: __RINvXsn_NtCsliVzVx4luf9_4core6resultINtB6_6ResultINtNtCs69QEzRJvHMp_5alloc3vec3VecNtCs3vPhoADqSdK_11proc_macro211TokenStreamENtNtCsaxBLFzn74Hr_3syn5error5ErrorEINtNtNtNtB8_4iter6traits7collect12FromIteratorIBz_B1i_B1Z_EE9from_iterINtNtNtB2F_8adapters3map3MapINtNtNtB8_5slice4iter4IterTRNtNtB23_4data5FieldNtNtCsehVGFPP7CiK_11clap_derive4item4ItemEENCNvNtNtB4X_7derives4args15gen_constructor0EEB4X_, symObjAddr: 0xD40, symBinAddr: 0x69254, symSize: 0x38 }
  - { offset: 0xF1EF8, size: 0x8, addend: 0x0, symName: __RINvXsn_NtCsliVzVx4luf9_4core6resultINtB6_6ResultINtNtCs69QEzRJvHMp_5alloc3vec3VecNtCs3vPhoADqSdK_11proc_macro211TokenStreamENtNtCsaxBLFzn74Hr_3syn5error5ErrorEINtNtNtNtB8_4iter6traits7collect12FromIteratorIBz_B1i_B1Z_EE9from_iterINtNtNtB2F_8adapters3map3MapINtNtNtB8_5slice4iter4IterTRRNtNtB23_4data7VariantRNtNtCsehVGFPP7CiK_11clap_derive4item4ItemEENCNvNtNtB51_7derives10subcommand18gen_has_subcommands1_0EEB51_, symObjAddr: 0xD78, symBinAddr: 0x6928C, symSize: 0x38 }
  - { offset: 0xF1F4A, size: 0x8, addend: 0x0, symName: __RINvXsn_NtCsliVzVx4luf9_4core6resultINtB6_6ResultINtNtCs69QEzRJvHMp_5alloc3vec3VecNtCs3vPhoADqSdK_11proc_macro211TokenStreamENtNtCsaxBLFzn74Hr_3syn5error5ErrorEINtNtNtNtB8_4iter6traits7collect12FromIteratorIBz_B1i_B1Z_EE9from_iterINtNtNtB2F_8adapters3map3MapINtNtNtB8_5slice4iter4IterTRRNtNtB23_4data7VariantRNtNtCsehVGFPP7CiK_11clap_derive4item4ItemEENCNvNtNtB51_7derives10subcommand20gen_from_arg_matches0EEB51_, symObjAddr: 0xDB0, symBinAddr: 0x692C4, symSize: 0x34 }
  - { offset: 0xF1F9D, size: 0x8, addend: 0x0, symName: __RINvXsn_NtCsliVzVx4luf9_4core6resultINtB6_6ResultINtNtCs69QEzRJvHMp_5alloc3vec3VecNtCs3vPhoADqSdK_11proc_macro211TokenStreamENtNtCsaxBLFzn74Hr_3syn5error5ErrorEINtNtNtNtB8_4iter6traits7collect12FromIteratorIBz_B1i_B1Z_EE9from_iterINtNtNtB2F_8adapters3map3MapINtNtNtB8_5slice4iter4IterTRRNtNtB23_4data7VariantRNtNtCsehVGFPP7CiK_11clap_derive4item4ItemEENCNvNtNtB51_7derives10subcommand20gen_from_arg_matchess_0EEB51_, symObjAddr: 0xDE4, symBinAddr: 0x692F8, symSize: 0x38 }
  - { offset: 0xF1FEF, size: 0x8, addend: 0x0, symName: __RINvXsn_NtCsliVzVx4luf9_4core6resultINtB6_6ResultINtNtCs69QEzRJvHMp_5alloc3vec3VecNtCs3vPhoADqSdK_11proc_macro211TokenStreamENtNtCsaxBLFzn74Hr_3syn5error5ErrorEINtNtNtNtB8_4iter6traits7collect12FromIteratorIBz_B1i_B1Z_EE9from_iterINtNtNtB2F_8adapters3map3MapINtNtNtB8_5slice4iter4IterTRRNtNtB23_4data7VariantRNtNtCsehVGFPP7CiK_11clap_derive4item4ItemEENCNvNtNtB51_7derives10subcommand27gen_update_from_arg_matchess0_0EEB51_, symObjAddr: 0xE1C, symBinAddr: 0x69330, symSize: 0x38 }
  - { offset: 0xF2041, size: 0x8, addend: 0x0, symName: __RINvXsn_NtCsliVzVx4luf9_4core6resultINtB6_6ResultINtNtCs69QEzRJvHMp_5alloc3vec3VecNtCs3vPhoADqSdK_11proc_macro211TokenStreamENtNtCsaxBLFzn74Hr_3syn5error5ErrorEINtNtNtNtB8_4iter6traits7collect12FromIteratorIBz_B1i_B1Z_EE9from_iterINtNtNtB2F_8adapters3map3MapINtNtNtB8_5slice4iter4IterTRRNtNtB23_4data7VariantRNtNtCsehVGFPP7CiK_11clap_derive4item4ItemEENCNvNtNtB51_7derives10subcommand27gen_update_from_arg_matchess1_0EEB51_, symObjAddr: 0xE54, symBinAddr: 0x69368, symSize: 0x38 }
  - { offset: 0xF2093, size: 0x8, addend: 0x0, symName: __RINvXsn_NtCsliVzVx4luf9_4core6resultINtB6_6ResultINtNtCs69QEzRJvHMp_5alloc3vec3VecTRNtNtCsaxBLFzn74Hr_3syn4data5FieldNtNtCsehVGFPP7CiK_11clap_derive4item4ItemEENtNtB1o_5error5ErrorEINtNtNtNtB8_4iter6traits7collect12FromIteratorIBz_B1i_B2y_EE9from_iterINtNtNtB30_8adapters3map3MapINtNtB1o_10punctuated4IterB1k_ENCNvNtNtB1V_7derives4args11derive_args0EEB1V_, symObjAddr: 0xE8C, symBinAddr: 0x693A0, symSize: 0x34 }
  - { offset: 0xF20E6, size: 0x8, addend: 0x0, symName: __RINvXsn_NtCsliVzVx4luf9_4core6resultINtB6_6ResultINtNtCs69QEzRJvHMp_5alloc3vec3VecTRNtNtCsaxBLFzn74Hr_3syn4data5FieldNtNtCsehVGFPP7CiK_11clap_derive4item4ItemEENtNtB1o_5error5ErrorEINtNtNtNtB8_4iter6traits7collect12FromIteratorIBz_B1i_B2y_EE9from_iterINtNtNtB30_8adapters3map3MapINtNtB1o_10punctuated4IterB1k_ENCNvNtNtB1V_7derives4args19collect_args_fields0EEB1V_, symObjAddr: 0xEC0, symBinAddr: 0x693D4, symSize: 0x34 }
  - { offset: 0xF2139, size: 0x8, addend: 0x0, symName: __RINvXsn_NtCsliVzVx4luf9_4core6resultINtB6_6ResultINtNtCs69QEzRJvHMp_5alloc3vec3VecTRNtNtCsaxBLFzn74Hr_3syn4data5FieldNtNtCsehVGFPP7CiK_11clap_derive4item4ItemEENtNtB1o_5error5ErrorEINtNtNtNtB8_4iter6traits7collect12FromIteratorIBz_B1i_B2y_EE9from_iterINtNtNtB30_8adapters3map3MapINtNtB1o_10punctuated4IterB1k_ENCNvNtNtB1V_7derives6parser13derive_parser0EEB1V_, symObjAddr: 0xEF4, symBinAddr: 0x69408, symSize: 0x34 }
  - { offset: 0xF218C, size: 0x8, addend: 0x0, symName: __RINvXsn_NtCsliVzVx4luf9_4core6resultINtB6_6ResultINtNtCs69QEzRJvHMp_5alloc3vec3VecTRNtNtCsaxBLFzn74Hr_3syn4data7VariantNtNtCsehVGFPP7CiK_11clap_derive4item4ItemEENtNtB1o_5error5ErrorEINtNtNtNtB8_4iter6traits7collect12FromIteratorIBz_B1i_B2A_EE9from_iterINtNtNtB32_8adapters3map3MapINtNtB1o_10punctuated4IterB1k_ENCNvNtNtB1X_7derives10subcommand17derive_subcommand0EEB1X_, symObjAddr: 0xF28, symBinAddr: 0x6943C, symSize: 0x34 }
  - { offset: 0xF21DF, size: 0x8, addend: 0x0, symName: __RINvXsn_NtCsliVzVx4luf9_4core6resultINtB6_6ResultINtNtCs69QEzRJvHMp_5alloc3vec3VecTRNtNtCsaxBLFzn74Hr_3syn4data7VariantNtNtCsehVGFPP7CiK_11clap_derive4item4ItemEENtNtB1o_5error5ErrorEINtNtNtNtB8_4iter6traits7collect12FromIteratorIBz_B1i_B2A_EE9from_iterINtNtNtB32_8adapters3map3MapINtNtB1o_10punctuated4IterB1k_ENCNvNtNtB1X_7derives6parser13derive_parsers_0EEB1X_, symObjAddr: 0xF5C, symBinAddr: 0x69470, symSize: 0x34 }
  - { offset: 0xF2237, size: 0x8, addend: 0x0, symName: __RNCINvXsn_NtCsliVzVx4luf9_4core6resultINtB8_6ResultINtNtCs69QEzRJvHMp_5alloc3vec3VecNtCs3vPhoADqSdK_11proc_macro211TokenStreamENtNtCsaxBLFzn74Hr_3syn5error5ErrorEINtNtNtNtBa_4iter6traits7collect12FromIteratorIBB_B1k_B21_EE9from_iterINtNtNtB2H_8adapters3map3MapINtNtNtBa_5slice4iter4IterTRNtNtB25_4data5FieldNtNtCsehVGFPP7CiK_11clap_derive4item4ItemEENCNvNtNtB4Z_7derives4args15gen_constructor0EE0B4Z_, symObjAddr: 0x1EFC, symBinAddr: 0x6A410, symSize: 0x28 }
  - { offset: 0xF22C1, size: 0x8, addend: 0x0, symName: __RNCINvXsn_NtCsliVzVx4luf9_4core6resultINtB8_6ResultINtNtCs69QEzRJvHMp_5alloc3vec3VecNtCs3vPhoADqSdK_11proc_macro211TokenStreamENtNtCsaxBLFzn74Hr_3syn5error5ErrorEINtNtNtNtBa_4iter6traits7collect12FromIteratorIBB_B1k_B21_EE9from_iterINtNtNtB2H_8adapters3map3MapINtNtNtBa_5slice4iter4IterTRRNtNtB25_4data7VariantRNtNtCsehVGFPP7CiK_11clap_derive4item4ItemEENCNvNtNtB53_7derives10subcommand18gen_has_subcommands1_0EE0B53_, symObjAddr: 0x1F24, symBinAddr: 0x6A438, symSize: 0x28 }
  - { offset: 0xF234B, size: 0x8, addend: 0x0, symName: __RNCINvXsn_NtCsliVzVx4luf9_4core6resultINtB8_6ResultINtNtCs69QEzRJvHMp_5alloc3vec3VecNtCs3vPhoADqSdK_11proc_macro211TokenStreamENtNtCsaxBLFzn74Hr_3syn5error5ErrorEINtNtNtNtBa_4iter6traits7collect12FromIteratorIBB_B1k_B21_EE9from_iterINtNtNtB2H_8adapters3map3MapINtNtNtBa_5slice4iter4IterTRRNtNtB25_4data7VariantRNtNtCsehVGFPP7CiK_11clap_derive4item4ItemEENCNvNtNtB53_7derives10subcommand20gen_from_arg_matches0EE0B53_, symObjAddr: 0x1F4C, symBinAddr: 0x6A460, symSize: 0x28 }
  - { offset: 0xF23D5, size: 0x8, addend: 0x0, symName: __RNCINvXsn_NtCsliVzVx4luf9_4core6resultINtB8_6ResultINtNtCs69QEzRJvHMp_5alloc3vec3VecNtCs3vPhoADqSdK_11proc_macro211TokenStreamENtNtCsaxBLFzn74Hr_3syn5error5ErrorEINtNtNtNtBa_4iter6traits7collect12FromIteratorIBB_B1k_B21_EE9from_iterINtNtNtB2H_8adapters3map3MapINtNtNtBa_5slice4iter4IterTRRNtNtB25_4data7VariantRNtNtCsehVGFPP7CiK_11clap_derive4item4ItemEENCNvNtNtB53_7derives10subcommand20gen_from_arg_matchess_0EE0B53_, symObjAddr: 0x1F74, symBinAddr: 0x6A488, symSize: 0x28 }
  - { offset: 0xF245F, size: 0x8, addend: 0x0, symName: __RNCINvXsn_NtCsliVzVx4luf9_4core6resultINtB8_6ResultINtNtCs69QEzRJvHMp_5alloc3vec3VecNtCs3vPhoADqSdK_11proc_macro211TokenStreamENtNtCsaxBLFzn74Hr_3syn5error5ErrorEINtNtNtNtBa_4iter6traits7collect12FromIteratorIBB_B1k_B21_EE9from_iterINtNtNtB2H_8adapters3map3MapINtNtNtBa_5slice4iter4IterTRRNtNtB25_4data7VariantRNtNtCsehVGFPP7CiK_11clap_derive4item4ItemEENCNvNtNtB53_7derives10subcommand27gen_update_from_arg_matchess0_0EE0B53_, symObjAddr: 0x1F9C, symBinAddr: 0x6A4B0, symSize: 0x28 }
  - { offset: 0xF24E9, size: 0x8, addend: 0x0, symName: __RNCINvXsn_NtCsliVzVx4luf9_4core6resultINtB8_6ResultINtNtCs69QEzRJvHMp_5alloc3vec3VecNtCs3vPhoADqSdK_11proc_macro211TokenStreamENtNtCsaxBLFzn74Hr_3syn5error5ErrorEINtNtNtNtBa_4iter6traits7collect12FromIteratorIBB_B1k_B21_EE9from_iterINtNtNtB2H_8adapters3map3MapINtNtNtBa_5slice4iter4IterTRRNtNtB25_4data7VariantRNtNtCsehVGFPP7CiK_11clap_derive4item4ItemEENCNvNtNtB53_7derives10subcommand27gen_update_from_arg_matchess1_0EE0B53_, symObjAddr: 0x1FC4, symBinAddr: 0x6A4D8, symSize: 0x28 }
  - { offset: 0xF2573, size: 0x8, addend: 0x0, symName: __RNCINvXsn_NtCsliVzVx4luf9_4core6resultINtB8_6ResultINtNtCs69QEzRJvHMp_5alloc3vec3VecTRNtNtCsaxBLFzn74Hr_3syn4data5FieldNtNtCsehVGFPP7CiK_11clap_derive4item4ItemEENtNtB1q_5error5ErrorEINtNtNtNtBa_4iter6traits7collect12FromIteratorIBB_B1k_B2A_EE9from_iterINtNtNtB32_8adapters3map3MapINtNtB1q_10punctuated4IterB1m_ENCNvNtNtB1X_7derives4args11derive_args0EE0B1X_, symObjAddr: 0x1FEC, symBinAddr: 0x6A500, symSize: 0x28 }
  - { offset: 0xF25FD, size: 0x8, addend: 0x0, symName: __RNCINvXsn_NtCsliVzVx4luf9_4core6resultINtB8_6ResultINtNtCs69QEzRJvHMp_5alloc3vec3VecTRNtNtCsaxBLFzn74Hr_3syn4data5FieldNtNtCsehVGFPP7CiK_11clap_derive4item4ItemEENtNtB1q_5error5ErrorEINtNtNtNtBa_4iter6traits7collect12FromIteratorIBB_B1k_B2A_EE9from_iterINtNtNtB32_8adapters3map3MapINtNtB1q_10punctuated4IterB1m_ENCNvNtNtB1X_7derives4args19collect_args_fields0EE0B1X_, symObjAddr: 0x2014, symBinAddr: 0x6A528, symSize: 0x28 }
  - { offset: 0xF2687, size: 0x8, addend: 0x0, symName: __RNCINvXsn_NtCsliVzVx4luf9_4core6resultINtB8_6ResultINtNtCs69QEzRJvHMp_5alloc3vec3VecTRNtNtCsaxBLFzn74Hr_3syn4data5FieldNtNtCsehVGFPP7CiK_11clap_derive4item4ItemEENtNtB1q_5error5ErrorEINtNtNtNtBa_4iter6traits7collect12FromIteratorIBB_B1k_B2A_EE9from_iterINtNtNtB32_8adapters3map3MapINtNtB1q_10punctuated4IterB1m_ENCNvNtNtB1X_7derives6parser13derive_parser0EE0B1X_, symObjAddr: 0x203C, symBinAddr: 0x6A550, symSize: 0x28 }
  - { offset: 0xF2711, size: 0x8, addend: 0x0, symName: __RNCINvXsn_NtCsliVzVx4luf9_4core6resultINtB8_6ResultINtNtCs69QEzRJvHMp_5alloc3vec3VecTRNtNtCsaxBLFzn74Hr_3syn4data7VariantNtNtCsehVGFPP7CiK_11clap_derive4item4ItemEENtNtB1q_5error5ErrorEINtNtNtNtBa_4iter6traits7collect12FromIteratorIBB_B1k_B2C_EE9from_iterINtNtNtB34_8adapters3map3MapINtNtB1q_10punctuated4IterB1m_ENCNvNtNtB1Z_7derives10subcommand17derive_subcommand0EE0B1Z_, symObjAddr: 0x2064, symBinAddr: 0x6A578, symSize: 0x28 }
  - { offset: 0xF279B, size: 0x8, addend: 0x0, symName: __RNCINvXsn_NtCsliVzVx4luf9_4core6resultINtB8_6ResultINtNtCs69QEzRJvHMp_5alloc3vec3VecTRNtNtCsaxBLFzn74Hr_3syn4data7VariantNtNtCsehVGFPP7CiK_11clap_derive4item4ItemEENtNtB1q_5error5ErrorEINtNtNtNtBa_4iter6traits7collect12FromIteratorIBB_B1k_B2C_EE9from_iterINtNtNtB34_8adapters3map3MapINtNtB1q_10punctuated4IterB1m_ENCNvNtNtB1Z_7derives6parser13derive_parsers_0EE0B1Z_, symObjAddr: 0x208C, symBinAddr: 0x6A5A0, symSize: 0x28 }
  - { offset: 0xF29D3, size: 0x8, addend: 0x0, symName: __RNvXso_NtCsliVzVx4luf9_4core6resultINtB5_6ResultINtNtB7_6option6OptionNtNtCsehVGFPP7CiK_11clap_derive4item6MethodENtNtCsaxBLFzn74Hr_3syn5error5ErrorENtNtNtB7_3ops9try_trait3Try6branchB1a_, symObjAddr: 0x2C50, symBinAddr: 0x6B164, symSize: 0xB8 }
  - { offset: 0xF2A50, size: 0x8, addend: 0x0, symName: __RNvXso_NtCsliVzVx4luf9_4core6resultINtB5_6ResultINtNtCs69QEzRJvHMp_5alloc3vec3VecNtCs3vPhoADqSdK_11proc_macro211TokenStreamENtNtCsaxBLFzn74Hr_3syn5error5ErrorENtNtNtB7_3ops9try_trait3Try11from_outputCsehVGFPP7CiK_11clap_derive, symObjAddr: 0x2D08, symBinAddr: 0x6B21C, symSize: 0x18 }
  - { offset: 0xF2A90, size: 0x8, addend: 0x0, symName: __RNvXso_NtCsliVzVx4luf9_4core6resultINtB5_6ResultINtNtCs69QEzRJvHMp_5alloc3vec3VecNtCs3vPhoADqSdK_11proc_macro211TokenStreamENtNtCsaxBLFzn74Hr_3syn5error5ErrorENtNtNtB7_3ops9try_trait3Try6branchCsehVGFPP7CiK_11clap_derive, symObjAddr: 0x2D20, symBinAddr: 0x6B234, symSize: 0x94 }
  - { offset: 0xF2B0D, size: 0x8, addend: 0x0, symName: __RNvXso_NtCsliVzVx4luf9_4core6resultINtB5_6ResultINtNtCs69QEzRJvHMp_5alloc3vec3VecNtNtCsehVGFPP7CiK_11clap_derive4attr8ClapAttrENtNtCsaxBLFzn74Hr_3syn5error5ErrorENtNtNtB7_3ops9try_trait3Try6branchB1l_, symObjAddr: 0x2DB4, symBinAddr: 0x6B2C8, symSize: 0x94 }
  - { offset: 0xF2B8A, size: 0x8, addend: 0x0, symName: __RNvXso_NtCsliVzVx4luf9_4core6resultINtB5_6ResultINtNtCs69QEzRJvHMp_5alloc3vec3VecTNtCs3vPhoADqSdK_11proc_macro211TokenStreamNtB1k_5IdentEENtNtCsaxBLFzn74Hr_3syn5error5ErrorENtNtNtB7_3ops9try_trait3Try6branchCsehVGFPP7CiK_11clap_derive, symObjAddr: 0x2E48, symBinAddr: 0x6B35C, symSize: 0x94 }
  - { offset: 0xF2C07, size: 0x8, addend: 0x0, symName: __RNvXso_NtCsliVzVx4luf9_4core6resultINtB5_6ResultINtNtCs69QEzRJvHMp_5alloc3vec3VecTRNtNtCsaxBLFzn74Hr_3syn4data5FieldNtNtCsehVGFPP7CiK_11clap_derive4item4ItemEENtNtB1n_5error5ErrorENtNtNtB7_3ops9try_trait3Try11from_outputB1U_, symObjAddr: 0x2EDC, symBinAddr: 0x6B3F0, symSize: 0x18 }
  - { offset: 0xF2C47, size: 0x8, addend: 0x0, symName: __RNvXso_NtCsliVzVx4luf9_4core6resultINtB5_6ResultINtNtCs69QEzRJvHMp_5alloc3vec3VecTRNtNtCsaxBLFzn74Hr_3syn4data5FieldNtNtCsehVGFPP7CiK_11clap_derive4item4ItemEENtNtB1n_5error5ErrorENtNtNtB7_3ops9try_trait3Try6branchB1U_, symObjAddr: 0x2EF4, symBinAddr: 0x6B408, symSize: 0x94 }
  - { offset: 0xF2CC4, size: 0x8, addend: 0x0, symName: __RNvXso_NtCsliVzVx4luf9_4core6resultINtB5_6ResultINtNtCs69QEzRJvHMp_5alloc3vec3VecTRNtNtCsaxBLFzn74Hr_3syn4data7VariantNtNtCsehVGFPP7CiK_11clap_derive4item4ItemEENtNtB1n_5error5ErrorENtNtNtB7_3ops9try_trait3Try11from_outputB1W_, symObjAddr: 0x2F88, symBinAddr: 0x6B49C, symSize: 0x18 }
  - { offset: 0xF2D04, size: 0x8, addend: 0x0, symName: __RNvXso_NtCsliVzVx4luf9_4core6resultINtB5_6ResultINtNtCs69QEzRJvHMp_5alloc3vec3VecTRNtNtCsaxBLFzn74Hr_3syn4data7VariantNtNtCsehVGFPP7CiK_11clap_derive4item4ItemEENtNtB1n_5error5ErrorENtNtNtB7_3ops9try_trait3Try6branchB1W_, symObjAddr: 0x2FA0, symBinAddr: 0x6B4B4, symSize: 0x94 }
  - { offset: 0xF2D81, size: 0x8, addend: 0x0, symName: __RNvXso_NtCsliVzVx4luf9_4core6resultINtB5_6ResultINtNtCsaxBLFzn74Hr_3syn10punctuated10PunctuatedNtNtCsehVGFPP7CiK_11clap_derive4attr8ClapAttrNtNtBP_5token5CommaENtNtBP_5error5ErrorENtNtNtB7_3ops9try_trait3Try6branchB1z_, symObjAddr: 0x3034, symBinAddr: 0x6B548, symSize: 0xA0 }
  - { offset: 0xF2DFE, size: 0x8, addend: 0x0, symName: __RNvXso_NtCsliVzVx4luf9_4core6resultINtB5_6ResultINtNtNtCsehVGFPP7CiK_11clap_derive5utils7spanned2SpNtNtBR_4item11CasingStyleENtNtCsaxBLFzn74Hr_3syn5error5ErrorENtNtNtB7_3ops9try_trait3Try6branchBR_, symObjAddr: 0x30D4, symBinAddr: 0x6B5E8, symSize: 0x94 }
  - { offset: 0xF2E7B, size: 0x8, addend: 0x0, symName: __RNvXso_NtCsliVzVx4luf9_4core6resultINtB5_6ResultNtNtCsaxBLFzn74Hr_3syn6derive11DeriveInputNtNtBO_5error5ErrorENtNtNtB7_3ops9try_trait3Try6branchCsehVGFPP7CiK_11clap_derive, symObjAddr: 0x3168, symBinAddr: 0x6B67C, symSize: 0xB4 }
  - { offset: 0xF2EF9, size: 0x8, addend: 0x0, symName: __RNvXso_NtCsliVzVx4luf9_4core6resultINtB5_6ResultNtNtCsehVGFPP7CiK_11clap_derive4attr8ClapAttrNtNtCsaxBLFzn74Hr_3syn5error5ErrorENtNtNtB7_3ops9try_trait3Try6branchBO_, symObjAddr: 0x321C, symBinAddr: 0x6B730, symSize: 0xC0 }
  - { offset: 0xF2F77, size: 0x8, addend: 0x0, symName: __RNvXso_NtCsliVzVx4luf9_4core6resultINtB5_6ResultNtNtCsehVGFPP7CiK_11clap_derive4item4ItemNtNtCsaxBLFzn74Hr_3syn5error5ErrorENtNtNtB7_3ops9try_trait3Try6branchBO_, symObjAddr: 0x32DC, symBinAddr: 0x6B7F0, symSize: 0xC0 }
  - { offset: 0xF2FF5, size: 0x8, addend: 0x0, symName: __RNvXso_NtCsliVzVx4luf9_4core6resultINtB5_6ResultRNtNtCsaxBLFzn74Hr_3syn2ty4TypeNtNtBP_5error5ErrorENtNtNtB7_3ops9try_trait3Try6branchCsehVGFPP7CiK_11clap_derive, symObjAddr: 0x339C, symBinAddr: 0x6B8B0, symSize: 0x88 }
  - { offset: 0xF3073, size: 0x8, addend: 0x0, symName: __RNvXso_NtCsliVzVx4luf9_4core6resultINtB5_6ResultRNtNtCsaxBLFzn74Hr_3syn3lit6LitStrNtNtBP_5error5ErrorENtNtNtB7_3ops9try_trait3Try6branchCsehVGFPP7CiK_11clap_derive, symObjAddr: 0x3424, symBinAddr: 0x6B938, symSize: 0x88 }
  - { offset: 0xF30F1, size: 0x8, addend: 0x0, symName: __RNvXso_NtCsliVzVx4luf9_4core6resultINtB5_6ResultRNtNtCsehVGFPP7CiK_11clap_derive4attr9AttrValueNtNtCsaxBLFzn74Hr_3syn5error5ErrorENtNtNtB7_3ops9try_trait3Try6branchBP_, symObjAddr: 0x34AC, symBinAddr: 0x6B9C0, symSize: 0x88 }
  - { offset: 0xF316F, size: 0x8, addend: 0x0, symName: __RNvXso_NtCsliVzVx4luf9_4core6resultINtB5_6ResultTRNtNtCsaxBLFzn74Hr_3syn4data5FieldNtNtCsehVGFPP7CiK_11clap_derive4item4ItemENtNtBQ_5error5ErrorENtNtNtB7_3ops9try_trait3Try6branchB1n_, symObjAddr: 0x3534, symBinAddr: 0x6BA48, symSize: 0xB4 }
  - { offset: 0xF31ED, size: 0x8, addend: 0x0, symName: __RNvXso_NtCsliVzVx4luf9_4core6resultINtB5_6ResultTRNtNtCsaxBLFzn74Hr_3syn4data7VariantNtNtCsehVGFPP7CiK_11clap_derive4item4ItemENtNtBQ_5error5ErrorENtNtNtB7_3ops9try_trait3Try6branchB1p_, symObjAddr: 0x35E8, symBinAddr: 0x6BAFC, symSize: 0xB4 }
  - { offset: 0xF3271, size: 0x8, addend: 0x0, symName: __RNvXsp_NtCsliVzVx4luf9_4core6resultINtB5_6ResultINtNtCs69QEzRJvHMp_5alloc3vec3VecNtCs3vPhoADqSdK_11proc_macro211TokenStreamENtNtCsaxBLFzn74Hr_3syn5error5ErrorEINtNtNtB7_3ops9try_trait12FromResidualIBy_NtNtB7_7convert10InfallibleB1Y_EE13from_residualCsehVGFPP7CiK_11clap_derive, symObjAddr: 0x369C, symBinAddr: 0x6BBB0, symSize: 0x48 }
  - { offset: 0xF32F6, size: 0x8, addend: 0x0, symName: __RNvXsp_NtCsliVzVx4luf9_4core6resultINtB5_6ResultINtNtCs69QEzRJvHMp_5alloc3vec3VecNtNtCsehVGFPP7CiK_11clap_derive4attr8ClapAttrENtNtCsaxBLFzn74Hr_3syn5error5ErrorEINtNtNtB7_3ops9try_trait12FromResidualIBy_NtNtB7_7convert10InfallibleB21_EE13from_residualB1l_, symObjAddr: 0x36E4, symBinAddr: 0x6BBF8, symSize: 0x48 }
  - { offset: 0xF337B, size: 0x8, addend: 0x0, symName: __RNvXsp_NtCsliVzVx4luf9_4core6resultINtB5_6ResultINtNtCs69QEzRJvHMp_5alloc3vec3VecTRNtNtCsaxBLFzn74Hr_3syn4data5FieldNtNtCsehVGFPP7CiK_11clap_derive4item4ItemEENtNtB1n_5error5ErrorEINtNtNtB7_3ops9try_trait12FromResidualIBy_NtNtB7_7convert10InfallibleB2x_EE13from_residualB1U_, symObjAddr: 0x372C, symBinAddr: 0x6BC40, symSize: 0x48 }
  - { offset: 0xF3400, size: 0x8, addend: 0x0, symName: __RNvXsp_NtCsliVzVx4luf9_4core6resultINtB5_6ResultINtNtCs69QEzRJvHMp_5alloc3vec3VecTRNtNtCsaxBLFzn74Hr_3syn4data7VariantNtNtCsehVGFPP7CiK_11clap_derive4item4ItemEENtNtB1n_5error5ErrorEINtNtNtB7_3ops9try_trait12FromResidualIBy_NtNtB7_7convert10InfallibleB2z_EE13from_residualB1W_, symObjAddr: 0x3774, symBinAddr: 0x6BC88, symSize: 0x48 }
  - { offset: 0xF3485, size: 0x8, addend: 0x0, symName: __RNvXsp_NtCsliVzVx4luf9_4core6resultINtB5_6ResultINtNtCsaxBLFzn74Hr_3syn10punctuated10PunctuatedNtNtCsehVGFPP7CiK_11clap_derive4attr8ClapAttrNtNtBP_5token5CommaENtNtBP_5error5ErrorEINtNtNtB7_3ops9try_trait12FromResidualIBy_NtNtB7_7convert10InfallibleB2y_EE13from_residualB1z_, symObjAddr: 0x37BC, symBinAddr: 0x6BCD0, symSize: 0x48 }
  - { offset: 0xF350A, size: 0x8, addend: 0x0, symName: __RNvXsp_NtCsliVzVx4luf9_4core6resultINtB5_6ResultNtNtCsehVGFPP7CiK_11clap_derive4attr8ClapAttrNtNtCsaxBLFzn74Hr_3syn5error5ErrorEINtNtNtB7_3ops9try_trait12FromResidualIBy_NtNtB7_7convert10InfallibleB1t_EE13from_residualBO_, symObjAddr: 0x3804, symBinAddr: 0x6BD18, symSize: 0x48 }
  - { offset: 0xF358F, size: 0x8, addend: 0x0, symName: __RNvXsp_NtCsliVzVx4luf9_4core6resultINtB5_6ResultNtNtCsehVGFPP7CiK_11clap_derive4item4ItemNtNtCsaxBLFzn74Hr_3syn5error5ErrorEINtNtNtB7_3ops9try_trait12FromResidualIBy_NtNtB7_7convert10InfallibleB1p_EE13from_residualBO_, symObjAddr: 0x384C, symBinAddr: 0x6BD60, symSize: 0x48 }
  - { offset: 0xF3614, size: 0x8, addend: 0x0, symName: __RNvXsp_NtCsliVzVx4luf9_4core6resultINtB5_6ResultRNtNtCsaxBLFzn74Hr_3syn3lit6LitStrNtNtBP_5error5ErrorEINtNtNtB7_3ops9try_trait12FromResidualIBy_NtNtB7_7convert10InfallibleB1i_EE13from_residualCsehVGFPP7CiK_11clap_derive, symObjAddr: 0x3894, symBinAddr: 0x6BDA8, symSize: 0x40 }
  - { offset: 0xF3699, size: 0x8, addend: 0x0, symName: __RNvXsp_NtCsliVzVx4luf9_4core6resultINtB5_6ResultTRNtNtCsaxBLFzn74Hr_3syn4data5FieldNtNtCsehVGFPP7CiK_11clap_derive4item4ItemENtNtBQ_5error5ErrorEINtNtNtB7_3ops9try_trait12FromResidualIBy_NtNtB7_7convert10InfallibleB1Z_EE13from_residualB1n_, symObjAddr: 0x38D4, symBinAddr: 0x6BDE8, symSize: 0x48 }
  - { offset: 0xF371E, size: 0x8, addend: 0x0, symName: __RNvXsp_NtCsliVzVx4luf9_4core6resultINtB5_6ResultTRNtNtCsaxBLFzn74Hr_3syn4data7VariantNtNtCsehVGFPP7CiK_11clap_derive4item4ItemENtNtBQ_5error5ErrorEINtNtNtB7_3ops9try_trait12FromResidualIBy_NtNtB7_7convert10InfallibleB21_EE13from_residualB1p_, symObjAddr: 0x391C, symBinAddr: 0x6BE30, symSize: 0x48 }
  - { offset: 0xF6B7B, size: 0x8, addend: 0x0, symName: __RNvMNtCsliVzVx4luf9_4core5sliceSNtNtCsaxBLFzn74Hr_3syn4expr4Expr4iterCsehVGFPP7CiK_11clap_derive, symObjAddr: 0x20EC, symBinAddr: 0x6A600, symSize: 0x28 }
  - { offset: 0xF6C04, size: 0x8, addend: 0x0, symName: __RNvMNtCsliVzVx4luf9_4core5sliceSh15copy_from_sliceCsehVGFPP7CiK_11clap_derive, symObjAddr: 0x2114, symBinAddr: 0x6A628, symSize: 0xA4 }
  - { offset: 0xF6CDA, size: 0x8, addend: 0x0, symName: __RNCNvXs8_NtNtCsliVzVx4luf9_4core5slice3cmpNtNtCsehVGFPP7CiK_11clap_derive4attr8AttrKindNtB7_13SliceContains14slice_contains0BI_, symObjAddr: 0x20B4, symBinAddr: 0x6A5C8, symSize: 0x38 }
  - { offset: 0xF6FAE, size: 0x8, addend: 0x0, symName: __RNCINvNtNtNtCsliVzVx4luf9_4core4iter8adapters3map12map_try_foldRNtNtCs69QEzRJvHMp_5alloc6string6StringjjINtNtBa_6option6OptionjENCNCINvNtB14_3str17join_generic_copyehB10_E00NvMs9_NtBa_3numj11checked_addE0CsehVGFPP7CiK_11clap_derive, symObjAddr: 0x12B4, symBinAddr: 0x697C8, symSize: 0xA8 }
  - { offset: 0xF703F, size: 0x8, addend: 0x0, symName: __RNCINvNtNtNtCsliVzVx4luf9_4core4iter8adapters3map12map_try_foldRNtNtCsaxBLFzn74Hr_3syn4data5FieldINtNtBa_6result6ResultTBZ_NtNtCsehVGFPP7CiK_11clap_derive4item4ItemENtNtB14_5error5ErrorEuINtNtNtBa_3ops12control_flow11ControlFlowIB30_B1T_EENCNvNtNtB21_7derives4args11derive_args0NCINvXB6_INtB6_12GenericShuntINtB4_3MapINtNtB14_10punctuated4IterB10_EB3P_EIB1y_NtNtBa_7convert10InfallibleB2D_EENtNtNtB8_6traits8iterator8Iterator8try_folduNCINvNvB6h_12try_for_each4callB1T_B3E_NcNtB3E_5Break0E0B3E_E0E0B21_, symObjAddr: 0x135C, symBinAddr: 0x69870, symSize: 0xAC }
  - { offset: 0xF70D1, size: 0x8, addend: 0x0, symName: __RNCINvNtNtNtCsliVzVx4luf9_4core4iter8adapters3map12map_try_foldRNtNtCsaxBLFzn74Hr_3syn4data5FieldINtNtBa_6result6ResultTBZ_NtNtCsehVGFPP7CiK_11clap_derive4item4ItemENtNtB14_5error5ErrorEuINtNtNtBa_3ops12control_flow11ControlFlowIB30_B1T_EENCNvNtNtB21_7derives4args19collect_args_fields0NCINvXB6_INtB6_12GenericShuntINtB4_3MapINtNtB14_10punctuated4IterB10_EB3P_EIB1y_NtNtBa_7convert10InfallibleB2D_EENtNtNtB8_6traits8iterator8Iterator8try_folduNCINvNvB6p_12try_for_each4callB1T_B3E_NcNtB3E_5Break0E0B3E_E0E0B21_, symObjAddr: 0x1408, symBinAddr: 0x6991C, symSize: 0xAC }
  - { offset: 0xF7163, size: 0x8, addend: 0x0, symName: __RNCINvNtNtNtCsliVzVx4luf9_4core4iter8adapters3map12map_try_foldRNtNtCsaxBLFzn74Hr_3syn4data5FieldINtNtBa_6result6ResultTBZ_NtNtCsehVGFPP7CiK_11clap_derive4item4ItemENtNtB14_5error5ErrorEuINtNtNtBa_3ops12control_flow11ControlFlowIB30_B1T_EENCNvNtNtB21_7derives6parser13derive_parser0NCINvXB6_INtB6_12GenericShuntINtB4_3MapINtNtB14_10punctuated4IterB10_EB3P_EIB1y_NtNtBa_7convert10InfallibleB2D_EENtNtNtB8_6traits8iterator8Iterator8try_folduNCINvNvB6l_12try_for_each4callB1T_B3E_NcNtB3E_5Break0E0B3E_E0E0B21_, symObjAddr: 0x14B4, symBinAddr: 0x699C8, symSize: 0xAC }
  - { offset: 0xF71F5, size: 0x8, addend: 0x0, symName: __RNCINvNtNtNtCsliVzVx4luf9_4core4iter8adapters3map12map_try_foldRNtNtCsaxBLFzn74Hr_3syn4data7VariantINtNtBa_6result6ResultTBZ_NtNtCsehVGFPP7CiK_11clap_derive4item4ItemENtNtB14_5error5ErrorEuINtNtNtBa_3ops12control_flow11ControlFlowIB32_B1V_EENCNvNtNtB23_7derives10subcommand17derive_subcommand0NCINvXB6_INtB6_12GenericShuntINtB4_3MapINtNtB14_10punctuated4IterB10_EB3R_EIB1A_NtNtBa_7convert10InfallibleB2F_EENtNtNtB8_6traits8iterator8Iterator8try_folduNCINvNvB6w_12try_for_each4callB1V_B3G_NcNtB3G_5Break0E0B3G_E0E0B23_, symObjAddr: 0x1560, symBinAddr: 0x69A74, symSize: 0xAC }
  - { offset: 0xF7287, size: 0x8, addend: 0x0, symName: __RNCINvNtNtNtCsliVzVx4luf9_4core4iter8adapters3map12map_try_foldRNtNtCsaxBLFzn74Hr_3syn4data7VariantINtNtBa_6result6ResultTBZ_NtNtCsehVGFPP7CiK_11clap_derive4item4ItemENtNtB14_5error5ErrorEuINtNtNtBa_3ops12control_flow11ControlFlowIB32_B1V_EENCNvNtNtB23_7derives6parser13derive_parsers_0NCINvXB6_INtB6_12GenericShuntINtB4_3MapINtNtB14_10punctuated4IterB10_EB3R_EIB1A_NtNtBa_7convert10InfallibleB2F_EENtNtNtB8_6traits8iterator8Iterator8try_folduNCINvNvB6p_12try_for_each4callB1V_B3G_NcNtB3G_5Break0E0B3G_E0E0B23_, symObjAddr: 0x160C, symBinAddr: 0x69B20, symSize: 0xAC }
  - { offset: 0xF7319, size: 0x8, addend: 0x0, symName: __RNCINvNtNtNtCsliVzVx4luf9_4core4iter8adapters3map12map_try_foldRTRNtNtCsaxBLFzn74Hr_3syn4data5FieldNtNtCsehVGFPP7CiK_11clap_derive4item4ItemEINtNtBa_6result6ResultNtCs3vPhoADqSdK_11proc_macro211TokenStreamNtNtB16_5error5ErrorEuINtNtNtBa_3ops12control_flow11ControlFlowIB3E_B2B_EENCNvNtNtB1D_7derives4args15gen_constructor0NCINvXB6_INtB6_12GenericShuntINtB4_3MapINtNtNtBa_5slice4iter4IterB10_EB4t_EIB2g_NtNtBa_7convert10InfallibleB3h_EENtNtNtB8_6traits8iterator8Iterator8try_folduNCINvNvB6Z_12try_for_each4callB2B_B4i_NcNtB4i_5Break0E0B4i_E0E0B1D_, symObjAddr: 0x16B8, symBinAddr: 0x69BCC, symSize: 0x98 }
  - { offset: 0xF73AB, size: 0x8, addend: 0x0, symName: __RNCINvNtNtNtCsliVzVx4luf9_4core4iter8adapters3map12map_try_foldRTRRNtNtCsaxBLFzn74Hr_3syn4data7VariantRNtNtCsehVGFPP7CiK_11clap_derive4item4ItemEINtNtBa_6result6ResultNtCs3vPhoADqSdK_11proc_macro211TokenStreamNtNtB17_5error5ErrorEuINtNtNtBa_3ops12control_flow11ControlFlowIB3I_B2F_EENCNvNtNtB1H_7derives10subcommand18gen_has_subcommands1_0NCINvXB6_INtB6_12GenericShuntINtB4_3MapINtNtNtBa_5slice4iter4IterB10_EB4x_EIB2k_NtNtBa_7convert10InfallibleB3l_EENtNtNtB8_6traits8iterator8Iterator8try_folduNCINvNvB7g_12try_for_each4callB2F_B4m_NcNtB4m_5Break0E0B4m_E0E0B1H_, symObjAddr: 0x1750, symBinAddr: 0x69C64, symSize: 0x98 }
  - { offset: 0xF743D, size: 0x8, addend: 0x0, symName: __RNCINvNtNtNtCsliVzVx4luf9_4core4iter8adapters3map12map_try_foldRTRRNtNtCsaxBLFzn74Hr_3syn4data7VariantRNtNtCsehVGFPP7CiK_11clap_derive4item4ItemEINtNtBa_6result6ResultNtCs3vPhoADqSdK_11proc_macro211TokenStreamNtNtB17_5error5ErrorEuINtNtNtBa_3ops12control_flow11ControlFlowIB3I_B2F_EENCNvNtNtB1H_7derives10subcommand20gen_from_arg_matches0NCINvXB6_INtB6_12GenericShuntINtB4_3MapINtNtNtBa_5slice4iter4IterB10_EB4x_EIB2k_NtNtBa_7convert10InfallibleB3l_EENtNtNtB8_6traits8iterator8Iterator8try_folduNCINvNvB7f_12try_for_each4callB2F_B4m_NcNtB4m_5Break0E0B4m_E0E0B1H_, symObjAddr: 0x17E8, symBinAddr: 0x69CFC, symSize: 0x98 }
  - { offset: 0xF74CF, size: 0x8, addend: 0x0, symName: __RNCINvNtNtNtCsliVzVx4luf9_4core4iter8adapters3map12map_try_foldRTRRNtNtCsaxBLFzn74Hr_3syn4data7VariantRNtNtCsehVGFPP7CiK_11clap_derive4item4ItemEINtNtBa_6result6ResultNtCs3vPhoADqSdK_11proc_macro211TokenStreamNtNtB17_5error5ErrorEuINtNtNtBa_3ops12control_flow11ControlFlowIB3I_B2F_EENCNvNtNtB1H_7derives10subcommand20gen_from_arg_matchess_0NCINvXB6_INtB6_12GenericShuntINtB4_3MapINtNtNtBa_5slice4iter4IterB10_EB4x_EIB2k_NtNtBa_7convert10InfallibleB3l_EENtNtNtB8_6traits8iterator8Iterator8try_folduNCINvNvB7h_12try_for_each4callB2F_B4m_NcNtB4m_5Break0E0B4m_E0E0B1H_, symObjAddr: 0x1880, symBinAddr: 0x69D94, symSize: 0x98 }
  - { offset: 0xF7561, size: 0x8, addend: 0x0, symName: __RNCINvNtNtNtCsliVzVx4luf9_4core4iter8adapters3map12map_try_foldRTRRNtNtCsaxBLFzn74Hr_3syn4data7VariantRNtNtCsehVGFPP7CiK_11clap_derive4item4ItemEINtNtBa_6result6ResultNtCs3vPhoADqSdK_11proc_macro211TokenStreamNtNtB17_5error5ErrorEuINtNtNtBa_3ops12control_flow11ControlFlowIB3I_B2F_EENCNvNtNtB1H_7derives10subcommand27gen_update_from_arg_matchess0_0NCINvXB6_INtB6_12GenericShuntINtB4_3MapINtNtNtBa_5slice4iter4IterB10_EB4x_EIB2k_NtNtBa_7convert10InfallibleB3l_EENtNtNtB8_6traits8iterator8Iterator8try_folduNCINvNvB7p_12try_for_each4callB2F_B4m_NcNtB4m_5Break0E0B4m_E0E0B1H_, symObjAddr: 0x1918, symBinAddr: 0x69E2C, symSize: 0x98 }
  - { offset: 0xF75F3, size: 0x8, addend: 0x0, symName: __RNCINvNtNtNtCsliVzVx4luf9_4core4iter8adapters3map12map_try_foldRTRRNtNtCsaxBLFzn74Hr_3syn4data7VariantRNtNtCsehVGFPP7CiK_11clap_derive4item4ItemEINtNtBa_6result6ResultNtCs3vPhoADqSdK_11proc_macro211TokenStreamNtNtB17_5error5ErrorEuINtNtNtBa_3ops12control_flow11ControlFlowIB3I_B2F_EENCNvNtNtB1H_7derives10subcommand27gen_update_from_arg_matchess1_0NCINvXB6_INtB6_12GenericShuntINtB4_3MapINtNtNtBa_5slice4iter4IterB10_EB4x_EIB2k_NtNtBa_7convert10InfallibleB3l_EENtNtNtB8_6traits8iterator8Iterator8try_folduNCINvNvB7p_12try_for_each4callB2F_B4m_NcNtB4m_5Break0E0B4m_E0E0B1H_, symObjAddr: 0x19B0, symBinAddr: 0x69EC4, symSize: 0x98 }
  - { offset: 0xF768B, size: 0x8, addend: 0x0, symName: __RINvXs0_NtNtNtCsliVzVx4luf9_4core4iter8adapters3mapINtB6_3MapINtNtCsaxBLFzn74Hr_3syn10punctuated4IterNtNtB12_4data5FieldENCNvNtNtCsehVGFPP7CiK_11clap_derive7derives4args11derive_args0ENtNtNtBa_6traits8iterator8Iterator8try_folduNCINvXB8_INtB8_12GenericShuntBN_INtNtBc_6result6ResultNtNtBc_7convert10InfallibleNtNtB12_5error5ErrorEEB2W_8try_folduNCINvNvB2W_12try_for_each4callTRB1B_NtNtB23_4item4ItemEINtNtNtBc_3ops12control_flow11ControlFlowB61_ENcNtB6q_5Break0E0B6q_E0IB6r_B6q_EEB23_, symObjAddr: 0x838, symBinAddr: 0x68D4C, symSize: 0x54 }
  - { offset: 0xF773C, size: 0x8, addend: 0x0, symName: __RINvXs0_NtNtNtCsliVzVx4luf9_4core4iter8adapters3mapINtB6_3MapINtNtCsaxBLFzn74Hr_3syn10punctuated4IterNtNtB12_4data5FieldENCNvNtNtCsehVGFPP7CiK_11clap_derive7derives4args19collect_args_fields0ENtNtNtBa_6traits8iterator8Iterator8try_folduNCINvXB8_INtB8_12GenericShuntBN_INtNtBc_6result6ResultNtNtBc_7convert10InfallibleNtNtB12_5error5ErrorEEB34_8try_folduNCINvNvB34_12try_for_each4callTRB1B_NtNtB23_4item4ItemEINtNtNtBc_3ops12control_flow11ControlFlowB69_ENcNtB6y_5Break0E0B6y_E0IB6z_B6y_EEB23_, symObjAddr: 0x88C, symBinAddr: 0x68DA0, symSize: 0x54 }
  - { offset: 0xF77ED, size: 0x8, addend: 0x0, symName: __RINvXs0_NtNtNtCsliVzVx4luf9_4core4iter8adapters3mapINtB6_3MapINtNtCsaxBLFzn74Hr_3syn10punctuated4IterNtNtB12_4data5FieldENCNvNtNtCsehVGFPP7CiK_11clap_derive7derives6parser13derive_parser0ENtNtNtBa_6traits8iterator8Iterator8try_folduNCINvXB8_INtB8_12GenericShuntBN_INtNtBc_6result6ResultNtNtBc_7convert10InfallibleNtNtB12_5error5ErrorEEB30_8try_folduNCINvNvB30_12try_for_each4callTRB1B_NtNtB23_4item4ItemEINtNtNtBc_3ops12control_flow11ControlFlowB65_ENcNtB6u_5Break0E0B6u_E0IB6v_B6u_EEB23_, symObjAddr: 0x8E0, symBinAddr: 0x68DF4, symSize: 0x54 }
  - { offset: 0xF789E, size: 0x8, addend: 0x0, symName: __RINvXs0_NtNtNtCsliVzVx4luf9_4core4iter8adapters3mapINtB6_3MapINtNtCsaxBLFzn74Hr_3syn10punctuated4IterNtNtB12_4data7VariantENCNvNtNtCsehVGFPP7CiK_11clap_derive7derives10subcommand17derive_subcommand0ENtNtNtBa_6traits8iterator8Iterator8try_folduNCINvXB8_INtB8_12GenericShuntBN_INtNtBc_6result6ResultNtNtBc_7convert10InfallibleNtNtB12_5error5ErrorEEB3b_8try_folduNCINvNvB3b_12try_for_each4callTRB1B_NtNtB25_4item4ItemEINtNtNtBc_3ops12control_flow11ControlFlowB6g_ENcNtB6F_5Break0E0B6F_E0IB6G_B6F_EEB25_, symObjAddr: 0x934, symBinAddr: 0x68E48, symSize: 0x54 }
  - { offset: 0xF794F, size: 0x8, addend: 0x0, symName: __RINvXs0_NtNtNtCsliVzVx4luf9_4core4iter8adapters3mapINtB6_3MapINtNtCsaxBLFzn74Hr_3syn10punctuated4IterNtNtB12_4data7VariantENCNvNtNtCsehVGFPP7CiK_11clap_derive7derives6parser13derive_parsers_0ENtNtNtBa_6traits8iterator8Iterator8try_folduNCINvXB8_INtB8_12GenericShuntBN_INtNtBc_6result6ResultNtNtBc_7convert10InfallibleNtNtB12_5error5ErrorEEB34_8try_folduNCINvNvB34_12try_for_each4callTRB1B_NtNtB25_4item4ItemEINtNtNtBc_3ops12control_flow11ControlFlowB69_ENcNtB6y_5Break0E0B6y_E0IB6z_B6y_EEB25_, symObjAddr: 0x988, symBinAddr: 0x68E9C, symSize: 0x54 }
  - { offset: 0xF7A00, size: 0x8, addend: 0x0, symName: __RINvXs0_NtNtNtCsliVzVx4luf9_4core4iter8adapters3mapINtB6_3MapINtNtNtBc_5slice4iter4IterNtNtCs69QEzRJvHMp_5alloc6string6StringENCINvNtNtCsehVGFPP7CiK_11clap_derive5utils12doc_comments11merge_linesRB1n_RSB1n_E0ENtNtNtBa_6traits8iterator8Iterator4folduNCINvNvB3l_8for_each4callB1n_NCINvMsi_NtB1r_3vecINtB4B_3VecB1n_E14extend_trustedBN_E0E0EB29_, symObjAddr: 0x9DC, symBinAddr: 0x68EF0, symSize: 0x44 }
  - { offset: 0xF7AA6, size: 0x8, addend: 0x0, symName: __RINvXs0_NtNtNtCsliVzVx4luf9_4core4iter8adapters3mapINtB6_3MapINtNtNtBc_5slice4iter4IterNtNtCsehVGFPP7CiK_11clap_derive4attr8AttrKindENCNvNtB1r_4item16assert_attr_kind0ENtNtNtBa_6traits8iterator8Iterator4folduNCINvNvB2G_8for_each4callNtNtCs69QEzRJvHMp_5alloc6string6StringNCINvMsi_NtB3N_3vecINtB4u_3VecB3J_E14extend_trustedBN_E0E0EB1r_, symObjAddr: 0xA20, symBinAddr: 0x68F34, symSize: 0x4C }
  - { offset: 0xF7B4D, size: 0x8, addend: 0x0, symName: __RINvXs0_NtNtNtCsliVzVx4luf9_4core4iter8adapters3mapINtB6_3MapINtNtNtBc_5slice4iter4IterTNtCs3vPhoADqSdK_11proc_macro211TokenStreamNtB1q_5IdentEENCNvNtNtCsehVGFPP7CiK_11clap_derive7derives10value_enum18gen_value_variants0ENtNtNtBa_6traits8iterator8Iterator4folduNCINvNvB3x_8for_each4callRB24_NCINvMsi_NtCs69QEzRJvHMp_5alloc3vecINtB4O_3VecB4A_E14extend_trustedBN_E0E0EB2q_, symObjAddr: 0xA6C, symBinAddr: 0x68F80, symSize: 0x44 }
  - { offset: 0xF7BF3, size: 0x8, addend: 0x0, symName: __RINvXs0_NtNtNtCsliVzVx4luf9_4core4iter8adapters3mapINtB6_3MapINtNtNtBc_5slice4iter4IterTRNtNtCsaxBLFzn74Hr_3syn4data5FieldNtNtCsehVGFPP7CiK_11clap_derive4item4ItemEENCNvNtNtB20_7derives4args15gen_constructor0ENtNtNtBa_6traits8iterator8Iterator8try_folduNCINvXB8_INtB8_12GenericShuntBN_INtNtBc_6result6ResultNtNtBc_7convert10InfallibleNtNtB1t_5error5ErrorEEB3l_8try_folduNCINvNvB3l_12try_for_each4callNtCs3vPhoADqSdK_11proc_macro211TokenStreamINtNtNtBc_3ops12control_flow11ControlFlowB6q_ENcNtB76_5Break0E0B76_E0IB77_B76_EEB20_, symObjAddr: 0xAB0, symBinAddr: 0x68FC4, symSize: 0x54 }
  - { offset: 0xF7CA4, size: 0x8, addend: 0x0, symName: __RINvXs0_NtNtNtCsliVzVx4luf9_4core4iter8adapters3mapINtB6_3MapINtNtNtBc_5slice4iter4IterTRRNtNtCsaxBLFzn74Hr_3syn4data7VariantRNtNtCsehVGFPP7CiK_11clap_derive4item4ItemEENCNvNtNtB24_7derives10subcommand18gen_has_subcommands1_0ENtNtNtBa_6traits8iterator8Iterator8try_folduNCINvXB8_INtB8_12GenericShuntBN_INtNtBc_6result6ResultNtNtBc_7convert10InfallibleNtNtB1u_5error5ErrorEEB3C_8try_folduNCINvNvB3C_12try_for_each4callNtCs3vPhoADqSdK_11proc_macro211TokenStreamINtNtNtBc_3ops12control_flow11ControlFlowB6H_ENcNtB7n_5Break0E0B7n_E0IB7o_B7n_EEB24_, symObjAddr: 0xB04, symBinAddr: 0x69018, symSize: 0x54 }
  - { offset: 0xF7D55, size: 0x8, addend: 0x0, symName: __RINvXs0_NtNtNtCsliVzVx4luf9_4core4iter8adapters3mapINtB6_3MapINtNtNtBc_5slice4iter4IterTRRNtNtCsaxBLFzn74Hr_3syn4data7VariantRNtNtCsehVGFPP7CiK_11clap_derive4item4ItemEENCNvNtNtB24_7derives10subcommand20gen_from_arg_matches0ENtNtNtBa_6traits8iterator8Iterator8try_folduNCINvXB8_INtB8_12GenericShuntBN_INtNtBc_6result6ResultNtNtBc_7convert10InfallibleNtNtB1u_5error5ErrorEEB3B_8try_folduNCINvNvB3B_12try_for_each4callNtCs3vPhoADqSdK_11proc_macro211TokenStreamINtNtNtBc_3ops12control_flow11ControlFlowB6G_ENcNtB7m_5Break0E0B7m_E0IB7n_B7m_EEB24_, symObjAddr: 0xB58, symBinAddr: 0x6906C, symSize: 0x54 }
  - { offset: 0xF7E06, size: 0x8, addend: 0x0, symName: __RINvXs0_NtNtNtCsliVzVx4luf9_4core4iter8adapters3mapINtB6_3MapINtNtNtBc_5slice4iter4IterTRRNtNtCsaxBLFzn74Hr_3syn4data7VariantRNtNtCsehVGFPP7CiK_11clap_derive4item4ItemEENCNvNtNtB24_7derives10subcommand20gen_from_arg_matchess_0ENtNtNtBa_6traits8iterator8Iterator8try_folduNCINvXB8_INtB8_12GenericShuntBN_INtNtBc_6result6ResultNtNtBc_7convert10InfallibleNtNtB1u_5error5ErrorEEB3D_8try_folduNCINvNvB3D_12try_for_each4callNtCs3vPhoADqSdK_11proc_macro211TokenStreamINtNtNtBc_3ops12control_flow11ControlFlowB6I_ENcNtB7o_5Break0E0B7o_E0IB7p_B7o_EEB24_, symObjAddr: 0xBAC, symBinAddr: 0x690C0, symSize: 0x54 }
  - { offset: 0xF7EB7, size: 0x8, addend: 0x0, symName: __RINvXs0_NtNtNtCsliVzVx4luf9_4core4iter8adapters3mapINtB6_3MapINtNtNtBc_5slice4iter4IterTRRNtNtCsaxBLFzn74Hr_3syn4data7VariantRNtNtCsehVGFPP7CiK_11clap_derive4item4ItemEENCNvNtNtB24_7derives10subcommand27gen_update_from_arg_matchess0_0ENtNtNtBa_6traits8iterator8Iterator8try_folduNCINvXB8_INtB8_12GenericShuntBN_INtNtBc_6result6ResultNtNtBc_7convert10InfallibleNtNtB1u_5error5ErrorEEB3L_8try_folduNCINvNvB3L_12try_for_each4callNtCs3vPhoADqSdK_11proc_macro211TokenStreamINtNtNtBc_3ops12control_flow11ControlFlowB6Q_ENcNtB7w_5Break0E0B7w_E0IB7x_B7w_EEB24_, symObjAddr: 0xC00, symBinAddr: 0x69114, symSize: 0x54 }
  - { offset: 0xF7F68, size: 0x8, addend: 0x0, symName: __RINvXs0_NtNtNtCsliVzVx4luf9_4core4iter8adapters3mapINtB6_3MapINtNtNtBc_5slice4iter4IterTRRNtNtCsaxBLFzn74Hr_3syn4data7VariantRNtNtCsehVGFPP7CiK_11clap_derive4item4ItemEENCNvNtNtB24_7derives10subcommand27gen_update_from_arg_matchess1_0ENtNtNtBa_6traits8iterator8Iterator8try_folduNCINvXB8_INtB8_12GenericShuntBN_INtNtBc_6result6ResultNtNtBc_7convert10InfallibleNtNtB1u_5error5ErrorEEB3L_8try_folduNCINvNvB3L_12try_for_each4callNtCs3vPhoADqSdK_11proc_macro211TokenStreamINtNtNtBc_3ops12control_flow11ControlFlowB6Q_ENcNtB7w_5Break0E0B7w_E0IB7x_B7w_EEB24_, symObjAddr: 0xC54, symBinAddr: 0x69168, symSize: 0x54 }
  - { offset: 0xF8019, size: 0x8, addend: 0x0, symName: __RINvXs0_NtNtNtCsliVzVx4luf9_4core4iter8adapters3mapINtB6_3MapINtNtNtCs69QEzRJvHMp_5alloc3vec9into_iter8IntoIterTNtNtCsaxBLFzn74Hr_3syn4expr4ExprNtNtB1Q_5token5CommaEENCNvXs4_NtB1Q_10punctuatedINtB2M_10PunctuatedB1M_B2i_ENtNtNtBa_6traits7collect12IntoIterator9into_iter0ENtNtB3A_8iterator8Iterator4folduNCINvNvB4k_8for_each4callB1M_NCINvMsi_B12_INtB12_3VecB1M_E14extend_trustedBN_E0E0ECsehVGFPP7CiK_11clap_derive, symObjAddr: 0xCA8, symBinAddr: 0x691BC, symSize: 0x4C }
  - { offset: 0xF80C0, size: 0x8, addend: 0x0, symName: __RINvXs0_NtNtNtCsliVzVx4luf9_4core4iter8adapters3mapINtB6_3MapINtNtNtCs69QEzRJvHMp_5alloc3vec9into_iter8IntoIterTNtNtCsehVGFPP7CiK_11clap_derive4attr8ClapAttrNtNtCsaxBLFzn74Hr_3syn5token5CommaEENCNvXs4_NtB2z_10punctuatedINtB3d_10PunctuatedB1M_B2v_ENtNtNtBa_6traits7collect12IntoIterator9into_iter0ENtNtB41_8iterator8Iterator4folduNCINvNvB4L_8for_each4callB1M_NCINvMsi_B12_INtB12_3VecB1M_E14extend_trustedBN_E0E0EB1Q_, symObjAddr: 0xCF4, symBinAddr: 0x69208, symSize: 0x4C }
  - { offset: 0xF8167, size: 0x8, addend: 0x0, symName: __RNvXs0_NtNtNtCsliVzVx4luf9_4core4iter8adapters3mapINtB5_3MapINtNtB7_10skip_while9SkipWhileINtNtB7_10filter_map9FilterMapINtNtB7_6filter6FilterINtNtNtBb_5slice4iter4IterNtNtCsaxBLFzn74Hr_3syn4attr9AttributeENCNvNtNtCsehVGFPP7CiK_11clap_derive5utils12doc_comments19extract_doc_comment0ENCB3k_s_0ENCB3k_s0_0ENCB3k_s1_0ENtNtNtB9_6traits8iterator8Iterator4nextB3q_, symObjAddr: 0x2318, symBinAddr: 0x6A82C, symSize: 0xAC }
  - { offset: 0xF81DF, size: 0x8, addend: 0x0, symName: __RNvXs0_NtNtNtCsliVzVx4luf9_4core4iter8adapters3mapINtB5_3MapINtNtB7_10skip_while9SkipWhileINtNtB7_10filter_map9FilterMapINtNtB7_6filter6FilterINtNtNtBb_5slice4iter4IterNtNtCsaxBLFzn74Hr_3syn4attr9AttributeENCNvNtNtCsehVGFPP7CiK_11clap_derive5utils12doc_comments19extract_doc_comment0ENCB3k_s_0ENCB3k_s0_0ENCB3k_s1_0ENtNtNtB9_6traits8iterator8Iterator9size_hintB3q_, symObjAddr: 0x23C4, symBinAddr: 0x6A8D8, symSize: 0x24 }
  - { offset: 0xF8226, size: 0x8, addend: 0x0, symName: __RNvXs0_NtNtNtCsliVzVx4luf9_4core4iter8adapters3mapINtB5_3MapINtNtCsaxBLFzn74Hr_3syn10punctuated4IterNtNtB11_4data5FieldENCNCNvNtNtCsehVGFPP7CiK_11clap_derive7derives10subcommand27gen_update_from_arg_matchess0_00ENtNtNtB9_6traits8iterator8Iterator4nextB24_, symObjAddr: 0x23E8, symBinAddr: 0x6A8FC, symSize: 0x74 }
  - { offset: 0xF82A6, size: 0x8, addend: 0x0, symName: __RNvXs0_NtNtNtCsliVzVx4luf9_4core4iter8adapters3mapINtB5_3MapINtNtCsaxBLFzn74Hr_3syn10punctuated4IterNtNtB11_4data5FieldENCNCNvNtNtCsehVGFPP7CiK_11clap_derive7derives10subcommand27gen_update_from_arg_matchess0_00ENtNtNtB9_6traits8iterator8Iterator9size_hintB24_, symObjAddr: 0x245C, symBinAddr: 0x6A970, symSize: 0x24 }
  - { offset: 0xF82ED, size: 0x8, addend: 0x0, symName: __RNvXs0_NtNtNtCsliVzVx4luf9_4core4iter8adapters3mapINtB5_3MapINtNtCsaxBLFzn74Hr_3syn10punctuated4IterNtNtB11_4data5FieldENCNvNtNtCsehVGFPP7CiK_11clap_derive7derives4args11derive_args0ENtNtNtB9_6traits8iterator8Iterator9size_hintB22_, symObjAddr: 0x2480, symBinAddr: 0x6A994, symSize: 0x24 }
  - { offset: 0xF8334, size: 0x8, addend: 0x0, symName: __RNvXs0_NtNtNtCsliVzVx4luf9_4core4iter8adapters3mapINtB5_3MapINtNtCsaxBLFzn74Hr_3syn10punctuated4IterNtNtB11_4data5FieldENCNvNtNtCsehVGFPP7CiK_11clap_derive7derives4args19collect_args_fields0ENtNtNtB9_6traits8iterator8Iterator9size_hintB22_, symObjAddr: 0x24A4, symBinAddr: 0x6A9B8, symSize: 0x24 }
  - { offset: 0xF837B, size: 0x8, addend: 0x0, symName: __RNvXs0_NtNtNtCsliVzVx4luf9_4core4iter8adapters3mapINtB5_3MapINtNtCsaxBLFzn74Hr_3syn10punctuated4IterNtNtB11_4data5FieldENCNvNtNtCsehVGFPP7CiK_11clap_derive7derives6parser13derive_parser0ENtNtNtB9_6traits8iterator8Iterator9size_hintB22_, symObjAddr: 0x24C8, symBinAddr: 0x6A9DC, symSize: 0x24 }
  - { offset: 0xF83C2, size: 0x8, addend: 0x0, symName: __RNvXs0_NtNtNtCsliVzVx4luf9_4core4iter8adapters3mapINtB5_3MapINtNtCsaxBLFzn74Hr_3syn10punctuated4IterNtNtB11_4data7VariantENCNvNtNtCsehVGFPP7CiK_11clap_derive7derives10subcommand17derive_subcommand0ENtNtNtB9_6traits8iterator8Iterator9size_hintB24_, symObjAddr: 0x24EC, symBinAddr: 0x6AA00, symSize: 0x24 }
  - { offset: 0xF8409, size: 0x8, addend: 0x0, symName: __RNvXs0_NtNtNtCsliVzVx4luf9_4core4iter8adapters3mapINtB5_3MapINtNtCsaxBLFzn74Hr_3syn10punctuated4IterNtNtB11_4data7VariantENCNvNtNtCsehVGFPP7CiK_11clap_derive7derives6parser13derive_parsers_0ENtNtNtB9_6traits8iterator8Iterator9size_hintB24_, symObjAddr: 0x2510, symBinAddr: 0x6AA24, symSize: 0x24 }
  - { offset: 0xF8450, size: 0x8, addend: 0x0, symName: __RNvXs0_NtNtNtCsliVzVx4luf9_4core4iter8adapters3mapINtB5_3MapINtNtNtBb_3str4iter5SplitcENCNCNvNtNtCsehVGFPP7CiK_11clap_derive5utils12doc_comments19extract_doc_comments1_00ENtNtNtB9_6traits8iterator8Iterator4nextB1x_, symObjAddr: 0x2534, symBinAddr: 0x6AA48, symSize: 0x9C }
  - { offset: 0xF84D0, size: 0x8, addend: 0x0, symName: __RNvXs0_NtNtNtCsliVzVx4luf9_4core4iter8adapters3mapINtB5_3MapINtNtNtBb_3str4iter5SplitcENCNCNvNtNtCsehVGFPP7CiK_11clap_derive5utils12doc_comments19extract_doc_comments1_00ENtNtNtB9_6traits8iterator8Iterator9size_hintB1x_, symObjAddr: 0x25D0, symBinAddr: 0x6AAE4, symSize: 0x24 }
  - { offset: 0xF8517, size: 0x8, addend: 0x0, symName: __RNvXs0_NtNtNtCsliVzVx4luf9_4core4iter8adapters3mapINtB5_3MapINtNtNtBb_5slice4iter4IterNtNtCs69QEzRJvHMp_5alloc6string6StringENCINvNtNtCsehVGFPP7CiK_11clap_derive5utils12doc_comments11merge_linesRB1m_RSB1m_E0ENtNtNtB9_6traits8iterator8Iterator9size_hintB28_, symObjAddr: 0x25F4, symBinAddr: 0x6AB08, symSize: 0x24 }
  - { offset: 0xF855E, size: 0x8, addend: 0x0, symName: __RNvXs0_NtNtNtCsliVzVx4luf9_4core4iter8adapters3mapINtB5_3MapINtNtNtBb_5slice4iter4IterNtNtCsehVGFPP7CiK_11clap_derive4attr8AttrKindENCNvNtB1q_4item16assert_attr_kind0ENtNtNtB9_6traits8iterator8Iterator9size_hintB1q_, symObjAddr: 0x2618, symBinAddr: 0x6AB2C, symSize: 0x24 }
  - { offset: 0xF85A5, size: 0x8, addend: 0x0, symName: __RNvXs0_NtNtNtCsliVzVx4luf9_4core4iter8adapters3mapINtB5_3MapINtNtNtBb_5slice4iter4IterTNtCs3vPhoADqSdK_11proc_macro211TokenStreamNtB1p_5IdentEENCNvNtNtCsehVGFPP7CiK_11clap_derive7derives10value_enum18gen_value_variants0ENtNtNtB9_6traits8iterator8Iterator9size_hintB2p_, symObjAddr: 0x263C, symBinAddr: 0x6AB50, symSize: 0x24 }
  - { offset: 0xF85EC, size: 0x8, addend: 0x0, symName: __RNvXs0_NtNtNtCsliVzVx4luf9_4core4iter8adapters3mapINtB5_3MapINtNtNtBb_5slice4iter4IterTRNtNtCsaxBLFzn74Hr_3syn4data5FieldNtNtCsehVGFPP7CiK_11clap_derive4item4ItemEENCNvNtNtB1Z_7derives4args15gen_constructor0ENtNtNtB9_6traits8iterator8Iterator9size_hintB1Z_, symObjAddr: 0x2660, symBinAddr: 0x6AB74, symSize: 0x24 }
  - { offset: 0xF8633, size: 0x8, addend: 0x0, symName: __RNvXs0_NtNtNtCsliVzVx4luf9_4core4iter8adapters3mapINtB5_3MapINtNtNtBb_5slice4iter4IterTRRNtNtCsaxBLFzn74Hr_3syn4data7VariantRNtNtCsehVGFPP7CiK_11clap_derive4item4ItemEENCNvNtNtB23_7derives10subcommand18gen_has_subcommands0_0ENtNtNtB9_6traits8iterator8Iterator4nextB23_, symObjAddr: 0x2684, symBinAddr: 0x6AB98, symSize: 0x90 }
  - { offset: 0xF86B3, size: 0x8, addend: 0x0, symName: __RNvXs0_NtNtNtCsliVzVx4luf9_4core4iter8adapters3mapINtB5_3MapINtNtNtBb_5slice4iter4IterTRRNtNtCsaxBLFzn74Hr_3syn4data7VariantRNtNtCsehVGFPP7CiK_11clap_derive4item4ItemEENCNvNtNtB23_7derives10subcommand18gen_has_subcommands1_0ENtNtNtB9_6traits8iterator8Iterator9size_hintB23_, symObjAddr: 0x2714, symBinAddr: 0x6AC28, symSize: 0x24 }
  - { offset: 0xF86FA, size: 0x8, addend: 0x0, symName: __RNvXs0_NtNtNtCsliVzVx4luf9_4core4iter8adapters3mapINtB5_3MapINtNtNtBb_5slice4iter4IterTRRNtNtCsaxBLFzn74Hr_3syn4data7VariantRNtNtCsehVGFPP7CiK_11clap_derive4item4ItemEENCNvNtNtB23_7derives10subcommand20gen_from_arg_matches0ENtNtNtB9_6traits8iterator8Iterator9size_hintB23_, symObjAddr: 0x2738, symBinAddr: 0x6AC4C, symSize: 0x24 }
  - { offset: 0xF8741, size: 0x8, addend: 0x0, symName: __RNvXs0_NtNtNtCsliVzVx4luf9_4core4iter8adapters3mapINtB5_3MapINtNtNtBb_5slice4iter4IterTRRNtNtCsaxBLFzn74Hr_3syn4data7VariantRNtNtCsehVGFPP7CiK_11clap_derive4item4ItemEENCNvNtNtB23_7derives10subcommand20gen_from_arg_matchess_0ENtNtNtB9_6traits8iterator8Iterator9size_hintB23_, symObjAddr: 0x275C, symBinAddr: 0x6AC70, symSize: 0x24 }
  - { offset: 0xF8788, size: 0x8, addend: 0x0, symName: __RNvXs0_NtNtNtCsliVzVx4luf9_4core4iter8adapters3mapINtB5_3MapINtNtNtBb_5slice4iter4IterTRRNtNtCsaxBLFzn74Hr_3syn4data7VariantRNtNtCsehVGFPP7CiK_11clap_derive4item4ItemEENCNvNtNtB23_7derives10subcommand27gen_update_from_arg_matchess0_0ENtNtNtB9_6traits8iterator8Iterator9size_hintB23_, symObjAddr: 0x2780, symBinAddr: 0x6AC94, symSize: 0x24 }
  - { offset: 0xF87CF, size: 0x8, addend: 0x0, symName: __RNvXs0_NtNtNtCsliVzVx4luf9_4core4iter8adapters3mapINtB5_3MapINtNtNtBb_5slice4iter4IterTRRNtNtCsaxBLFzn74Hr_3syn4data7VariantRNtNtCsehVGFPP7CiK_11clap_derive4item4ItemEENCNvNtNtB23_7derives10subcommand27gen_update_from_arg_matchess1_0ENtNtNtB9_6traits8iterator8Iterator9size_hintB23_, symObjAddr: 0x27A4, symBinAddr: 0x6ACB8, symSize: 0x24 }
  - { offset: 0xF8816, size: 0x8, addend: 0x0, symName: __RNvXs0_NtNtNtCsliVzVx4luf9_4core4iter8adapters3mapINtB5_3MapINtNtNtCs69QEzRJvHMp_5alloc3vec9into_iter8IntoIterTNtNtCsaxBLFzn74Hr_3syn4expr4ExprNtNtB1P_5token5CommaEENCNvXs4_NtB1P_10punctuatedINtB2L_10PunctuatedB1L_B2h_ENtNtNtB9_6traits7collect12IntoIterator9into_iter0ENtNtB3z_8iterator8Iterator9size_hintCsehVGFPP7CiK_11clap_derive, symObjAddr: 0x27C8, symBinAddr: 0x6ACDC, symSize: 0x24 }
  - { offset: 0xF885D, size: 0x8, addend: 0x0, symName: __RNvXs0_NtNtNtCsliVzVx4luf9_4core4iter8adapters3mapINtB5_3MapINtNtNtCs69QEzRJvHMp_5alloc3vec9into_iter8IntoIterTNtNtCsehVGFPP7CiK_11clap_derive4attr8ClapAttrNtNtCsaxBLFzn74Hr_3syn5token5CommaEENCNvXs4_NtB2y_10punctuatedINtB3c_10PunctuatedB1L_B2u_ENtNtNtB9_6traits7collect12IntoIterator9into_iter0ENtNtB40_8iterator8Iterator9size_hintB1P_, symObjAddr: 0x27EC, symBinAddr: 0x6AD00, symSize: 0x24 }
  - { offset: 0xF8B12, size: 0x8, addend: 0x0, symName: __RNCINvNtNtNtCsliVzVx4luf9_4core4iter8adapters3map8map_foldRNtNtCs69QEzRJvHMp_5alloc6string6StringBV_uNCINvNtNtCsehVGFPP7CiK_11clap_derive5utils12doc_comments11merge_linesBU_RSBV_E0NCINvNvNtNtNtB8_6traits8iterator8Iterator8for_each4callBV_NCINvMsi_NtBZ_3vecINtB3X_3VecBV_E14extend_trustedINtB4_3MapINtNtNtBa_5slice4iter4IterBV_EB1B_EE0E0E0B1K_, symObjAddr: 0x1A48, symBinAddr: 0x69F5C, symSize: 0x8C }
  - { offset: 0xF8B96, size: 0x8, addend: 0x0, symName: __RNCINvNtNtNtCsliVzVx4luf9_4core4iter8adapters3map8map_foldRNtNtCsehVGFPP7CiK_11clap_derive4attr8AttrKindNtNtCs69QEzRJvHMp_5alloc6string6StringuNCNvNtBZ_4item16assert_attr_kind0NCINvNvNtNtNtB8_6traits8iterator8Iterator8for_each4callB1E_NCINvMsi_NtB1I_3vecINtB3U_3VecB1E_E14extend_trustedINtB4_3MapINtNtNtBa_5slice4iter4IterBV_EB2h_EE0E0E0BZ_, symObjAddr: 0x1AD4, symBinAddr: 0x69FE8, symSize: 0x8C }
  - { offset: 0xF8C1B, size: 0x8, addend: 0x0, symName: __RNCINvNtNtNtCsliVzVx4luf9_4core4iter8adapters3map8map_foldRTNtCs3vPhoADqSdK_11proc_macro211TokenStreamNtBY_5IdentEBV_uNvYBV_NtNtBa_5clone5Clone5cloneNCINvNvNtNtB8_6traits7collect20default_extend_tuple6extendBW_B1C_INtNtCs69QEzRJvHMp_5alloc3vec3VecBW_EIB3r_B1C_EE0E0CsehVGFPP7CiK_11clap_derive, symObjAddr: 0x1B60, symBinAddr: 0x6A074, symSize: 0x94 }
  - { offset: 0xF8C9F, size: 0x8, addend: 0x0, symName: __RNCINvNtNtNtCsliVzVx4luf9_4core4iter8adapters3map8map_foldRTNtCs3vPhoADqSdK_11proc_macro211TokenStreamNtBY_5IdentEBV_uNvYBV_NtNtBa_5clone5Clone5cloneNCINvNvXs3_NtNtB8_6traits7collectpINtB2y_15SpecTupleExtendppE6extend6extendBW_B1C_INtNtCs69QEzRJvHMp_5alloc3vec3VecBW_EIB3I_B1C_EE0E0CsehVGFPP7CiK_11clap_derive, symObjAddr: 0x1BF4, symBinAddr: 0x6A108, symSize: 0x94 }
  - { offset: 0xF8D23, size: 0x8, addend: 0x0, symName: __RNCINvNtNtNtCsliVzVx4luf9_4core4iter8adapters3map8map_foldRTNtCs3vPhoADqSdK_11proc_macro211TokenStreamNtBY_5IdentERB1C_uNCNvNtNtCsehVGFPP7CiK_11clap_derive7derives10value_enum18gen_value_variants0NCINvNvNtNtNtB8_6traits8iterator8Iterator8for_each4callB1O_NCINvMsi_NtCs69QEzRJvHMp_5alloc3vecINtB4e_3VecB1O_E14extend_trustedINtB4_3MapINtNtNtBa_5slice4iter4IterBV_EB1U_EE0E0E0B22_, symObjAddr: 0x1C88, symBinAddr: 0x6A19C, symSize: 0x7C }
  - { offset: 0xF8DA7, size: 0x8, addend: 0x0, symName: __RNCINvNtNtNtCsliVzVx4luf9_4core4iter8adapters3map8map_foldRTRNtNtCsaxBLFzn74Hr_3syn4data5FieldNtNtCsehVGFPP7CiK_11clap_derive4item4ItemEjjNCINvNvXs1_NtB6_6filterINtB2n_6FilterppENtNtNtB8_6traits8iterator8Iterator5count8to_usizeBU_NCNvNtNtB1y_7derives4args11gen_augments_0E0NCINvXsK_NtB2U_5accumjNtB4w_3Sum3sumINtB4_3MapINtNtNtBa_5slice4iter4IterBV_EB2c_EE0E0B1y_, symObjAddr: 0x1D04, symBinAddr: 0x6A218, symSize: 0x98 }
  - { offset: 0xF8E2C, size: 0x8, addend: 0x0, symName: __RNCINvNtNtNtCsliVzVx4luf9_4core4iter8adapters3map8map_foldTNtNtCsaxBLFzn74Hr_3syn4expr4ExprNtNtBZ_5token5CommaEBV_uNCNvXs4_NtBZ_10punctuatedINtB1X_10PunctuatedBV_B1r_ENtNtNtB8_6traits7collect12IntoIterator9into_iter0NCINvNvNtNtB2J_8iterator8Iterator8for_each4callBV_NCINvMsi_NtCs69QEzRJvHMp_5alloc3vecINtB4p_3VecBV_E14extend_trustedINtB4_3MapINtNtB4p_9into_iter8IntoIterBU_EB1P_EE0E0E0CsehVGFPP7CiK_11clap_derive, symObjAddr: 0x1D9C, symBinAddr: 0x6A2B0, symSize: 0xB0 }
  - { offset: 0xF8EB1, size: 0x8, addend: 0x0, symName: __RNCINvNtNtNtCsliVzVx4luf9_4core4iter8adapters3map8map_foldTNtNtCsehVGFPP7CiK_11clap_derive4attr8ClapAttrNtNtCsaxBLFzn74Hr_3syn5token5CommaEBV_uNCNvXs4_NtB1I_10punctuatedINtB2p_10PunctuatedBV_B1E_ENtNtNtB8_6traits7collect12IntoIterator9into_iter0NCINvNvNtNtB3c_8iterator8Iterator8for_each4callBV_NCINvMsi_NtCs69QEzRJvHMp_5alloc3vecINtB4S_3VecBV_E14extend_trustedINtB4_3MapINtNtB4S_9into_iter8IntoIterBU_EB2h_EE0E0E0BZ_, symObjAddr: 0x1E4C, symBinAddr: 0x6A360, symSize: 0xB0 }
  - { offset: 0xF9D41, size: 0x8, addend: 0x0, symName: __RINvYINtNtNtNtCsliVzVx4luf9_4core4iter8adapters3map3MapINtNtCsaxBLFzn74Hr_3syn10punctuated4IterNtNtBW_4data5FieldENCNCNvNtNtCsehVGFPP7CiK_11clap_derive7derives10subcommand27gen_update_from_arg_matchess0_00ENtNtNtBa_6traits8iterator8Iterator7collectINtNtCs69QEzRJvHMp_5alloc3vec3VecRNtCs3vPhoADqSdK_11proc_macro25IdentEEB1Y_, symObjAddr: 0xF90, symBinAddr: 0x694A4, symSize: 0x2C }
  - { offset: 0xF9D81, size: 0x8, addend: 0x0, symName: __RINvYINtNtNtNtCsliVzVx4luf9_4core4iter8adapters3map3MapINtNtCsaxBLFzn74Hr_3syn10punctuated4IterNtNtBW_4data5FieldENCNvNtNtCsehVGFPP7CiK_11clap_derive7derives4args11derive_args0ENtNtNtBa_6traits8iterator8Iterator7collectINtNtBc_6result6ResultINtNtCs69QEzRJvHMp_5alloc3vec3VecTRB1v_NtNtB1W_4item4ItemEENtNtBW_5error5ErrorEEB1W_, symObjAddr: 0xFBC, symBinAddr: 0x694D0, symSize: 0x14 }
  - { offset: 0xF9DC2, size: 0x8, addend: 0x0, symName: __RINvYINtNtNtNtCsliVzVx4luf9_4core4iter8adapters3map3MapINtNtCsaxBLFzn74Hr_3syn10punctuated4IterNtNtBW_4data5FieldENCNvNtNtCsehVGFPP7CiK_11clap_derive7derives4args19collect_args_fields0ENtNtNtBa_6traits8iterator8Iterator7collectINtNtBc_6result6ResultINtNtCs69QEzRJvHMp_5alloc3vec3VecTRB1v_NtNtB1W_4item4ItemEENtNtBW_5error5ErrorEEB1W_, symObjAddr: 0xFD0, symBinAddr: 0x694E4, symSize: 0x14 }
  - { offset: 0xF9E03, size: 0x8, addend: 0x0, symName: __RINvYINtNtNtNtCsliVzVx4luf9_4core4iter8adapters3map3MapINtNtCsaxBLFzn74Hr_3syn10punctuated4IterNtNtBW_4data5FieldENCNvNtNtCsehVGFPP7CiK_11clap_derive7derives6parser13derive_parser0ENtNtNtBa_6traits8iterator8Iterator7collectINtNtBc_6result6ResultINtNtCs69QEzRJvHMp_5alloc3vec3VecTRB1v_NtNtB1W_4item4ItemEENtNtBW_5error5ErrorEEB1W_, symObjAddr: 0xFE4, symBinAddr: 0x694F8, symSize: 0x14 }
  - { offset: 0xF9E44, size: 0x8, addend: 0x0, symName: __RINvYINtNtNtNtCsliVzVx4luf9_4core4iter8adapters3map3MapINtNtCsaxBLFzn74Hr_3syn10punctuated4IterNtNtBW_4data7VariantENCNvNtNtCsehVGFPP7CiK_11clap_derive7derives10subcommand17derive_subcommand0ENtNtNtBa_6traits8iterator8Iterator7collectINtNtBc_6result6ResultINtNtCs69QEzRJvHMp_5alloc3vec3VecTRB1v_NtNtB1Y_4item4ItemEENtNtBW_5error5ErrorEEB1Y_, symObjAddr: 0xFF8, symBinAddr: 0x6950C, symSize: 0x14 }
  - { offset: 0xF9E85, size: 0x8, addend: 0x0, symName: __RINvYINtNtNtNtCsliVzVx4luf9_4core4iter8adapters3map3MapINtNtCsaxBLFzn74Hr_3syn10punctuated4IterNtNtBW_4data7VariantENCNvNtNtCsehVGFPP7CiK_11clap_derive7derives6parser13derive_parsers_0ENtNtNtBa_6traits8iterator8Iterator7collectINtNtBc_6result6ResultINtNtCs69QEzRJvHMp_5alloc3vec3VecTRB1v_NtNtB1Y_4item4ItemEENtNtBW_5error5ErrorEEB1Y_, symObjAddr: 0x100C, symBinAddr: 0x69520, symSize: 0x14 }
  - { offset: 0xF9EC6, size: 0x8, addend: 0x0, symName: __RINvYINtNtNtNtCsliVzVx4luf9_4core4iter8adapters3map3MapINtNtNtBc_3str4iter5SplitcENCNCNvNtNtCsehVGFPP7CiK_11clap_derive5utils12doc_comments19extract_doc_comments1_00ENtNtNtBa_6traits8iterator8Iterator7collectINtNtCs69QEzRJvHMp_5alloc3vec3VecNtNtB3p_6string6StringEEB1s_, symObjAddr: 0x1020, symBinAddr: 0x69534, symSize: 0x14 }
  - { offset: 0xF9F07, size: 0x8, addend: 0x0, symName: __RINvYINtNtNtNtCsliVzVx4luf9_4core4iter8adapters3map3MapINtNtNtBc_5slice4iter4IterNtNtCs69QEzRJvHMp_5alloc6string6StringENCINvNtNtCsehVGFPP7CiK_11clap_derive5utils12doc_comments11merge_linesRB1h_RSB1h_E0ENtNtNtBa_6traits8iterator8Iterator7collectINtNtB1l_3vec3VecB1h_EEB23_, symObjAddr: 0x1034, symBinAddr: 0x69548, symSize: 0x2C }
  - { offset: 0xF9F47, size: 0x8, addend: 0x0, symName: __RINvYINtNtNtNtCsliVzVx4luf9_4core4iter8adapters3map3MapINtNtNtBc_5slice4iter4IterNtNtCs69QEzRJvHMp_5alloc6string6StringENCINvNtNtCsehVGFPP7CiK_11clap_derive5utils12doc_comments11merge_linesRB1h_RSB1h_E0ENtNtNtBa_6traits8iterator8Iterator8for_eachNCINvMsi_NtB1l_3vecINtB45_3VecB1h_E14extend_trustedB3_E0EB23_, symObjAddr: 0x1060, symBinAddr: 0x69574, symSize: 0x44 }
  - { offset: 0xF9FC0, size: 0x8, addend: 0x0, symName: __RINvYINtNtNtNtCsliVzVx4luf9_4core4iter8adapters3map3MapINtNtNtBc_5slice4iter4IterNtNtCsehVGFPP7CiK_11clap_derive4attr8AttrKindENCNvNtB1l_4item16assert_attr_kind0ENtNtNtBa_6traits8iterator8Iterator7collectINtNtCs69QEzRJvHMp_5alloc3vec3VecNtNtB3l_6string6StringEEB1l_, symObjAddr: 0x10A4, symBinAddr: 0x695B8, symSize: 0x14 }
  - { offset: 0xFA001, size: 0x8, addend: 0x0, symName: __RINvYINtNtNtNtCsliVzVx4luf9_4core4iter8adapters3map3MapINtNtNtBc_5slice4iter4IterNtNtCsehVGFPP7CiK_11clap_derive4attr8AttrKindENCNvNtB1l_4item16assert_attr_kind0ENtNtNtBa_6traits8iterator8Iterator8for_eachNCINvMsi_NtCs69QEzRJvHMp_5alloc3vecINtB3q_3VecNtNtB3s_6string6StringE14extend_trustedB3_E0EB1l_, symObjAddr: 0x10B8, symBinAddr: 0x695CC, symSize: 0x34 }
  - { offset: 0xFA07B, size: 0x8, addend: 0x0, symName: __RINvYINtNtNtNtCsliVzVx4luf9_4core4iter8adapters3map3MapINtNtNtBc_5slice4iter4IterTNtCs3vPhoADqSdK_11proc_macro211TokenStreamNtB1k_5IdentEENCNvNtNtCsehVGFPP7CiK_11clap_derive7derives10value_enum18gen_value_variants0ENtNtNtBa_6traits8iterator8Iterator7collectINtNtCs69QEzRJvHMp_5alloc3vec3VecRB1Y_EEB2k_, symObjAddr: 0x10EC, symBinAddr: 0x69600, symSize: 0x2C }
  - { offset: 0xFA0BB, size: 0x8, addend: 0x0, symName: __RINvYINtNtNtNtCsliVzVx4luf9_4core4iter8adapters3map3MapINtNtNtBc_5slice4iter4IterTNtCs3vPhoADqSdK_11proc_macro211TokenStreamNtB1k_5IdentEENCNvNtNtCsehVGFPP7CiK_11clap_derive7derives10value_enum18gen_value_variants0ENtNtNtBa_6traits8iterator8Iterator8for_eachNCINvMsi_NtCs69QEzRJvHMp_5alloc3vecINtB4h_3VecRB1Y_E14extend_trustedB3_E0EB2k_, symObjAddr: 0x1118, symBinAddr: 0x6962C, symSize: 0x44 }
  - { offset: 0xFA134, size: 0x8, addend: 0x0, symName: __RINvYINtNtNtNtCsliVzVx4luf9_4core4iter8adapters3map3MapINtNtNtBc_5slice4iter4IterTRNtNtCsaxBLFzn74Hr_3syn4data5FieldNtNtCsehVGFPP7CiK_11clap_derive4item4ItemEENCNvNtNtB1U_7derives4args15gen_constructor0ENtNtNtBa_6traits8iterator8Iterator7collectINtNtBc_6result6ResultINtNtCs69QEzRJvHMp_5alloc3vec3VecNtCs3vPhoADqSdK_11proc_macro211TokenStreamENtNtB1n_5error5ErrorEEB1U_, symObjAddr: 0x115C, symBinAddr: 0x69670, symSize: 0x2C }
  - { offset: 0xFA174, size: 0x8, addend: 0x0, symName: __RINvYINtNtNtNtCsliVzVx4luf9_4core4iter8adapters3map3MapINtNtNtBc_5slice4iter4IterTRRNtNtCsaxBLFzn74Hr_3syn4data7VariantRNtNtCsehVGFPP7CiK_11clap_derive4item4ItemEENCNvNtNtB1Y_7derives10subcommand18gen_has_subcommands1_0ENtNtNtBa_6traits8iterator8Iterator7collectINtNtBc_6result6ResultINtNtCs69QEzRJvHMp_5alloc3vec3VecNtCs3vPhoADqSdK_11proc_macro211TokenStreamENtNtB1o_5error5ErrorEEB1Y_, symObjAddr: 0x1188, symBinAddr: 0x6969C, symSize: 0x2C }
  - { offset: 0xFA1B4, size: 0x8, addend: 0x0, symName: __RINvYINtNtNtNtCsliVzVx4luf9_4core4iter8adapters3map3MapINtNtNtBc_5slice4iter4IterTRRNtNtCsaxBLFzn74Hr_3syn4data7VariantRNtNtCsehVGFPP7CiK_11clap_derive4item4ItemEENCNvNtNtB1Y_7derives10subcommand20gen_from_arg_matches0ENtNtNtBa_6traits8iterator8Iterator7collectINtNtBc_6result6ResultINtNtCs69QEzRJvHMp_5alloc3vec3VecNtCs3vPhoADqSdK_11proc_macro211TokenStreamENtNtB1o_5error5ErrorEEB1Y_, symObjAddr: 0x11B4, symBinAddr: 0x696C8, symSize: 0x14 }
  - { offset: 0xFA1F5, size: 0x8, addend: 0x0, symName: __RINvYINtNtNtNtCsliVzVx4luf9_4core4iter8adapters3map3MapINtNtNtBc_5slice4iter4IterTRRNtNtCsaxBLFzn74Hr_3syn4data7VariantRNtNtCsehVGFPP7CiK_11clap_derive4item4ItemEENCNvNtNtB1Y_7derives10subcommand20gen_from_arg_matchess_0ENtNtNtBa_6traits8iterator8Iterator7collectINtNtBc_6result6ResultINtNtCs69QEzRJvHMp_5alloc3vec3VecNtCs3vPhoADqSdK_11proc_macro211TokenStreamENtNtB1o_5error5ErrorEEB1Y_, symObjAddr: 0x11C8, symBinAddr: 0x696DC, symSize: 0x2C }
  - { offset: 0xFA235, size: 0x8, addend: 0x0, symName: __RINvYINtNtNtNtCsliVzVx4luf9_4core4iter8adapters3map3MapINtNtNtBc_5slice4iter4IterTRRNtNtCsaxBLFzn74Hr_3syn4data7VariantRNtNtCsehVGFPP7CiK_11clap_derive4item4ItemEENCNvNtNtB1Y_7derives10subcommand27gen_update_from_arg_matchess0_0ENtNtNtBa_6traits8iterator8Iterator7collectINtNtBc_6result6ResultINtNtCs69QEzRJvHMp_5alloc3vec3VecNtCs3vPhoADqSdK_11proc_macro211TokenStreamENtNtB1o_5error5ErrorEEB1Y_, symObjAddr: 0x11F4, symBinAddr: 0x69708, symSize: 0x2C }
  - { offset: 0xFA275, size: 0x8, addend: 0x0, symName: __RINvYINtNtNtNtCsliVzVx4luf9_4core4iter8adapters3map3MapINtNtNtBc_5slice4iter4IterTRRNtNtCsaxBLFzn74Hr_3syn4data7VariantRNtNtCsehVGFPP7CiK_11clap_derive4item4ItemEENCNvNtNtB1Y_7derives10subcommand27gen_update_from_arg_matchess1_0ENtNtNtBa_6traits8iterator8Iterator7collectINtNtBc_6result6ResultINtNtCs69QEzRJvHMp_5alloc3vec3VecNtCs3vPhoADqSdK_11proc_macro211TokenStreamENtNtB1o_5error5ErrorEEB1Y_, symObjAddr: 0x1220, symBinAddr: 0x69734, symSize: 0x2C }
  - { offset: 0xFA2B5, size: 0x8, addend: 0x0, symName: __RINvYINtNtNtNtCsliVzVx4luf9_4core4iter8adapters3map3MapINtNtNtCs69QEzRJvHMp_5alloc3vec9into_iter8IntoIterTNtNtCsaxBLFzn74Hr_3syn4expr4ExprNtNtB1K_5token5CommaEENCNvXs4_NtB1K_10punctuatedINtB2G_10PunctuatedB1G_B2c_ENtNtNtBa_6traits7collect12IntoIterator9into_iter0ENtNtB3u_8iterator8Iterator8for_eachNCINvMsi_BW_INtBW_3VecB1G_E14extend_trustedB3_E0ECsehVGFPP7CiK_11clap_derive, symObjAddr: 0x124C, symBinAddr: 0x69760, symSize: 0x34 }
  - { offset: 0xFA32F, size: 0x8, addend: 0x0, symName: __RINvYINtNtNtNtCsliVzVx4luf9_4core4iter8adapters3map3MapINtNtNtCs69QEzRJvHMp_5alloc3vec9into_iter8IntoIterTNtNtCsehVGFPP7CiK_11clap_derive4attr8ClapAttrNtNtCsaxBLFzn74Hr_3syn5token5CommaEENCNvXs4_NtB2t_10punctuatedINtB37_10PunctuatedB1G_B2p_ENtNtNtBa_6traits7collect12IntoIterator9into_iter0ENtNtB3V_8iterator8Iterator8for_eachNCINvMsi_BW_INtBW_3VecB1G_E14extend_trustedB3_E0EB1K_, symObjAddr: 0x1280, symBinAddr: 0x69794, symSize: 0x34 }
  - { offset: 0xFA5DB, size: 0x8, addend: 0x0, symName: __RNvXs_NtNtNtCsliVzVx4luf9_4core4iter6traits7collectINtNtNtB8_8adapters3map3MapINtNtCsaxBLFzn74Hr_3syn10punctuated4IterNtNtB1j_4data5FieldENCNCNvNtNtCsehVGFPP7CiK_11clap_derive7derives10subcommand27gen_update_from_arg_matchess0_00ENtB4_12IntoIterator9into_iterB2m_, symObjAddr: 0x2A74, symBinAddr: 0x6AF88, symSize: 0x1C }
  - { offset: 0xFA612, size: 0x8, addend: 0x0, symName: __RNvXs_NtNtNtCsliVzVx4luf9_4core4iter6traits7collectINtNtNtB8_8adapters3map3MapINtNtCsaxBLFzn74Hr_3syn10punctuated4IterNtNtB1j_4data5FieldENCNvNtNtCsehVGFPP7CiK_11clap_derive7derives4args11derive_args0ENtB4_12IntoIterator9into_iterB2k_, symObjAddr: 0x2A90, symBinAddr: 0x6AFA4, symSize: 0x18 }
  - { offset: 0xFA649, size: 0x8, addend: 0x0, symName: __RNvXs_NtNtNtCsliVzVx4luf9_4core4iter6traits7collectINtNtNtB8_8adapters3map3MapINtNtCsaxBLFzn74Hr_3syn10punctuated4IterNtNtB1j_4data5FieldENCNvNtNtCsehVGFPP7CiK_11clap_derive7derives4args19collect_args_fields0ENtB4_12IntoIterator9into_iterB2k_, symObjAddr: 0x2AA8, symBinAddr: 0x6AFBC, symSize: 0x18 }
  - { offset: 0xFA680, size: 0x8, addend: 0x0, symName: __RNvXs_NtNtNtCsliVzVx4luf9_4core4iter6traits7collectINtNtNtB8_8adapters3map3MapINtNtCsaxBLFzn74Hr_3syn10punctuated4IterNtNtB1j_4data5FieldENCNvNtNtCsehVGFPP7CiK_11clap_derive7derives6parser13derive_parser0ENtB4_12IntoIterator9into_iterB2k_, symObjAddr: 0x2AC0, symBinAddr: 0x6AFD4, symSize: 0x18 }
  - { offset: 0xFA6B7, size: 0x8, addend: 0x0, symName: __RNvXs_NtNtNtCsliVzVx4luf9_4core4iter6traits7collectINtNtNtB8_8adapters3map3MapINtNtCsaxBLFzn74Hr_3syn10punctuated4IterNtNtB1j_4data7VariantENCNvNtNtCsehVGFPP7CiK_11clap_derive7derives10subcommand17derive_subcommand0ENtB4_12IntoIterator9into_iterB2m_, symObjAddr: 0x2AD8, symBinAddr: 0x6AFEC, symSize: 0x18 }
  - { offset: 0xFA6EE, size: 0x8, addend: 0x0, symName: __RNvXs_NtNtNtCsliVzVx4luf9_4core4iter6traits7collectINtNtNtB8_8adapters3map3MapINtNtCsaxBLFzn74Hr_3syn10punctuated4IterNtNtB1j_4data7VariantENCNvNtNtCsehVGFPP7CiK_11clap_derive7derives6parser13derive_parsers_0ENtB4_12IntoIterator9into_iterB2m_, symObjAddr: 0x2AF0, symBinAddr: 0x6B004, symSize: 0x18 }
  - { offset: 0xFA725, size: 0x8, addend: 0x0, symName: __RNvXs_NtNtNtCsliVzVx4luf9_4core4iter6traits7collectINtNtNtB8_8adapters3map3MapINtNtNtBa_3str4iter5SplitcENCNCNvNtNtCsehVGFPP7CiK_11clap_derive5utils12doc_comments19extract_doc_comments1_00ENtB4_12IntoIterator9into_iterB1P_, symObjAddr: 0x2B08, symBinAddr: 0x6B01C, symSize: 0x30 }
  - { offset: 0xFA75D, size: 0x8, addend: 0x0, symName: __RNvXs_NtNtNtCsliVzVx4luf9_4core4iter6traits7collectINtNtNtB8_8adapters3map3MapINtNtNtBa_5slice4iter4IterNtNtCs69QEzRJvHMp_5alloc6string6StringENCINvNtNtCsehVGFPP7CiK_11clap_derive5utils12doc_comments11merge_linesRB1E_RSB1E_E0ENtB4_12IntoIterator9into_iterB2q_, symObjAddr: 0x2B38, symBinAddr: 0x6B04C, symSize: 0x1C }
  - { offset: 0xFA794, size: 0x8, addend: 0x0, symName: __RNvXs_NtNtNtCsliVzVx4luf9_4core4iter6traits7collectINtNtNtB8_8adapters3map3MapINtNtNtBa_5slice4iter4IterNtNtCsehVGFPP7CiK_11clap_derive4attr8AttrKindENCNvNtB1I_4item16assert_attr_kind0ENtB4_12IntoIterator9into_iterB1I_, symObjAddr: 0x2B54, symBinAddr: 0x6B068, symSize: 0x18 }
  - { offset: 0xFA7CB, size: 0x8, addend: 0x0, symName: __RNvXs_NtNtNtCsliVzVx4luf9_4core4iter6traits7collectINtNtNtB8_8adapters3map3MapINtNtNtBa_5slice4iter4IterTNtCs3vPhoADqSdK_11proc_macro211TokenStreamNtB1H_5IdentEENCNvNtNtCsehVGFPP7CiK_11clap_derive7derives10value_enum18gen_value_variants0ENtB4_12IntoIterator9into_iterB2H_, symObjAddr: 0x2B6C, symBinAddr: 0x6B080, symSize: 0x1C }
  - { offset: 0xFA802, size: 0x8, addend: 0x0, symName: __RNvXs_NtNtNtCsliVzVx4luf9_4core4iter6traits7collectINtNtNtB8_8adapters3map3MapINtNtNtBa_5slice4iter4IterTRNtNtCsaxBLFzn74Hr_3syn4data5FieldNtNtCsehVGFPP7CiK_11clap_derive4item4ItemEENCNvNtNtB2h_7derives4args15gen_constructor0ENtB4_12IntoIterator9into_iterB2h_, symObjAddr: 0x2B88, symBinAddr: 0x6B09C, symSize: 0x1C }
  - { offset: 0xFA839, size: 0x8, addend: 0x0, symName: __RNvXs_NtNtNtCsliVzVx4luf9_4core4iter6traits7collectINtNtNtB8_8adapters3map3MapINtNtNtBa_5slice4iter4IterTRRNtNtCsaxBLFzn74Hr_3syn4data7VariantRNtNtCsehVGFPP7CiK_11clap_derive4item4ItemEENCNvNtNtB2l_7derives10subcommand18gen_has_subcommands1_0ENtB4_12IntoIterator9into_iterB2l_, symObjAddr: 0x2BA4, symBinAddr: 0x6B0B8, symSize: 0x1C }
  - { offset: 0xFA870, size: 0x8, addend: 0x0, symName: __RNvXs_NtNtNtCsliVzVx4luf9_4core4iter6traits7collectINtNtNtB8_8adapters3map3MapINtNtNtBa_5slice4iter4IterTRRNtNtCsaxBLFzn74Hr_3syn4data7VariantRNtNtCsehVGFPP7CiK_11clap_derive4item4ItemEENCNvNtNtB2l_7derives10subcommand20gen_from_arg_matches0ENtB4_12IntoIterator9into_iterB2l_, symObjAddr: 0x2BC0, symBinAddr: 0x6B0D4, symSize: 0x14 }
  - { offset: 0xFA8A7, size: 0x8, addend: 0x0, symName: __RNvXs_NtNtNtCsliVzVx4luf9_4core4iter6traits7collectINtNtNtB8_8adapters3map3MapINtNtNtBa_5slice4iter4IterTRRNtNtCsaxBLFzn74Hr_3syn4data7VariantRNtNtCsehVGFPP7CiK_11clap_derive4item4ItemEENCNvNtNtB2l_7derives10subcommand20gen_from_arg_matchess_0ENtB4_12IntoIterator9into_iterB2l_, symObjAddr: 0x2BD4, symBinAddr: 0x6B0E8, symSize: 0x1C }
  - { offset: 0xFA8DE, size: 0x8, addend: 0x0, symName: __RNvXs_NtNtNtCsliVzVx4luf9_4core4iter6traits7collectINtNtNtB8_8adapters3map3MapINtNtNtBa_5slice4iter4IterTRRNtNtCsaxBLFzn74Hr_3syn4data7VariantRNtNtCsehVGFPP7CiK_11clap_derive4item4ItemEENCNvNtNtB2l_7derives10subcommand27gen_update_from_arg_matchess0_0ENtB4_12IntoIterator9into_iterB2l_, symObjAddr: 0x2BF0, symBinAddr: 0x6B104, symSize: 0x1C }
  - { offset: 0xFA915, size: 0x8, addend: 0x0, symName: __RNvXs_NtNtNtCsliVzVx4luf9_4core4iter6traits7collectINtNtNtB8_8adapters3map3MapINtNtNtBa_5slice4iter4IterTRRNtNtCsaxBLFzn74Hr_3syn4data7VariantRNtNtCsehVGFPP7CiK_11clap_derive4item4ItemEENCNvNtNtB2l_7derives10subcommand27gen_update_from_arg_matchess1_0ENtB4_12IntoIterator9into_iterB2l_, symObjAddr: 0x2C0C, symBinAddr: 0x6B120, symSize: 0x1C }
  - { offset: 0xFA94C, size: 0x8, addend: 0x0, symName: __RNvXs_NtNtNtCsliVzVx4luf9_4core4iter6traits7collectINtNtNtB8_8adapters3map3MapINtNtNtCs69QEzRJvHMp_5alloc3vec9into_iter8IntoIterTNtNtCsaxBLFzn74Hr_3syn4expr4ExprNtNtB27_5token5CommaEENCNvXs4_NtB27_10punctuatedINtB33_10PunctuatedB23_B2z_ENtB4_12IntoIterator9into_iter0EB3N_9into_iterCsehVGFPP7CiK_11clap_derive, symObjAddr: 0x2C28, symBinAddr: 0x6B13C, symSize: 0x14 }
  - { offset: 0xFA983, size: 0x8, addend: 0x0, symName: __RNvXs_NtNtNtCsliVzVx4luf9_4core4iter6traits7collectINtNtNtB8_8adapters3map3MapINtNtNtCs69QEzRJvHMp_5alloc3vec9into_iter8IntoIterTNtNtCsehVGFPP7CiK_11clap_derive4attr8ClapAttrNtNtCsaxBLFzn74Hr_3syn5token5CommaEENCNvXs4_NtB2Q_10punctuatedINtB3u_10PunctuatedB23_B2M_ENtB4_12IntoIterator9into_iter0EB4e_9into_iterB27_, symObjAddr: 0x2C3C, symBinAddr: 0x6B150, symSize: 0x14 }
  - { offset: 0xFB6F8, size: 0x8, addend: 0x0, symName: __RNvYINtNtNtCsehVGFPP7CiK_11clap_derive5utils7spanned2SpNtNtB9_4attr8AttrKindEINtNtCsliVzVx4luf9_4core3cmp9PartialEqBR_E2neB9_, symObjAddr: 0x3964, symBinAddr: 0x6BE78, symSize: 0x30 }
  - { offset: 0xFB747, size: 0x8, addend: 0x0, symName: __RNvYNtNtNtCsehVGFPP7CiK_11clap_derive5utils2ty2TyNtNtCsliVzVx4luf9_4core3cmp9PartialEq2neB8_, symObjAddr: 0x39C0, symBinAddr: 0x6BED4, symSize: 0x30 }
  - { offset: 0xFB7A2, size: 0x8, addend: 0x0, symName: __RNvYNtNtNtCsehVGFPP7CiK_11clap_derive5utils2ty2TyNtNtCsliVzVx4luf9_4core5clone5Clone10clone_fromB8_, symObjAddr: 0x39F0, symBinAddr: 0x6BF04, symSize: 0x48 }
  - { offset: 0xFBC63, size: 0x8, addend: 0x0, symName: __RNCNvMNtNtCsehVGFPP7CiK_11clap_derive5utils2tyNtB4_2Ty11from_syn_ty0B8_, symObjAddr: 0x410C, symBinAddr: 0x6C620, symSize: 0x4C }
  - { offset: 0xFBCB5, size: 0x8, addend: 0x0, symName: __RNvNtNtCsehVGFPP7CiK_11clap_derive5utils2ty10inner_type, symObjAddr: 0x4344, symBinAddr: 0x6C858, symSize: 0x144 }
  - { offset: 0xFBCFD, size: 0x8, addend: 0x0, symName: __RNvNtNtCsehVGFPP7CiK_11clap_derive5utils2ty8sub_type, symObjAddr: 0x4488, symBinAddr: 0x6C99C, symSize: 0x34 }
  - { offset: 0xFBD2E, size: 0x8, addend: 0x0, symName: __RNCNvNtNtCsehVGFPP7CiK_11clap_derive5utils2ty8sub_type0B7_, symObjAddr: 0x44BC, symBinAddr: 0x6C9D0, symSize: 0x28 }
  - { offset: 0xFBD68, size: 0x8, addend: 0x0, symName: __RNvNtNtCsehVGFPP7CiK_11clap_derive5utils2ty17only_last_segment, symObjAddr: 0x44E4, symBinAddr: 0x6C9F8, symSize: 0x160 }
  - { offset: 0xFBDCE, size: 0x8, addend: 0x0, symName: __RINvNtNtCsehVGFPP7CiK_11clap_derive5utils2ty8subty_ifNCNvB2_13subty_if_name0EB6_, symObjAddr: 0x4644, symBinAddr: 0x6CB58, symSize: 0xA4 }
  - { offset: 0xFBE11, size: 0x8, addend: 0x0, symName: __RINvNtNtCsehVGFPP7CiK_11clap_derive5utils2ty8subty_ifNCNvB2_8sub_type0EB6_, symObjAddr: 0x46E8, symBinAddr: 0x6CBFC, symSize: 0x98 }
  - { offset: 0xFBE59, size: 0x8, addend: 0x0, symName: __RNCINvNtNtCsehVGFPP7CiK_11clap_derive5utils2ty8subty_ifNCNvB4_13subty_if_name0E0B8_, symObjAddr: 0x4780, symBinAddr: 0x6CC94, symSize: 0x40 }
  - { offset: 0xFBE9D, size: 0x8, addend: 0x0, symName: __RNCINvNtNtCsehVGFPP7CiK_11clap_derive5utils2ty8subty_ifNCNvB4_8sub_type0E0B8_, symObjAddr: 0x47C0, symBinAddr: 0x6CCD4, symSize: 0x38 }
  - { offset: 0xFBEE0, size: 0x8, addend: 0x0, symName: __RNCINvNtNtCsehVGFPP7CiK_11clap_derive5utils2ty8subty_ifNCNvB4_13subty_if_name0Es_0B8_, symObjAddr: 0x47F8, symBinAddr: 0x6CD0C, symSize: 0x9C }
  - { offset: 0xFBF3C, size: 0x8, addend: 0x0, symName: __RNCINvNtNtCsehVGFPP7CiK_11clap_derive5utils2ty8subty_ifNCNvB4_8sub_type0Es_0B8_, symObjAddr: 0x4894, symBinAddr: 0x6CDA8, symSize: 0x9C }
  - { offset: 0xFBF9D, size: 0x8, addend: 0x0, symName: __RNCNCINvNtNtCsehVGFPP7CiK_11clap_derive5utils2ty8subty_ifNCNvB6_13subty_if_name0Es_00Ba_, symObjAddr: 0x4930, symBinAddr: 0x6CE44, symSize: 0x80 }
  - { offset: 0xFBFF9, size: 0x8, addend: 0x0, symName: __RNCNCINvNtNtCsehVGFPP7CiK_11clap_derive5utils2ty8subty_ifNCNvB6_8sub_type0Es_00Ba_, symObjAddr: 0x49B0, symBinAddr: 0x6CEC4, symSize: 0x80 }
  - { offset: 0xFC073, size: 0x8, addend: 0x0, symName: __RNvNtNtCsehVGFPP7CiK_11clap_derive5utils2ty13subty_if_name, symObjAddr: 0x4A30, symBinAddr: 0x6CF44, symSize: 0x44 }
  - { offset: 0xFC0B2, size: 0x8, addend: 0x0, symName: __RNCNvNtNtCsehVGFPP7CiK_11clap_derive5utils2ty13subty_if_name0B7_, symObjAddr: 0x4A74, symBinAddr: 0x6CF88, symSize: 0x40 }
  - { offset: 0xFC102, size: 0x8, addend: 0x0, symName: __RNvNtNtCsehVGFPP7CiK_11clap_derive5utils2ty12is_simple_ty, symObjAddr: 0x4AB4, symBinAddr: 0x6CFC8, symSize: 0x58 }
  - { offset: 0xFC141, size: 0x8, addend: 0x0, symName: __RNCNvNtNtCsehVGFPP7CiK_11clap_derive5utils2ty12is_simple_ty0B7_, symObjAddr: 0x4B0C, symBinAddr: 0x6D020, symSize: 0x94 }
  - { offset: 0xFC17E, size: 0x8, addend: 0x0, symName: __RNvNtNtCsehVGFPP7CiK_11clap_derive5utils2ty13is_generic_ty, symObjAddr: 0x4BA0, symBinAddr: 0x6D0B4, symSize: 0x50 }
  - { offset: 0xFC1B8, size: 0x8, addend: 0x0, symName: __RNvNtNtCsehVGFPP7CiK_11clap_derive5utils2ty10is_unit_ty, symObjAddr: 0x4BF0, symBinAddr: 0x6D104, symSize: 0x90 }
  - { offset: 0xFC201, size: 0x8, addend: 0x0, symName: __RINvNtNtCsehVGFPP7CiK_11clap_derive5utils2ty8only_oneINtNtCsaxBLFzn74Hr_3syn10punctuated4IterNtNtBU_4path11PathSegmentERB1t_EB6_, symObjAddr: 0x4C80, symBinAddr: 0x6D194, symSize: 0x8C }
  - { offset: 0xFC23F, size: 0x8, addend: 0x0, symName: __RINvNtNtCsehVGFPP7CiK_11clap_derive5utils2ty8only_oneINtNtCsaxBLFzn74Hr_3syn10punctuated4IterNtNtBU_4path15GenericArgumentERB1t_EB6_, symObjAddr: 0x4D0C, symBinAddr: 0x6D220, symSize: 0x8C }
  - { offset: 0xFC282, size: 0x8, addend: 0x0, symName: __RNCINvNtNtCsehVGFPP7CiK_11clap_derive5utils2ty8only_oneINtNtCsaxBLFzn74Hr_3syn10punctuated4IterNtNtBW_4path11PathSegmentERB1v_E0B8_, symObjAddr: 0x4D98, symBinAddr: 0x6D2AC, symSize: 0x6C }
  - { offset: 0xFC2CC, size: 0x8, addend: 0x0, symName: __RNCINvNtNtCsehVGFPP7CiK_11clap_derive5utils2ty8only_oneINtNtCsaxBLFzn74Hr_3syn10punctuated4IterNtNtBW_4path15GenericArgumentERB1v_E0B8_, symObjAddr: 0x4E04, symBinAddr: 0x6D318, symSize: 0x6C }
  - { offset: 0xFC317, size: 0x8, addend: 0x0, symName: __RNvNtNtCsehVGFPP7CiK_11clap_derive5utils2ty10get_vec_ty, symObjAddr: 0x4E70, symBinAddr: 0x6D384, symSize: 0x58 }
  - { offset: 0xFC364, size: 0x8, addend: 0x0, symName: __RNvXs0_NtNtCsehVGFPP7CiK_11clap_derive5utils2tyNtB5_2TyNtNtCsliVzVx4luf9_4core5clone5Clone5cloneB9_, symObjAddr: 0x5078, symBinAddr: 0x6D58C, symSize: 0x18 }
  - { offset: 0xFC396, size: 0x8, addend: 0x0, symName: __RNvXs2_NtNtCsehVGFPP7CiK_11clap_derive5utils2tyNtB5_2TyNtNtCsliVzVx4luf9_4core3cmp9PartialEq2eqB9_, symObjAddr: 0x5090, symBinAddr: 0x6D5A4, symSize: 0x34 }
  - { offset: 0xFC410, size: 0x8, addend: 0x0, symName: __RNvXs3_NtNtCsehVGFPP7CiK_11clap_derive5utils2tyNtB5_2TyNtNtCsliVzVx4luf9_4core3cmp2Eq27assert_receiver_is_total_eqB9_, symObjAddr: 0x50C4, symBinAddr: 0x6D5D8, symSize: 0x10 }
  - { offset: 0xFC43E, size: 0x8, addend: 0x0, symName: __RNvXs4_NtNtCsehVGFPP7CiK_11clap_derive5utils2tyNtB5_2TyNtNtCsliVzVx4luf9_4core3fmt5Debug3fmtB9_, symObjAddr: 0x50D4, symBinAddr: 0x6D5E8, symSize: 0x16C }
  - { offset: 0xFC69B, size: 0x8, addend: 0x0, symName: __RNvXs_NtNtCsehVGFPP7CiK_11clap_derive5utils7spannedINtB4_2SpNtNtB6_2ty2TyENtNtNtCsliVzVx4luf9_4core3ops5deref5Deref5derefB8_, symObjAddr: 0x3C1C, symBinAddr: 0x6C130, symSize: 0x24 }
  - { offset: 0xFC6D0, size: 0x8, addend: 0x0, symName: __RNvXs_NtNtCsehVGFPP7CiK_11clap_derive5utils7spannedINtB4_2SpNtNtB8_4attr8AttrKindENtNtNtCsliVzVx4luf9_4core3ops5deref5Deref5derefB8_, symObjAddr: 0x3C40, symBinAddr: 0x6C154, symSize: 0x24 }
  - { offset: 0xFC705, size: 0x8, addend: 0x0, symName: __RNvXs_NtNtCsehVGFPP7CiK_11clap_derive5utils7spannedINtB4_2SpNtNtB8_4item11CasingStyleENtNtNtCsliVzVx4luf9_4core3ops5deref5Deref5derefB8_, symObjAddr: 0x3C64, symBinAddr: 0x6C178, symSize: 0x24 }
  - { offset: 0xFC73A, size: 0x8, addend: 0x0, symName: __RNvXs_NtNtCsehVGFPP7CiK_11clap_derive5utils7spannedINtB4_2SpNtNtB8_4item4KindENtNtNtCsliVzVx4luf9_4core3ops5deref5Deref5derefB8_, symObjAddr: 0x3C88, symBinAddr: 0x6C19C, symSize: 0x24 }
  - { offset: 0xFC775, size: 0x8, addend: 0x0, symName: __RNvXs1_NtNtCsehVGFPP7CiK_11clap_derive5utils7spannedINtB5_2SpNtNtCs69QEzRJvHMp_5alloc6string6StringEINtNtCsliVzVx4luf9_4core7convert4FromNtCs3vPhoADqSdK_11proc_macro25IdentE4from, symObjAddr: 0x3CAC, symBinAddr: 0x6C1C0, symSize: 0xB4 }
  - { offset: 0xFC7A8, size: 0x8, addend: 0x0, symName: __RNvXs2_NtNtCsehVGFPP7CiK_11clap_derive5utils7spannedINtB5_2SpNtNtCs69QEzRJvHMp_5alloc6string6StringEINtNtCsliVzVx4luf9_4core7convert4FromNtNtCsaxBLFzn74Hr_3syn3lit6LitStrE4from, symObjAddr: 0x3D60, symBinAddr: 0x6C274, symSize: 0xBC }
  - { offset: 0xFC7DA, size: 0x8, addend: 0x0, symName: __RNvXs3_NtNtCsehVGFPP7CiK_11clap_derive5utils7spannedINtB5_2SpNtNtCs69QEzRJvHMp_5alloc6string6StringEINtNtCsliVzVx4luf9_4core7convert4FromIBP_ReEE4from, symObjAddr: 0x3E1C, symBinAddr: 0x6C330, symSize: 0x64 }
  - { offset: 0xFC80D, size: 0x8, addend: 0x0, symName: __RNvXs4_NtNtCsehVGFPP7CiK_11clap_derive5utils7spannedINtB5_2SpNtNtB9_4attr8AttrKindEINtNtCsliVzVx4luf9_4core3cmp9PartialEqBX_E2eqB9_, symObjAddr: 0x3E80, symBinAddr: 0x6C394, symSize: 0x3C }
  - { offset: 0xFC85F, size: 0x8, addend: 0x0, symName: __RNvXs9_NtNtCsehVGFPP7CiK_11clap_derive5utils7spannedINtB5_2SpNtNtB7_2ty2TyENtNtCsliVzVx4luf9_4core5clone5Clone5cloneB9_, symObjAddr: 0x4EC8, symBinAddr: 0x6D3DC, symSize: 0x60 }
  - { offset: 0xFC894, size: 0x8, addend: 0x0, symName: __RNvXs9_NtNtCsehVGFPP7CiK_11clap_derive5utils7spannedINtB5_2SpNtNtB9_4attr8AttrKindENtNtCsliVzVx4luf9_4core5clone5Clone5cloneB9_, symObjAddr: 0x4F28, symBinAddr: 0x6D43C, symSize: 0x60 }
  - { offset: 0xFC8C9, size: 0x8, addend: 0x0, symName: __RNvXs9_NtNtCsehVGFPP7CiK_11clap_derive5utils7spannedINtB5_2SpNtNtB9_4item11CasingStyleENtNtCsliVzVx4luf9_4core5clone5Clone5cloneB9_, symObjAddr: 0x4F88, symBinAddr: 0x6D49C, symSize: 0x60 }
  - { offset: 0xFC8FE, size: 0x8, addend: 0x0, symName: __RNvXs9_NtNtCsehVGFPP7CiK_11clap_derive5utils7spannedINtB5_2SpNtNtB9_4item4KindENtNtCsliVzVx4luf9_4core5clone5Clone5cloneB9_, symObjAddr: 0x4FE8, symBinAddr: 0x6D4FC, symSize: 0x90 }
  - { offset: 0xFE31B, size: 0x8, addend: 0x0, symName: __RINvXNtNtCs69QEzRJvHMp_5alloc5slice4hackNtNtCsaxBLFzn74Hr_3syn4expr4ExprNtB3_10ConvertVec6to_vecNtNtB7_5alloc6GlobalECsehVGFPP7CiK_11clap_derive, symObjAddr: 0x4D0, symBinAddr: 0x689E4, symSize: 0x368 }
  - { offset: 0x103783, size: 0x8, addend: 0x0, symName: __RINvMNtCsliVzVx4luf9_4core6resultINtB3_6ResultNtCs3vPhoADqSdK_11proc_macro211TokenStreamNtNtCsaxBLFzn74Hr_3syn5error5ErrorE14unwrap_or_elseNCNvCsehVGFPP7CiK_11clap_derive10subcommand0EB2h_, symObjAddr: 0x0, symBinAddr: 0x68514, symSize: 0xA8 }
  - { offset: 0x10380E, size: 0x8, addend: 0x0, symName: __RINvMNtCsliVzVx4luf9_4core6resultINtB3_6ResultNtCs3vPhoADqSdK_11proc_macro211TokenStreamNtNtCsaxBLFzn74Hr_3syn5error5ErrorE14unwrap_or_elseNCNvCsehVGFPP7CiK_11clap_derive10value_enum0EB2h_, symObjAddr: 0xA8, symBinAddr: 0x685BC, symSize: 0xA8 }
  - { offset: 0x103899, size: 0x8, addend: 0x0, symName: __RINvMNtCsliVzVx4luf9_4core6resultINtB3_6ResultNtCs3vPhoADqSdK_11proc_macro211TokenStreamNtNtCsaxBLFzn74Hr_3syn5error5ErrorE14unwrap_or_elseNCNvCsehVGFPP7CiK_11clap_derive4args0EB2h_, symObjAddr: 0x150, symBinAddr: 0x68664, symSize: 0xA8 }
  - { offset: 0x103F07, size: 0x8, addend: 0x0, symName: __RINvMNtCsliVzVx4luf9_4core6resultINtB3_6ResultNtCs3vPhoADqSdK_11proc_macro211TokenStreamNtNtCsaxBLFzn74Hr_3syn5error5ErrorE14unwrap_or_elseNCNvCsehVGFPP7CiK_11clap_derive6parser0EB2h_, symObjAddr: 0x1F8, symBinAddr: 0x6870C, symSize: 0xB4 }
  - { offset: 0x1040BA, size: 0x8, addend: 0x0, symName: __RINvMs0_NtCsliVzVx4luf9_4core3fmtNtB6_9Arguments6new_v1Kj1_Kj0_ECsehVGFPP7CiK_11clap_derive, symObjAddr: 0x2AC, symBinAddr: 0x687C0, symSize: 0x4C }
  - { offset: 0x104120, size: 0x8, addend: 0x0, symName: __RINvMs0_NtCsliVzVx4luf9_4core3fmtNtB6_9Arguments6new_v1Kj3_Kj2_ECsehVGFPP7CiK_11clap_derive, symObjAddr: 0x2F8, symBinAddr: 0x6880C, symSize: 0x54 }
  - { offset: 0x104186, size: 0x8, addend: 0x0, symName: __RINvMs0_NtCsliVzVx4luf9_4core3fmtNtB6_9Arguments6new_v1Kj4_Kj3_ECsehVGFPP7CiK_11clap_derive, symObjAddr: 0x34C, symBinAddr: 0x68860, symSize: 0x54 }
  - { offset: 0x1048FA, size: 0x8, addend: 0x0, symName: __RNvMNtCsliVzVx4luf9_4core6resultINtB2_6ResultNtNtCs69QEzRJvHMp_5alloc6string6StringNtNtCs6P7HZtpS3La_3std3env8VarErrorE2okCsehVGFPP7CiK_11clap_derive, symObjAddr: 0x21B8, symBinAddr: 0x6A6CC, symSize: 0x84 }
  - { offset: 0x10494E, size: 0x8, addend: 0x0, symName: __RNvMNtCsliVzVx4luf9_4core6resultINtB2_6ResultPuNtNtNtCs6P7HZtpS3La_3std6thread5local11AccessErrorE6expectCsehVGFPP7CiK_11clap_derive, symObjAddr: 0x223C, symBinAddr: 0x6A750, symSize: 0x84 }
  - { offset: 0x1049AF, size: 0x8, addend: 0x0, symName: __RNvMs0_NtCsliVzVx4luf9_4core3fmtNtB5_9Arguments16new_v1_formattedCsehVGFPP7CiK_11clap_derive, symObjAddr: 0x22C0, symBinAddr: 0x6A7D4, symSize: 0x58 }
  - { offset: 0x104C1A, size: 0x8, addend: 0x0, symName: __RNvYINtNtNtNtCsliVzVx4luf9_4core4iter8adapters3map3MapINtNtNtBb_5slice4iter4IterTRRNtNtCsaxBLFzn74Hr_3syn4data7VariantRNtNtCsehVGFPP7CiK_11clap_derive4item4ItemEENCNvNtNtB1X_7derives10subcommand18gen_has_subcommands0_0ENtNtNtCs5Bhy1SxosHa_5quote9___private3ext14RepIteratorExt15quote_into_iterB1X_, symObjAddr: 0x3994, symBinAddr: 0x6BEA8, symSize: 0x2C }
  - { offset: 0x104C5B, size: 0x8, addend: 0x0, symName: __RNvMNtNtCsehVGFPP7CiK_11clap_derive5utils7spannedINtB2_2SpNtNtB4_2ty2TyE3newB6_, symObjAddr: 0x3A38, symBinAddr: 0x6BF4C, symSize: 0x30 }
  - { offset: 0x104C94, size: 0x8, addend: 0x0, symName: __RNvMNtNtCsehVGFPP7CiK_11clap_derive5utils7spannedINtB2_2SpNtNtB6_4attr8AttrKindE3newB6_, symObjAddr: 0x3A68, symBinAddr: 0x6BF7C, symSize: 0x30 }
  - { offset: 0x104CCD, size: 0x8, addend: 0x0, symName: __RNvMNtNtCsehVGFPP7CiK_11clap_derive5utils7spannedINtB2_2SpNtNtB6_4item11CasingStyleE3newB6_, symObjAddr: 0x3A98, symBinAddr: 0x6BFAC, symSize: 0x30 }
  - { offset: 0x104D06, size: 0x8, addend: 0x0, symName: __RNvMNtNtCsehVGFPP7CiK_11clap_derive5utils7spannedINtB2_2SpNtNtB6_4item4KindE3newB6_, symObjAddr: 0x3AC8, symBinAddr: 0x6BFDC, symSize: 0x60 }
  - { offset: 0x104D40, size: 0x8, addend: 0x0, symName: __RNvMNtNtCsehVGFPP7CiK_11clap_derive5utils7spannedINtB2_2SpNtNtCs69QEzRJvHMp_5alloc6string6StringE3newB6_, symObjAddr: 0x3B28, symBinAddr: 0x6C03C, symSize: 0x34 }
  - { offset: 0x104D86, size: 0x8, addend: 0x0, symName: __RNvMNtNtCsehVGFPP7CiK_11clap_derive5utils7spannedINtB2_2SpNtNtB6_4attr8AttrKindE3getB6_, symObjAddr: 0x3B5C, symBinAddr: 0x6C070, symSize: 0x24 }
  - { offset: 0x104DCB, size: 0x8, addend: 0x0, symName: __RNvMNtNtCsehVGFPP7CiK_11clap_derive5utils7spannedINtB2_2SpNtNtB6_4item4KindE3getB6_, symObjAddr: 0x3B80, symBinAddr: 0x6C094, symSize: 0x24 }
  - { offset: 0x104E03, size: 0x8, addend: 0x0, symName: __RNvMNtNtCsehVGFPP7CiK_11clap_derive5utils7spannedINtB2_2SpNtNtB4_2ty2TyE4spanB6_, symObjAddr: 0x3BA4, symBinAddr: 0x6C0B8, symSize: 0x28 }
  - { offset: 0x104E2E, size: 0x8, addend: 0x0, symName: __RNvMNtNtCsehVGFPP7CiK_11clap_derive5utils7spannedINtB2_2SpNtNtB6_4attr8AttrKindE4spanB6_, symObjAddr: 0x3BCC, symBinAddr: 0x6C0E0, symSize: 0x28 }
  - { offset: 0x104E59, size: 0x8, addend: 0x0, symName: __RNvMNtNtCsehVGFPP7CiK_11clap_derive5utils7spannedINtB2_2SpNtNtB6_4item4KindE4spanB6_, symObjAddr: 0x3BF4, symBinAddr: 0x6C108, symSize: 0x28 }
  - { offset: 0x104E91, size: 0x8, addend: 0x0, symName: __RNvMNtNtCsehVGFPP7CiK_11clap_derive5utils2tyNtB2_2Ty11from_syn_ty, symObjAddr: 0x3EBC, symBinAddr: 0x6C3D0, symSize: 0x250 }
  - { offset: 0x104F12, size: 0x8, addend: 0x0, symName: __RNvMNtNtCsehVGFPP7CiK_11clap_derive5utils2tyNtB2_2Ty6as_str, symObjAddr: 0x4158, symBinAddr: 0x6C66C, symSize: 0x1EC }
  - { offset: 0x105444, size: 0x8, addend: 0x0, symName: __RINvMNtCs69QEzRJvHMp_5alloc5sliceSNtNtB5_6string6String4joinReECsehVGFPP7CiK_11clap_derive, symObjAddr: 0x0, symBinAddr: 0x6D754, symSize: 0x34 }
  - { offset: 0x1054FB, size: 0x8, addend: 0x0, symName: __RINvXNtNtCsehVGFPP7CiK_11clap_derive5utils5errorNtNtCsaxBLFzn74Hr_3syn5token2EqNtB3_13ToTokensError25EXPECTED_Span_OR_ToTokensNtNtCs69QEzRJvHMp_5alloc6string6StringEB7_, symObjAddr: 0x2DF8, symBinAddr: 0x7054C, symSize: 0xB0 }
  - { offset: 0x1058AF, size: 0x8, addend: 0x0, symName: __RNCINvNtNtCs39eHfitSTy1_10proc_macro6bridge6client10run_clientNtB4_11TokenStreamINtNtCsliVzVx4luf9_4core6option6OptionBY_ENCNCINvMs7_B4_INtB4_6ClientNtB8_11TokenStreamB2n_E7expand1NvCsehVGFPP7CiK_11clap_derive10subcommandE00E0B2U_, symObjAddr: 0xBA4, symBinAddr: 0x6E2F8, symSize: 0x3D0 }
  - { offset: 0x105DF6, size: 0x8, addend: 0x0, symName: __RNCINvNtNtCs39eHfitSTy1_10proc_macro6bridge6client10run_clientNtB4_11TokenStreamINtNtCsliVzVx4luf9_4core6option6OptionBY_ENCNCINvMs7_B4_INtB4_6ClientNtB8_11TokenStreamB2n_E7expand1NvCsehVGFPP7CiK_11clap_derive10value_enumE00E0B2U_, symObjAddr: 0xF74, symBinAddr: 0x6E6C8, symSize: 0x3D0 }
  - { offset: 0x10633D, size: 0x8, addend: 0x0, symName: __RNCINvNtNtCs39eHfitSTy1_10proc_macro6bridge6client10run_clientNtB4_11TokenStreamINtNtCsliVzVx4luf9_4core6option6OptionBY_ENCNCINvMs7_B4_INtB4_6ClientNtB8_11TokenStreamB2n_E7expand1NvCsehVGFPP7CiK_11clap_derive4argsE00E0B2U_, symObjAddr: 0x1344, symBinAddr: 0x6EA98, symSize: 0x3D0 }
  - { offset: 0x106884, size: 0x8, addend: 0x0, symName: __RNCINvNtNtCs39eHfitSTy1_10proc_macro6bridge6client10run_clientNtB4_11TokenStreamINtNtCsliVzVx4luf9_4core6option6OptionBY_ENCNCINvMs7_B4_INtB4_6ClientNtB8_11TokenStreamB2n_E7expand1NvCsehVGFPP7CiK_11clap_derive6parserE00E0B2U_, symObjAddr: 0x1714, symBinAddr: 0x6EE68, symSize: 0x3D0 }
  - { offset: 0x106DD0, size: 0x8, addend: 0x0, symName: __RNCNCINvNtNtCs39eHfitSTy1_10proc_macro6bridge6client10run_clientNtB6_11TokenStreamINtNtCsliVzVx4luf9_4core6option6OptionB10_ENCNCINvMs7_B6_INtB6_6ClientNtBa_11TokenStreamB2q_E7expand1NvCsehVGFPP7CiK_11clap_derive10subcommandE00E00B2X_, symObjAddr: 0x1C24, symBinAddr: 0x6F378, symSize: 0x28 }
  - { offset: 0x106E29, size: 0x8, addend: 0x0, symName: __RNCNCINvNtNtCs39eHfitSTy1_10proc_macro6bridge6client10run_clientNtB6_11TokenStreamINtNtCsliVzVx4luf9_4core6option6OptionB10_ENCNCINvMs7_B6_INtB6_6ClientNtBa_11TokenStreamB2q_E7expand1NvCsehVGFPP7CiK_11clap_derive10value_enumE00E00B2X_, symObjAddr: 0x1C4C, symBinAddr: 0x6F3A0, symSize: 0x28 }
  - { offset: 0x106E82, size: 0x8, addend: 0x0, symName: __RNCNCINvNtNtCs39eHfitSTy1_10proc_macro6bridge6client10run_clientNtB6_11TokenStreamINtNtCsliVzVx4luf9_4core6option6OptionB10_ENCNCINvMs7_B6_INtB6_6ClientNtBa_11TokenStreamB2q_E7expand1NvCsehVGFPP7CiK_11clap_derive4argsE00E00B2X_, symObjAddr: 0x1C74, symBinAddr: 0x6F3C8, symSize: 0x28 }
  - { offset: 0x106EDB, size: 0x8, addend: 0x0, symName: __RNCNCINvNtNtCs39eHfitSTy1_10proc_macro6bridge6client10run_clientNtB6_11TokenStreamINtNtCsliVzVx4luf9_4core6option6OptionB10_ENCNCINvMs7_B6_INtB6_6ClientNtBa_11TokenStreamB2q_E7expand1NvCsehVGFPP7CiK_11clap_derive6parserE00E00B2X_, symObjAddr: 0x1C9C, symBinAddr: 0x6F3F0, symSize: 0x28 }
  - { offset: 0x106F91, size: 0x8, addend: 0x0, symName: __RNCNCINvMs7_NtNtCs39eHfitSTy1_10proc_macro6bridge6clientINtBa_6ClientNtBe_11TokenStreamB15_E7expand1NvCsehVGFPP7CiK_11clap_derive10subcommandE00B1C_, symObjAddr: 0x1B64, symBinAddr: 0x6F2B8, symSize: 0x30 }
  - { offset: 0x106FD8, size: 0x8, addend: 0x0, symName: __RNCNCINvMs7_NtNtCs39eHfitSTy1_10proc_macro6bridge6clientINtBa_6ClientNtBe_11TokenStreamB15_E7expand1NvCsehVGFPP7CiK_11clap_derive10value_enumE00B1C_, symObjAddr: 0x1B94, symBinAddr: 0x6F2E8, symSize: 0x30 }
  - { offset: 0x10701F, size: 0x8, addend: 0x0, symName: __RNCNCINvMs7_NtNtCs39eHfitSTy1_10proc_macro6bridge6clientINtBa_6ClientNtBe_11TokenStreamB15_E7expand1NvCsehVGFPP7CiK_11clap_derive4argsE00B1C_, symObjAddr: 0x1BC4, symBinAddr: 0x6F318, symSize: 0x30 }
  - { offset: 0x107066, size: 0x8, addend: 0x0, symName: __RNCNCINvMs7_NtNtCs39eHfitSTy1_10proc_macro6bridge6clientINtBa_6ClientNtBe_11TokenStreamB15_E7expand1NvCsehVGFPP7CiK_11clap_derive6parserE00B1C_, symObjAddr: 0x1BF4, symBinAddr: 0x6F348, symSize: 0x30 }
  - { offset: 0x1070AE, size: 0x8, addend: 0x0, symName: __RNCINvMs7_NtNtCs39eHfitSTy1_10proc_macro6bridge6clientINtB8_6ClientNtBc_11TokenStreamB13_E7expand1NvCsehVGFPP7CiK_11clap_derive10subcommandE0B1A_, symObjAddr: 0xAE4, symBinAddr: 0x6E238, symSize: 0x30 }
  - { offset: 0x1070F6, size: 0x8, addend: 0x0, symName: __RNCINvMs7_NtNtCs39eHfitSTy1_10proc_macro6bridge6clientINtB8_6ClientNtBc_11TokenStreamB13_E7expand1NvCsehVGFPP7CiK_11clap_derive10value_enumE0B1A_, symObjAddr: 0xB14, symBinAddr: 0x6E268, symSize: 0x30 }
  - { offset: 0x10713E, size: 0x8, addend: 0x0, symName: __RNCINvMs7_NtNtCs39eHfitSTy1_10proc_macro6bridge6clientINtB8_6ClientNtBc_11TokenStreamB13_E7expand1NvCsehVGFPP7CiK_11clap_derive4argsE0B1A_, symObjAddr: 0xB44, symBinAddr: 0x6E298, symSize: 0x30 }
  - { offset: 0x107186, size: 0x8, addend: 0x0, symName: __RNCINvMs7_NtNtCs39eHfitSTy1_10proc_macro6bridge6clientINtB8_6ClientNtBc_11TokenStreamB13_E7expand1NvCsehVGFPP7CiK_11clap_derive6parserE0B1A_, symObjAddr: 0xB74, symBinAddr: 0x6E2C8, symSize: 0x30 }
  - { offset: 0x1071F1, size: 0x8, addend: 0x0, symName: __RINvNtNtCs39eHfitSTy1_10proc_macro6bridge6client10run_clientNtB2_11TokenStreamINtNtCsliVzVx4luf9_4core6option6OptionBW_ENCNCINvMs7_B2_INtB2_6ClientNtB6_11TokenStreamB2l_E7expand1NvCsehVGFPP7CiK_11clap_derive10subcommandE00EB2S_, symObjAddr: 0x138, symBinAddr: 0x6D88C, symSize: 0x240 }
  - { offset: 0x107409, size: 0x8, addend: 0x0, symName: __RINvNtNtCs39eHfitSTy1_10proc_macro6bridge6client10run_clientNtB2_11TokenStreamINtNtCsliVzVx4luf9_4core6option6OptionBW_ENCNCINvMs7_B2_INtB2_6ClientNtB6_11TokenStreamB2l_E7expand1NvCsehVGFPP7CiK_11clap_derive10value_enumE00EB2S_, symObjAddr: 0x378, symBinAddr: 0x6DACC, symSize: 0x240 }
  - { offset: 0x107621, size: 0x8, addend: 0x0, symName: __RINvNtNtCs39eHfitSTy1_10proc_macro6bridge6client10run_clientNtB2_11TokenStreamINtNtCsliVzVx4luf9_4core6option6OptionBW_ENCNCINvMs7_B2_INtB2_6ClientNtB6_11TokenStreamB2l_E7expand1NvCsehVGFPP7CiK_11clap_derive4argsE00EB2S_, symObjAddr: 0x5B8, symBinAddr: 0x6DD0C, symSize: 0x240 }
  - { offset: 0x107839, size: 0x8, addend: 0x0, symName: __RINvNtNtCs39eHfitSTy1_10proc_macro6bridge6client10run_clientNtB2_11TokenStreamINtNtCsliVzVx4luf9_4core6option6OptionBW_ENCNCINvMs7_B2_INtB2_6ClientNtB6_11TokenStreamB2l_E7expand1NvCsehVGFPP7CiK_11clap_derive6parserE00EB2S_, symObjAddr: 0x7F8, symBinAddr: 0x6DF4C, symSize: 0x240 }
  - { offset: 0x107AEC, size: 0x8, addend: 0x0, symName: __RNvXsh_NtNtCs39eHfitSTy1_10proc_macro6bridge6clientNtB5_11TokenStreamINtNtB7_3rpc6EncodeuE6encodeCsehVGFPP7CiK_11clap_derive, symObjAddr: 0x2C24, symBinAddr: 0x70378, symSize: 0x44 }
  - { offset: 0x107C4B, size: 0x8, addend: 0x0, symName: __RNvXsk_NtNtCs39eHfitSTy1_10proc_macro6bridge6clientNtB5_11TokenStreamINtNtB7_3rpc9DecodeMutuE6decodeCsehVGFPP7CiK_11clap_derive, symObjAddr: 0x2D24, symBinAddr: 0x70478, symSize: 0x2C }
  - { offset: 0x107C94, size: 0x8, addend: 0x0, symName: __RNvXsr_NtNtCs39eHfitSTy1_10proc_macro6bridge6clientNtB5_4SpanINtNtB7_3rpc9DecodeMutuE6decodeCsehVGFPP7CiK_11clap_derive, symObjAddr: 0x2DCC, symBinAddr: 0x70520, symSize: 0x2C }
  - { offset: 0x10A0B6, size: 0x8, addend: 0x0, symName: __RINvMNtCsliVzVx4luf9_4core4boolb4thenNtNtCs69QEzRJvHMp_5alloc6string6StringNCNvNtNtCsehVGFPP7CiK_11clap_derive5utils12doc_comments18format_doc_comments0_0EB1j_, symObjAddr: 0x34, symBinAddr: 0x6D788, symSize: 0x64 }
  - { offset: 0x10A102, size: 0x8, addend: 0x0, symName: __RINvMNtCsliVzVx4luf9_4core4boolb4thenNtNtCs69QEzRJvHMp_5alloc6string6StringNCNvNtNtCsehVGFPP7CiK_11clap_derive5utils12doc_comments18format_doc_comments_0EB1j_, symObjAddr: 0x98, symBinAddr: 0x6D7EC, symSize: 0x64 }
  - { offset: 0x10A14E, size: 0x8, addend: 0x0, symName: __RINvMNtCsliVzVx4luf9_4core4boolb9then_someNtNtNtCsehVGFPP7CiK_11clap_derive5utils2ty2TyEBK_, symObjAddr: 0xFC, symBinAddr: 0x6D850, symSize: 0x3C }
  - { offset: 0x10CE6D, size: 0x8, addend: 0x0, symName: __RNCINvNvXs0_NtNtNtCsliVzVx4luf9_4core4iter8adapters10skip_whileINtBa_9SkipWhileppENtNtNtBe_6traits8iterator8Iterator4next5checkNtNtCs69QEzRJvHMp_5alloc6string6StringNCNvNtNtCsehVGFPP7CiK_11clap_derive5utils12doc_comments19extract_doc_comments0_0E0B2L_, symObjAddr: 0x1AE4, symBinAddr: 0x6F238, symSize: 0x80 }
  - { offset: 0x10CECF, size: 0x8, addend: 0x0, symName: __RNvXs0_NtNtNtCsliVzVx4luf9_4core4iter8adapters10skip_whileINtB5_9SkipWhileINtNtB7_10filter_map9FilterMapINtNtB7_6filter6FilterINtNtNtBb_5slice4iter4IterNtNtCsaxBLFzn74Hr_3syn4attr9AttributeENCNvNtNtCsehVGFPP7CiK_11clap_derive5utils12doc_comments19extract_doc_comment0ENCB34_s_0ENCB34_s0_0ENtNtNtB9_6traits8iterator8Iterator4nextB3a_, symObjAddr: 0x28A4, symBinAddr: 0x6FFF8, symSize: 0x58 }
  - { offset: 0x10CF47, size: 0x8, addend: 0x0, symName: __RNvXs0_NtNtNtCsliVzVx4luf9_4core4iter8adapters10skip_whileINtB5_9SkipWhileINtNtB7_10filter_map9FilterMapINtNtB7_6filter6FilterINtNtNtBb_5slice4iter4IterNtNtCsaxBLFzn74Hr_3syn4attr9AttributeENCNvNtNtCsehVGFPP7CiK_11clap_derive5utils12doc_comments19extract_doc_comment0ENCB34_s_0ENCB34_s0_0ENtNtNtB9_6traits8iterator8Iterator9size_hintB3a_, symObjAddr: 0x28FC, symBinAddr: 0x70050, symSize: 0x4C }
  - { offset: 0x10D1A9, size: 0x8, addend: 0x0, symName: __RINvYINtNtNtNtCsliVzVx4luf9_4core4iter8adapters10skip_while9SkipWhileINtNtB8_10filter_map9FilterMapINtNtB8_6filter6FilterINtNtNtBc_5slice4iter4IterNtNtCsaxBLFzn74Hr_3syn4attr9AttributeENCNvNtNtCsehVGFPP7CiK_11clap_derive5utils12doc_comments19extract_doc_comment0ENCB2Z_s_0ENCB2Z_s0_0ENtNtNtBa_6traits8iterator8Iterator3mapINtNtCs69QEzRJvHMp_5alloc3vec3VecNtNtB5f_6string6StringENCB2Z_s1_0EB35_, symObjAddr: 0xA38, symBinAddr: 0x6E18C, symSize: 0x20 }
  - { offset: 0x10D25E, size: 0x8, addend: 0x0, symName: __RINvYINtNtNtNtCsliVzVx4luf9_4core4iter8adapters10skip_while9SkipWhileINtNtB8_10filter_map9FilterMapINtNtB8_6filter6FilterINtNtNtBc_5slice4iter4IterNtNtCsaxBLFzn74Hr_3syn4attr9AttributeENCNvNtNtCsehVGFPP7CiK_11clap_derive5utils12doc_comments19extract_doc_comment0ENCB2Z_s_0ENCB2Z_s0_0ENtNtNtBa_6traits8iterator8Iterator8flat_mapINtNtCs69QEzRJvHMp_5alloc3vec3VecNtNtB5k_6string6StringENCB2Z_s1_0EB35_, symObjAddr: 0xA58, symBinAddr: 0x6E1AC, symSize: 0x8C }
  - { offset: 0x10D4C8, size: 0x8, addend: 0x0, symName: __RNvXs_NtNtCsliVzVx4luf9_4core5slice4iterRSNtNtCs69QEzRJvHMp_5alloc6string6StringNtNtNtNtB8_4iter6traits7collect12IntoIterator9into_iterCsehVGFPP7CiK_11clap_derive, symObjAddr: 0x2BCC, symBinAddr: 0x70320, symSize: 0x58 }
  - { offset: 0x10D785, size: 0x8, addend: 0x0, symName: __RNvNvNtNtCsliVzVx4luf9_4core5slice3raw14from_raw_parts18precondition_checkCsehVGFPP7CiK_11clap_derive, symObjAddr: 0x2588, symBinAddr: 0x6FCDC, symSize: 0x164 }
  - { offset: 0x10D92E, size: 0x8, addend: 0x0, symName: __RNvNvNtNtCsliVzVx4luf9_4core5slice3raw18from_raw_parts_mut18precondition_checkCsehVGFPP7CiK_11clap_derive, symObjAddr: 0x26EC, symBinAddr: 0x6FE40, symSize: 0x164 }
  - { offset: 0x10DBB7, size: 0x8, addend: 0x0, symName: __RNvMNtCsliVzVx4luf9_4core5sliceSNtNtCs69QEzRJvHMp_5alloc6string6String4iterCsehVGFPP7CiK_11clap_derive, symObjAddr: 0x23C0, symBinAddr: 0x6FB14, symSize: 0x28 }
  - { offset: 0x10DBEE, size: 0x8, addend: 0x0, symName: __RNvMNtCsliVzVx4luf9_4core5sliceSNtNtCs69QEzRJvHMp_5alloc6string6String4lastCsehVGFPP7CiK_11clap_derive, symObjAddr: 0x23E8, symBinAddr: 0x6FB3C, symSize: 0x64 }
  - { offset: 0x10DCF0, size: 0x8, addend: 0x0, symName: __RNvXs5_NtNtCsliVzVx4luf9_4core5slice5indexINtNtNtB9_3ops5range9RangeFromjEINtB5_10SliceIndexSNtNtCs69QEzRJvHMp_5alloc6string6StringE5indexCsehVGFPP7CiK_11clap_derive, symObjAddr: 0x2958, symBinAddr: 0x700AC, symSize: 0x98 }
  - { offset: 0x10E04C, size: 0x8, addend: 0x0, symName: __RNvXNtCsliVzVx4luf9_4core7convertRNtNtCs69QEzRJvHMp_5alloc6string6StringINtB2_5AsRefeE6as_refCsehVGFPP7CiK_11clap_derive, symObjAddr: 0x2850, symBinAddr: 0x6FFA4, symSize: 0x28 }
  - { offset: 0x10E5CD, size: 0x8, addend: 0x0, symName: __RINvMNtCs69QEzRJvHMp_5alloc5sliceSNtNtB5_6string6String4joinReECsehVGFPP7CiK_11clap_derive, symObjAddr: 0x0, symBinAddr: 0x6D754, symSize: 0x34 }
  - { offset: 0x10E816, size: 0x8, addend: 0x0, symName: __RNvXsq_NtCs69QEzRJvHMp_5alloc6stringNtB5_6StringNtNtNtCsliVzVx4luf9_4core3ops5deref5Deref5derefCsehVGFPP7CiK_11clap_derive, symObjAddr: 0x2D50, symBinAddr: 0x704A4, symSize: 0x7C }
  - { offset: 0x10E9C0, size: 0x8, addend: 0x0, symName: __RNvXsC_NtCs69QEzRJvHMp_5alloc6stringNtB5_6StringNtB5_8ToString9to_stringCsehVGFPP7CiK_11clap_derive, symObjAddr: 0x29F0, symBinAddr: 0x70144, symSize: 0x24 }
  - { offset: 0x10EA20, size: 0x8, addend: 0x0, symName: __RNvXsE_NtCs69QEzRJvHMp_5alloc6stringNtB5_6StringINtNtCsliVzVx4luf9_4core7convert5AsRefeE6as_refCsehVGFPP7CiK_11clap_derive, symObjAddr: 0x2A14, symBinAddr: 0x70168, symSize: 0x24 }
  - { offset: 0x10EA54, size: 0x8, addend: 0x0, symName: __RNvXsH_NtCs69QEzRJvHMp_5alloc6stringNtB5_6StringINtNtCsliVzVx4luf9_4core7convert4FromReE4fromCsehVGFPP7CiK_11clap_derive, symObjAddr: 0x2A38, symBinAddr: 0x7018C, symSize: 0x50 }
  - { offset: 0x10EB89, size: 0x8, addend: 0x0, symName: __RNvXsi_NtCs69QEzRJvHMp_5alloc6stringNtB5_6StringNtNtCsliVzVx4luf9_4core7default7Default7defaultCsehVGFPP7CiK_11clap_derive, symObjAddr: 0x2C68, symBinAddr: 0x703BC, symSize: 0x30 }
  - { offset: 0x10EBD9, size: 0x8, addend: 0x0, symName: __RNvXsj_NtCs69QEzRJvHMp_5alloc6stringNtB5_6StringNtNtCsliVzVx4luf9_4core3fmt7Display3fmtCsehVGFPP7CiK_11clap_derive, symObjAddr: 0x2C98, symBinAddr: 0x703EC, symSize: 0x8C }
  - { offset: 0x10F6F4, size: 0x8, addend: 0x0, symName: __RNvXs_NtCs69QEzRJvHMp_5alloc5allocNtB4_6GlobalNtNtCsliVzVx4luf9_4core5alloc9Allocator10deallocateCsehVGFPP7CiK_11clap_derive, symObjAddr: 0x2AD8, symBinAddr: 0x7022C, symSize: 0x8C }
  - { offset: 0x10F819, size: 0x8, addend: 0x0, symName: __RNvXs_NtCs69QEzRJvHMp_5alloc5allocNtB4_6GlobalNtNtCsliVzVx4luf9_4core5alloc9Allocator15allocate_zeroedCsehVGFPP7CiK_11clap_derive, symObjAddr: 0x2B64, symBinAddr: 0x702B8, symSize: 0x34 }
  - { offset: 0x10F853, size: 0x8, addend: 0x0, symName: __RNvXs_NtCs69QEzRJvHMp_5alloc5allocNtB4_6GlobalNtNtCsliVzVx4luf9_4core5alloc9Allocator8allocateCsehVGFPP7CiK_11clap_derive, symObjAddr: 0x2B98, symBinAddr: 0x702EC, symSize: 0x34 }
  - { offset: 0x10F88E, size: 0x8, addend: 0x0, symName: __RNvNtCs69QEzRJvHMp_5alloc5alloc15exchange_mallocCsehVGFPP7CiK_11clap_derive, symObjAddr: 0x2478, symBinAddr: 0x6FBCC, symSize: 0x90 }
  - { offset: 0x10F9DB, size: 0x8, addend: 0x0, symName: __RNvNtCs69QEzRJvHMp_5alloc5alloc5allocCsehVGFPP7CiK_11clap_derive, symObjAddr: 0x2508, symBinAddr: 0x6FC5C, symSize: 0x80 }
  - { offset: 0x10FAB8, size: 0x8, addend: 0x0, symName: __RNvXs1_NtCs69QEzRJvHMp_5alloc5allocNtB5_6GlobalNtNtCsliVzVx4luf9_4core5clone5Clone5cloneCsehVGFPP7CiK_11clap_derive, symObjAddr: 0x2948, symBinAddr: 0x7009C, symSize: 0x10 }
  - { offset: 0x11038F, size: 0x8, addend: 0x0, symName: __RNvXs0_NtCs69QEzRJvHMp_5alloc3strNtNtB7_6string6StringINtNtCsliVzVx4luf9_4core6borrow6BorroweE6borrowCsehVGFPP7CiK_11clap_derive, symObjAddr: 0x2878, symBinAddr: 0x6FFCC, symSize: 0x2C }
  - { offset: 0x1103E5, size: 0x8, addend: 0x0, symName: __RNvXs_NtCs69QEzRJvHMp_5alloc3strSNtNtB6_6string6StringINtNtB6_5slice4JoinReE4joinCsehVGFPP7CiK_11clap_derive, symObjAddr: 0x2A88, symBinAddr: 0x701DC, symSize: 0x50 }
  - { offset: 0x1167C9, size: 0x8, addend: 0x0, symName: __RNvMNtCs69QEzRJvHMp_5alloc5allocNtB2_6Global10alloc_implCsehVGFPP7CiK_11clap_derive, symObjAddr: 0x1CC4, symBinAddr: 0x6F418, symSize: 0x20C }
  - { offset: 0x116D01, size: 0x8, addend: 0x0, symName: __RNvMNtCs69QEzRJvHMp_5alloc6stringNtB2_6String13with_capacityCsehVGFPP7CiK_11clap_derive, symObjAddr: 0x1ED0, symBinAddr: 0x6F624, symSize: 0x44 }
  - { offset: 0x116FA1, size: 0x8, addend: 0x0, symName: __RNvMNtCs69QEzRJvHMp_5alloc6stringNtB2_6String3popCsehVGFPP7CiK_11clap_derive, symObjAddr: 0x1F14, symBinAddr: 0x6F668, symSize: 0x200 }
  - { offset: 0x1177AB, size: 0x8, addend: 0x0, symName: __RNvMNtCs69QEzRJvHMp_5alloc6stringNtB2_6String4pushCsehVGFPP7CiK_11clap_derive, symObjAddr: 0x2114, symBinAddr: 0x6F868, symSize: 0x184 }
  - { offset: 0x117C3D, size: 0x8, addend: 0x0, symName: __RNvMNtCs69QEzRJvHMp_5alloc6stringNtB2_6String6as_strCsehVGFPP7CiK_11clap_derive, symObjAddr: 0x2298, symBinAddr: 0x6F9EC, symSize: 0x24 }
  - { offset: 0x117C9C, size: 0x8, addend: 0x0, symName: __RNvMNtCs69QEzRJvHMp_5alloc6stringNtB2_6String8is_emptyCsehVGFPP7CiK_11clap_derive, symObjAddr: 0x22BC, symBinAddr: 0x6FA10, symSize: 0x28 }
  - { offset: 0x117DF3, size: 0x8, addend: 0x0, symName: __RNvMNtCs69QEzRJvHMp_5alloc6stringNtB2_6String8push_strCsehVGFPP7CiK_11clap_derive, symObjAddr: 0x22E4, symBinAddr: 0x6FA38, symSize: 0xDC }
  - { offset: 0x118262, size: 0x8, addend: 0x0, symName: __RNvMNtNtCs5Bhy1SxosHa_5quote9___private8get_spanINtB2_7GetSpanNtCs3vPhoADqSdK_11proc_macro24SpanE11___into_spanCsehVGFPP7CiK_11clap_derive, symObjAddr: 0x244C, symBinAddr: 0x6FBA0, symSize: 0x20 }
  - { offset: 0x118291, size: 0x8, addend: 0x0, symName: __RNvMsa_NtNtCs39eHfitSTy1_10proc_macro6bridge6clientNtB5_14HandleCounters3getCsehVGFPP7CiK_11clap_derive, symObjAddr: 0x246C, symBinAddr: 0x6FBC0, symSize: 0xC }
  - { offset: 0x118811, size: 0x8, addend: 0x0, symName: __RINvMs3_NtCs69QEzRJvHMp_5alloc3stre7replacecECsehVGFPP7CiK_11clap_derive, symObjAddr: 0x0, symBinAddr: 0x70650, symSize: 0x4EC }
  - { offset: 0x119889, size: 0x8, addend: 0x0, symName: __RNvNvMs1_NtNtCsliVzVx4luf9_4core3ptr8non_nullINtB7_7NonNullpE13new_unchecked18precondition_checkCsehVGFPP7CiK_11clap_derive, symObjAddr: 0x283C, symBinAddr: 0x72E8C, symSize: 0x3C }
  - { offset: 0x11CDEE, size: 0x8, addend: 0x0, symName: __RNvXs2_NtNtNtCsliVzVx4luf9_4core3ops8function5implsQNCINvNtCs69QEzRJvHMp_5alloc3str17join_generic_copyehNtNtBV_6string6StringEs_0INtB7_6FnOnceTRB1E_EE9call_onceCsehVGFPP7CiK_11clap_derive, symObjAddr: 0x2DB0, symBinAddr: 0x73400, symSize: 0x2C }
  - { offset: 0x11D5F2, size: 0x8, addend: 0x0, symName: __RNvMNtCsliVzVx4luf9_4core5sliceSNtCs3vPhoADqSdK_11proc_macro211TokenStream4iterCsehVGFPP7CiK_11clap_derive, symObjAddr: 0x278C, symBinAddr: 0x72DDC, symSize: 0x28 }
  - { offset: 0x11D629, size: 0x8, addend: 0x0, symName: __RNvMNtCsliVzVx4luf9_4core5sliceSNtCs3vPhoADqSdK_11proc_macro25Ident4iterCsehVGFPP7CiK_11clap_derive, symObjAddr: 0x27B4, symBinAddr: 0x72E04, symSize: 0x28 }
  - { offset: 0x11D660, size: 0x8, addend: 0x0, symName: __RNvMNtCsliVzVx4luf9_4core5sliceSRNtCs3vPhoADqSdK_11proc_macro25Ident4iterCsehVGFPP7CiK_11clap_derive, symObjAddr: 0x27DC, symBinAddr: 0x72E2C, symSize: 0x28 }
  - { offset: 0x11D697, size: 0x8, addend: 0x0, symName: __RNvMNtCsliVzVx4luf9_4core5sliceSTNtCs3vPhoADqSdK_11proc_macro211TokenStreamNtBx_5IdentE4iterCsehVGFPP7CiK_11clap_derive, symObjAddr: 0x2804, symBinAddr: 0x72E54, symSize: 0x28 }
  - { offset: 0x11E004, size: 0x8, addend: 0x0, symName: __RINvNtNtNtCsliVzVx4luf9_4core4iter8adapters7flatten17and_then_or_clearINtNtNtCs69QEzRJvHMp_5alloc3vec9into_iter8IntoIterNtNtB1d_6string6StringEB1U_NvYB16_NtNtNtB6_6traits8iterator8Iterator4nextECsehVGFPP7CiK_11clap_derive, symObjAddr: 0x1E6C, symBinAddr: 0x724BC, symSize: 0x124 }
  - { offset: 0x11E175, size: 0x8, addend: 0x0, symName: __RNvXs1_NtNtNtCsliVzVx4luf9_4core4iter8adapters7flattenINtB5_7FlatMapINtNtB7_10skip_while9SkipWhileINtNtB7_10filter_map9FilterMapINtNtB7_6filter6FilterINtNtNtBb_5slice4iter4IterNtNtCsaxBLFzn74Hr_3syn4attr9AttributeENCNvNtNtCsehVGFPP7CiK_11clap_derive5utils12doc_comments19extract_doc_comment0ENCB3s_s_0ENCB3s_s0_0EINtNtCs69QEzRJvHMp_5alloc3vec3VecNtNtB56_6string6StringENCB3s_s1_0ENtNtNtB9_6traits8iterator8Iterator4nextB3y_, symObjAddr: 0x2CD8, symBinAddr: 0x73328, symSize: 0x24 }
  - { offset: 0x11E1BC, size: 0x8, addend: 0x0, symName: __RNvXs1_NtNtNtCsliVzVx4luf9_4core4iter8adapters7flattenINtB5_7FlatMapINtNtB7_10skip_while9SkipWhileINtNtB7_10filter_map9FilterMapINtNtB7_6filter6FilterINtNtNtBb_5slice4iter4IterNtNtCsaxBLFzn74Hr_3syn4attr9AttributeENCNvNtNtCsehVGFPP7CiK_11clap_derive5utils12doc_comments19extract_doc_comment0ENCB3s_s_0ENCB3s_s0_0EINtNtCs69QEzRJvHMp_5alloc3vec3VecNtNtB56_6string6StringENCB3s_s1_0ENtNtNtB9_6traits8iterator8Iterator9size_hintB3y_, symObjAddr: 0x2CFC, symBinAddr: 0x7334C, symSize: 0x24 }
  - { offset: 0x11E209, size: 0x8, addend: 0x0, symName: __RNvXsx_NtNtNtCsliVzVx4luf9_4core4iter8adapters7flattenINtB5_13FlattenCompatINtNtB7_3map3MapINtNtB7_10skip_while9SkipWhileINtNtB7_10filter_map9FilterMapINtNtB7_6filter6FilterINtNtNtBb_5slice4iter4IterNtNtCsaxBLFzn74Hr_3syn4attr9AttributeENCNvNtNtCsehVGFPP7CiK_11clap_derive5utils12doc_comments19extract_doc_comment0ENCB3P_s_0ENCB3P_s0_0ENCB3P_s1_0EINtNtNtCs69QEzRJvHMp_5alloc3vec9into_iter8IntoIterNtNtB5G_6string6StringEENtNtNtB9_6traits8iterator8Iterator4nextB3V_, symObjAddr: 0x2F6C, symBinAddr: 0x735BC, symSize: 0x14C }
  - { offset: 0x11E2AA, size: 0x8, addend: 0x0, symName: __RNvXsx_NtNtNtCsliVzVx4luf9_4core4iter8adapters7flattenINtB5_13FlattenCompatINtNtB7_3map3MapINtNtB7_10skip_while9SkipWhileINtNtB7_10filter_map9FilterMapINtNtB7_6filter6FilterINtNtNtBb_5slice4iter4IterNtNtCsaxBLFzn74Hr_3syn4attr9AttributeENCNvNtNtCsehVGFPP7CiK_11clap_derive5utils12doc_comments19extract_doc_comment0ENCB3P_s_0ENCB3P_s0_0ENCB3P_s1_0EINtNtNtCs69QEzRJvHMp_5alloc3vec9into_iter8IntoIterNtNtB5G_6string6StringEENtNtNtB9_6traits8iterator8Iterator9size_hintB3V_, symObjAddr: 0x30B8, symBinAddr: 0x73708, symSize: 0x8FC }
  - { offset: 0x11EB6E, size: 0x8, addend: 0x0, symName: __RNCINvNtNtNtCsliVzVx4luf9_4core4iter8adapters10filter_map19filter_map_try_foldRNtNtCsaxBLFzn74Hr_3syn4attr9AttributeNtNtCs69QEzRJvHMp_5alloc6string6StringuINtNtNtBa_3ops12control_flow11ControlFlowB1Q_ENCNvNtNtCsehVGFPP7CiK_11clap_derive5utils12doc_comments19extract_doc_comments_0NCINvNvNtNtNtB8_6traits8iterator8Iterator4find5checkB1Q_NCINvNvXs0_NtB6_10skip_whileINtB5z_9SkipWhileppEB4B_4next5checkB1Q_NCB3f_s0_0E0E0E0B3l_, symObjAddr: 0x25F8, symBinAddr: 0x72C48, symSize: 0xDC }
  - { offset: 0x11EC23, size: 0x8, addend: 0x0, symName: __RINvXs0_NtNtNtCsliVzVx4luf9_4core4iter8adapters10filter_mapINtB6_9FilterMapINtNtB8_6filter6FilterINtNtNtBc_5slice4iter4IterNtNtCsaxBLFzn74Hr_3syn4attr9AttributeENCNvNtNtCsehVGFPP7CiK_11clap_derive5utils12doc_comments19extract_doc_comment0ENCB2B_s_0ENtNtNtBa_6traits8iterator8Iterator8try_folduNCINvNvB3Z_4find5checkNtNtCs69QEzRJvHMp_5alloc6string6StringNCINvNvXs0_NtB8_10skip_whileINtB5Q_9SkipWhileppEB3Z_4next5checkB53_NCB2B_s0_0E0E0INtNtNtBc_3ops12control_flow11ControlFlowB53_EEB2H_, symObjAddr: 0x1F90, symBinAddr: 0x725E0, symSize: 0x54 }
  - { offset: 0x11ECD4, size: 0x8, addend: 0x0, symName: __RINvXs0_NtNtNtCsliVzVx4luf9_4core4iter8adapters10filter_mapINtB6_9FilterMapINtNtNtBc_5slice4iter4IterTRNtNtCsaxBLFzn74Hr_3syn4data7VariantNtNtCsehVGFPP7CiK_11clap_derive4item4ItemEENCNvNtNtB2g_7derives10subcommand18gen_has_subcommand0ENtNtNtBa_6traits8iterator8Iterator4folduNCINvNvB3L_9partition6extendTRB1C_RB2c_EINtNtCs69QEzRJvHMp_5alloc3vec3VecB4R_ENCB2V_s_0E0EB2g_, symObjAddr: 0x1FE4, symBinAddr: 0x72634, symSize: 0x58 }
  - { offset: 0x11ED79, size: 0x8, addend: 0x0, symName: __RINvXs0_NtNtNtCsliVzVx4luf9_4core4iter8adapters10filter_mapINtB6_9FilterMapINtNtNtBc_5slice4iter4IterTRNtNtCsaxBLFzn74Hr_3syn4data7VariantNtNtCsehVGFPP7CiK_11clap_derive4item4ItemEENCNvNtNtB2g_7derives10subcommand27gen_update_from_arg_matches0ENtNtNtBa_6traits8iterator8Iterator4folduNCINvNvB3U_9partition6extendTRB1C_RB2c_EINtNtCs69QEzRJvHMp_5alloc3vec3VecB50_ENCB2V_s_0E0EB2g_, symObjAddr: 0x203C, symBinAddr: 0x7268C, symSize: 0x3C }
  - { offset: 0x11EDEA, size: 0x8, addend: 0x0, symName: __RNvXs0_NtNtNtCsliVzVx4luf9_4core4iter8adapters10filter_mapINtB5_9FilterMapINtNtB7_6filter6FilterINtNtNtBb_5slice4iter4IterNtNtCsaxBLFzn74Hr_3syn4attr9AttributeENCNvNtNtCsehVGFPP7CiK_11clap_derive5utils12doc_comments19extract_doc_comment0ENCB2A_s_0ENtNtNtB9_6traits8iterator8Iterator9size_hintB2G_, symObjAddr: 0x2B9C, symBinAddr: 0x731EC, symSize: 0x4C }
  - { offset: 0x11EE4E, size: 0x8, addend: 0x0, symName: __RNvXs0_NtNtNtCsliVzVx4luf9_4core4iter8adapters10filter_mapINtB5_9FilterMapINtNtNtBb_5slice4iter4IterTRNtNtCsaxBLFzn74Hr_3syn4data5FieldNtNtCsehVGFPP7CiK_11clap_derive4item4ItemEENCNvNtNtB2d_7derives4args11gen_augment0ENtNtNtB9_6traits8iterator8Iterator4nextB2d_, symObjAddr: 0x2BE8, symBinAddr: 0x73238, symSize: 0x2C }
  - { offset: 0x11EE95, size: 0x8, addend: 0x0, symName: __RNvXs0_NtNtNtCsliVzVx4luf9_4core4iter8adapters10filter_mapINtB5_9FilterMapINtNtNtBb_5slice4iter4IterTRNtNtCsaxBLFzn74Hr_3syn4data5FieldNtNtCsehVGFPP7CiK_11clap_derive4item4ItemEENCNvNtNtB2d_7derives4args11gen_augment0ENtNtNtB9_6traits8iterator8Iterator9size_hintB2d_, symObjAddr: 0x2C14, symBinAddr: 0x73264, symSize: 0x4C }
  - { offset: 0x11EF73, size: 0x8, addend: 0x0, symName: __RNCINvNtNtNtCsliVzVx4luf9_4core4iter8adapters10filter_map15filter_map_foldRTRNtNtCsaxBLFzn74Hr_3syn4data7VariantNtNtCsehVGFPP7CiK_11clap_derive4item4ItemETRB1c_RB1M_EuNCNvNtNtB1Q_7derives10subcommand18gen_has_subcommand0NCINvNvNtNtNtB8_6traits8iterator8Iterator9partition6extendB2s_INtNtCs69QEzRJvHMp_5alloc3vec3VecB2s_ENCB2H_s_0E0E0B1Q_, symObjAddr: 0x2488, symBinAddr: 0x72AD8, symSize: 0xB8 }
  - { offset: 0x11F015, size: 0x8, addend: 0x0, symName: __RNCINvNtNtNtCsliVzVx4luf9_4core4iter8adapters10filter_map15filter_map_foldRTRNtNtCsaxBLFzn74Hr_3syn4data7VariantNtNtCsehVGFPP7CiK_11clap_derive4item4ItemETRB1c_RB1M_EuNCNvNtNtB1Q_7derives10subcommand27gen_update_from_arg_matches0NCINvNvNtNtNtB8_6traits8iterator8Iterator9partition6extendB2s_INtNtCs69QEzRJvHMp_5alloc3vec3VecB2s_ENCB2H_s_0E0E0B1Q_, symObjAddr: 0x2540, symBinAddr: 0x72B90, symSize: 0xB8 }
  - { offset: 0x11F41A, size: 0x8, addend: 0x0, symName: __RINvYINtNtNtNtCsliVzVx4luf9_4core4iter8adapters10filter_map9FilterMapINtNtB8_6filter6FilterINtNtNtBc_5slice4iter4IterNtNtCsaxBLFzn74Hr_3syn4attr9AttributeENCNvNtNtCsehVGFPP7CiK_11clap_derive5utils12doc_comments19extract_doc_comment0ENCB2v_s_0ENtNtNtBa_6traits8iterator8Iterator10skip_whileNCB2v_s0_0EB2B_, symObjAddr: 0x2078, symBinAddr: 0x726C8, symSize: 0x28 }
  - { offset: 0x11F49D, size: 0x8, addend: 0x0, symName: __RINvYINtNtNtNtCsliVzVx4luf9_4core4iter8adapters10filter_map9FilterMapINtNtB8_6filter6FilterINtNtNtBc_5slice4iter4IterNtNtCsaxBLFzn74Hr_3syn4attr9AttributeENCNvNtNtCsehVGFPP7CiK_11clap_derive5utils12doc_comments19extract_doc_comment0ENCB2v_s_0ENtNtNtBa_6traits8iterator8Iterator4findNCINvNvXs0_NtB8_10skip_whileINtB4H_9SkipWhileppEB3T_4next5checkNtNtCs69QEzRJvHMp_5alloc6string6StringNCB2v_s0_0E0EB2B_, symObjAddr: 0x20A0, symBinAddr: 0x726F0, symSize: 0xB4 }
  - { offset: 0x11F51E, size: 0x8, addend: 0x0, symName: __RINvYINtNtNtNtCsliVzVx4luf9_4core4iter8adapters10filter_map9FilterMapINtNtNtBc_5slice4iter4IterTRNtNtCsaxBLFzn74Hr_3syn4data5FieldNtNtCsehVGFPP7CiK_11clap_derive4item4ItemEENCNvNtNtB28_7derives4args11gen_augment0ENtNtNtBa_6traits8iterator8Iterator7collectINtNtCs69QEzRJvHMp_5alloc3vec3VecRNtB26_4NameEEB28_, symObjAddr: 0x2154, symBinAddr: 0x727A4, symSize: 0x2C }
  - { offset: 0x11F55E, size: 0x8, addend: 0x0, symName: __RINvYINtNtNtNtCsliVzVx4luf9_4core4iter8adapters10filter_map9FilterMapINtNtNtBc_5slice4iter4IterTRNtNtCsaxBLFzn74Hr_3syn4data7VariantNtNtCsehVGFPP7CiK_11clap_derive4item4ItemEENCNvNtNtB2a_7derives10subcommand18gen_has_subcommand0ENtNtNtBa_6traits8iterator8Iterator9partitionINtNtCs69QEzRJvHMp_5alloc3vec3VecTRB1w_RB26_EENCB2P_s_0EB2a_, symObjAddr: 0x2180, symBinAddr: 0x727D0, symSize: 0x13C }
  - { offset: 0x11F5E3, size: 0x8, addend: 0x0, symName: __RINvYINtNtNtNtCsliVzVx4luf9_4core4iter8adapters10filter_map9FilterMapINtNtNtBc_5slice4iter4IterTRNtNtCsaxBLFzn74Hr_3syn4data7VariantNtNtCsehVGFPP7CiK_11clap_derive4item4ItemEENCNvNtNtB2a_7derives10subcommand27gen_update_from_arg_matches0ENtNtNtBa_6traits8iterator8Iterator9partitionINtNtCs69QEzRJvHMp_5alloc3vec3VecTRB1w_RB26_EENCB2P_s_0EB2a_, symObjAddr: 0x22BC, symBinAddr: 0x7290C, symSize: 0x138 }
  - { offset: 0x11F667, size: 0x8, addend: 0x0, symName: __RINvYINtNtNtNtCsliVzVx4luf9_4core4iter8adapters7flatten7FlatMapINtNtB8_10skip_while9SkipWhileINtNtB8_10filter_map9FilterMapINtNtB8_6filter6FilterINtNtNtBc_5slice4iter4IterNtNtCsaxBLFzn74Hr_3syn4attr9AttributeENCNvNtNtCsehVGFPP7CiK_11clap_derive5utils12doc_comments19extract_doc_comment0ENCB3n_s_0ENCB3n_s0_0EINtNtCs69QEzRJvHMp_5alloc3vec3VecNtNtB51_6string6StringENCB3n_s1_0ENtNtNtBa_6traits8iterator8Iterator7collectB4W_EB3t_, symObjAddr: 0x23F4, symBinAddr: 0x72A44, symSize: 0x14 }
  - { offset: 0x11F6B4, size: 0x8, addend: 0x0, symName: __RNvXs_NtNtNtCsliVzVx4luf9_4core4iter6traits7collectINtNtNtB8_8adapters10filter_map9FilterMapINtNtNtBa_5slice4iter4IterTRNtNtCsaxBLFzn74Hr_3syn4data5FieldNtNtCsehVGFPP7CiK_11clap_derive4item4ItemEENCNvNtNtB2v_7derives4args11gen_augment0ENtB4_12IntoIterator9into_iterB2v_, symObjAddr: 0x2F20, symBinAddr: 0x73570, symSize: 0x1C }
  - { offset: 0x11F6EB, size: 0x8, addend: 0x0, symName: __RNvXs_NtNtNtCsliVzVx4luf9_4core4iter6traits7collectINtNtNtB8_8adapters7flatten7FlatMapINtNtBS_10skip_while9SkipWhileINtNtBS_10filter_map9FilterMapINtNtBS_6filter6FilterINtNtNtBa_5slice4iter4IterNtNtCsaxBLFzn74Hr_3syn4attr9AttributeENCNvNtNtCsehVGFPP7CiK_11clap_derive5utils12doc_comments19extract_doc_comment0ENCB3K_s_0ENCB3K_s0_0EINtNtCs69QEzRJvHMp_5alloc3vec3VecNtNtB5o_6string6StringENCB3K_s1_0ENtB4_12IntoIterator9into_iterB3Q_, symObjAddr: 0x2F3C, symBinAddr: 0x7358C, symSize: 0x30 }
  - { offset: 0x11F759, size: 0x8, addend: 0x0, symName: __RINvNtCsliVzVx4luf9_4core10intrinsics11size_of_valDNtNtB4_5error5ErrorNtNtB4_6marker4SyncNtB18_4SendEL_ECsehVGFPP7CiK_11clap_derive, symObjAddr: 0x1DDC, symBinAddr: 0x7242C, symSize: 0x10 }
  - { offset: 0x11F790, size: 0x8, addend: 0x0, symName: __RINvNtCsliVzVx4luf9_4core10intrinsics11size_of_valINtNtCsaxBLFzn74Hr_3syn5drops6NoDropDINtNtBR_10punctuated9IterTraitNtNtBR_4data7VariantEp4ItemRB1R_EL_EECsehVGFPP7CiK_11clap_derive, symObjAddr: 0x1DEC, symBinAddr: 0x7243C, symSize: 0x10 }
  - { offset: 0x11F7C7, size: 0x8, addend: 0x0, symName: __RINvNtCsliVzVx4luf9_4core10intrinsics11size_of_valINtNtCsaxBLFzn74Hr_3syn5drops6NoDropDINtNtBR_10punctuated9IterTraitNtNtBR_4path15GenericArgumentEp4ItemRB1R_EL_EECsehVGFPP7CiK_11clap_derive, symObjAddr: 0x1DFC, symBinAddr: 0x7244C, symSize: 0x10 }
  - { offset: 0x11F7FE, size: 0x8, addend: 0x0, symName: __RINvNtCsliVzVx4luf9_4core10intrinsics11size_of_valNtNtCsehVGFPP7CiK_11clap_derive4attr8ClapAttrEBQ_, symObjAddr: 0x1E0C, symBinAddr: 0x7245C, symSize: 0xC }
  - { offset: 0x11F835, size: 0x8, addend: 0x0, symName: __RINvNtCsliVzVx4luf9_4core10intrinsics11size_of_valNtNtNtCs6P7HZtpS3La_3std2io5error6CustomECsehVGFPP7CiK_11clap_derive, symObjAddr: 0x1E18, symBinAddr: 0x72468, symSize: 0xC }
  - { offset: 0x11F86C, size: 0x8, addend: 0x0, symName: __RINvNtCsliVzVx4luf9_4core10intrinsics16min_align_of_valDNtNtB4_5error5ErrorNtNtB4_6marker4SyncNtB1d_4SendEL_ECsehVGFPP7CiK_11clap_derive, symObjAddr: 0x1E24, symBinAddr: 0x72474, symSize: 0x10 }
  - { offset: 0x11F8A3, size: 0x8, addend: 0x0, symName: __RINvNtCsliVzVx4luf9_4core10intrinsics16min_align_of_valINtNtCsaxBLFzn74Hr_3syn5drops6NoDropDINtNtBW_10punctuated9IterTraitNtNtBW_4data7VariantEp4ItemRB1W_EL_EECsehVGFPP7CiK_11clap_derive, symObjAddr: 0x1E34, symBinAddr: 0x72484, symSize: 0x10 }
  - { offset: 0x11F8DA, size: 0x8, addend: 0x0, symName: __RINvNtCsliVzVx4luf9_4core10intrinsics16min_align_of_valINtNtCsaxBLFzn74Hr_3syn5drops6NoDropDINtNtBW_10punctuated9IterTraitNtNtBW_4path15GenericArgumentEp4ItemRB1W_EL_EECsehVGFPP7CiK_11clap_derive, symObjAddr: 0x1E44, symBinAddr: 0x72494, symSize: 0x10 }
  - { offset: 0x11F911, size: 0x8, addend: 0x0, symName: __RINvNtCsliVzVx4luf9_4core10intrinsics16min_align_of_valNtNtCsehVGFPP7CiK_11clap_derive4attr8ClapAttrEBV_, symObjAddr: 0x1E54, symBinAddr: 0x724A4, symSize: 0xC }
  - { offset: 0x11F948, size: 0x8, addend: 0x0, symName: __RINvNtCsliVzVx4luf9_4core10intrinsics16min_align_of_valNtNtNtCs6P7HZtpS3La_3std2io5error6CustomECsehVGFPP7CiK_11clap_derive, symObjAddr: 0x1E60, symBinAddr: 0x724B0, symSize: 0xC }
  - { offset: 0x11F97F, size: 0x8, addend: 0x0, symName: __RNvNtCsliVzVx4luf9_4core10intrinsics8unlikelyCsehVGFPP7CiK_11clap_derive, symObjAddr: 0x282C, symBinAddr: 0x72E7C, symSize: 0x10 }
  - { offset: 0x11F9B2, size: 0x8, addend: 0x0, symName: __RNvNvNtCsliVzVx4luf9_4core10intrinsics19copy_nonoverlapping18precondition_checkCsehVGFPP7CiK_11clap_derive, symObjAddr: 0x2878, symBinAddr: 0x72EC8, symSize: 0x1EC }
  - { offset: 0x11FCB2, size: 0x8, addend: 0x0, symName: __RNvXs1_NtCsliVzVx4luf9_4core7convertNtCs3vPhoADqSdK_11proc_macro211TokenStreamINtB5_4IntoNtCs39eHfitSTy1_10proc_macro11TokenStreamE4intoCsehVGFPP7CiK_11clap_derive, symObjAddr: 0x2CC4, symBinAddr: 0x73314, symSize: 0x14 }
  - { offset: 0x11FDC7, size: 0x8, addend: 0x0, symName: __RNvYNtCs3vPhoADqSdK_11proc_macro25IdentINtNtCsliVzVx4luf9_4core3cmp9PartialEqReE2neCsehVGFPP7CiK_11clap_derive, symObjAddr: 0x39B4, symBinAddr: 0x74004, symSize: 0x30 }
  - { offset: 0x1204C2, size: 0x8, addend: 0x0, symName: __RINvXNtNtCsehVGFPP7CiK_11clap_derive5utils5errorNtCs3vPhoADqSdK_11proc_macro25IdentNtB3_13ToTokensError25EXPECTED_Span_OR_ToTokensNtNtCs69QEzRJvHMp_5alloc6string6StringEB7_, symObjAddr: 0x39E4, symBinAddr: 0x74034, symSize: 0xB0 }
  - { offset: 0x120515, size: 0x8, addend: 0x0, symName: __RINvXs_NtNtCsehVGFPP7CiK_11clap_derive5utils5errorNtCs3vPhoADqSdK_11proc_macro24SpanNtB5_9SpanError25EXPECTED_Span_OR_ToTokensNtNtCs69QEzRJvHMp_5alloc6string6StringEB9_, symObjAddr: 0x3A94, symBinAddr: 0x740E4, symSize: 0x38 }
  - { offset: 0x1209CA, size: 0x8, addend: 0x0, symName: __RNvXs10_Cs39eHfitSTy1_10proc_macroNtB6_11TokenStreamNtNtCsliVzVx4luf9_4core5clone5Clone5cloneCsehVGFPP7CiK_11clap_derive, symObjAddr: 0x2C60, symBinAddr: 0x732B0, symSize: 0x64 }
  - { offset: 0x120A3D, size: 0x8, addend: 0x0, symName: __RNvXs1l_Cs39eHfitSTy1_10proc_macroNtB6_5IdentNtNtCsliVzVx4luf9_4core5clone5Clone5cloneCsehVGFPP7CiK_11clap_derive, symObjAddr: 0x2D20, symBinAddr: 0x73370, symSize: 0x40 }
  - { offset: 0x120F8F, size: 0x8, addend: 0x0, symName: __RNvXsG_Cs3vPhoADqSdK_11proc_macro2NtB5_11TokenStreamNtNtCsliVzVx4luf9_4core5clone5Clone5cloneCsehVGFPP7CiK_11clap_derive, symObjAddr: 0x2DDC, symBinAddr: 0x7342C, symSize: 0x78 }
  - { offset: 0x120FC1, size: 0x8, addend: 0x0, symName: __RNvXsI_Cs3vPhoADqSdK_11proc_macro2NtB5_4SpanNtNtCsliVzVx4luf9_4core5clone5Clone5cloneCsehVGFPP7CiK_11clap_derive, symObjAddr: 0x2E54, symBinAddr: 0x734A4, symSize: 0x18 }
  - { offset: 0x120FF5, size: 0x8, addend: 0x0, symName: __RNvXsY_Cs3vPhoADqSdK_11proc_macro2NtB5_5IdentNtNtCsliVzVx4luf9_4core5clone5Clone5cloneCsehVGFPP7CiK_11clap_derive, symObjAddr: 0x2E6C, symBinAddr: 0x734BC, symSize: 0x78 }
  - { offset: 0x122426, size: 0x8, addend: 0x0, symName: __RINvMs3_NtCs69QEzRJvHMp_5alloc3stre7replacecECsehVGFPP7CiK_11clap_derive, symObjAddr: 0x0, symBinAddr: 0x70650, symSize: 0x4EC }
  - { offset: 0x123458, size: 0x8, addend: 0x0, symName: __RNCNCINvNtCs69QEzRJvHMp_5alloc3str17join_generic_copyehNtNtB8_6string6StringE00CsehVGFPP7CiK_11clap_derive, symObjAddr: 0x26D4, symBinAddr: 0x72D24, symSize: 0x38 }
  - { offset: 0x1234B1, size: 0x8, addend: 0x0, symName: __RNCINvNtCs69QEzRJvHMp_5alloc3str17join_generic_copyehNtNtB6_6string6StringEs_0CsehVGFPP7CiK_11clap_derive, symObjAddr: 0x2408, symBinAddr: 0x72A58, symSize: 0x80 }
  - { offset: 0x1235A9, size: 0x8, addend: 0x0, symName: __RINvNtCs69QEzRJvHMp_5alloc3str17join_generic_copyehNtNtB4_6string6StringECsehVGFPP7CiK_11clap_derive, symObjAddr: 0x4EC, symBinAddr: 0x70B3C, symSize: 0x18F0 }
  - { offset: 0x125091, size: 0x8, addend: 0x0, symName: __RNvXs2_NtCs69QEzRJvHMp_5alloc3streNtNtB7_6borrow7ToOwned8to_ownedCsehVGFPP7CiK_11clap_derive, symObjAddr: 0x2D60, symBinAddr: 0x733B0, symSize: 0x50 }
  - { offset: 0x12ADA3, size: 0x8, addend: 0x0, symName: __RNvXs0_NtCsaxBLFzn74Hr_3syn5dropsINtB5_6NoDropDINtNtB7_10punctuated9IterTraitNtNtB7_4data7VariantEp4ItemRB1d_EL_ENtNtNtCsliVzVx4luf9_4core3ops5deref8DerefMut9deref_mutCsehVGFPP7CiK_11clap_derive, symObjAddr: 0x2B24, symBinAddr: 0x73174, symSize: 0x3C }
  - { offset: 0x12ADD8, size: 0x8, addend: 0x0, symName: __RNvXs0_NtCsaxBLFzn74Hr_3syn5dropsINtB5_6NoDropDINtNtB7_10punctuated9IterTraitNtNtB7_4path15GenericArgumentEp4ItemRB1d_EL_ENtNtNtCsliVzVx4luf9_4core3ops5deref8DerefMut9deref_mutCsehVGFPP7CiK_11clap_derive, symObjAddr: 0x2B60, symBinAddr: 0x731B0, symSize: 0x3C }
  - { offset: 0x12AE13, size: 0x8, addend: 0x0, symName: __RNvXs_NtCsaxBLFzn74Hr_3syn5dropsINtB4_6NoDropDINtNtB6_10punctuated9IterTraitNtNtB6_4data7VariantEp4ItemRB1c_EL_ENtNtNtCsliVzVx4luf9_4core3ops5deref5Deref5derefCsehVGFPP7CiK_11clap_derive, symObjAddr: 0x2EE4, symBinAddr: 0x73534, symSize: 0x3C }
  - { offset: 0x12B6A8, size: 0x8, addend: 0x0, symName: __RNvMNtCsaxBLFzn74Hr_3syn5dropsINtB2_6NoDropINtNtB4_10punctuated11PrivateIterNtNtB4_4data7VariantNtNtB4_5token5CommaEE3newCsehVGFPP7CiK_11clap_derive, symObjAddr: 0x270C, symBinAddr: 0x72D5C, symSize: 0x40 }
  - { offset: 0x12B725, size: 0x8, addend: 0x0, symName: __RNvMNtCsaxBLFzn74Hr_3syn5dropsINtB2_6NoDropINtNtB4_10punctuated11PrivateIterNtNtB4_4path15GenericArgumentNtNtB4_5token5CommaEE3newCsehVGFPP7CiK_11clap_derive, symObjAddr: 0x274C, symBinAddr: 0x72D9C, symSize: 0x40 }
  - { offset: 0x12B7A1, size: 0x8, addend: 0x0, symName: __RNvXNtCs5Bhy1SxosHa_5quote9to_tokensRNtCs3vPhoADqSdK_11proc_macro211TokenStreamNtB2_8ToTokens9to_tokensCsehVGFPP7CiK_11clap_derive, symObjAddr: 0x2A64, symBinAddr: 0x730B4, symSize: 0x40 }
  - { offset: 0x12B7E0, size: 0x8, addend: 0x0, symName: __RNvXNtCs5Bhy1SxosHa_5quote9to_tokensRNtCs3vPhoADqSdK_11proc_macro25IdentNtB2_8ToTokens9to_tokensCsehVGFPP7CiK_11clap_derive, symObjAddr: 0x2AA4, symBinAddr: 0x730F4, symSize: 0x40 }
  - { offset: 0x12B81F, size: 0x8, addend: 0x0, symName: __RNvXNtCs5Bhy1SxosHa_5quote9to_tokensRRNtCs3vPhoADqSdK_11proc_macro25IdentNtB2_8ToTokens9to_tokensCsehVGFPP7CiK_11clap_derive, symObjAddr: 0x2AE4, symBinAddr: 0x73134, symSize: 0x40 }
  - { offset: 0x12BDC8, size: 0x8, addend: 0x0, symName: __RINvMNtCsaxBLFzn74Hr_3syn4attrNtB3_9Attribute15parse_args_withNvMNtB5_10punctuatedINtB11_10PunctuatedNtNtCsehVGFPP7CiK_11clap_derive4attr8ClapAttrNtNtB5_5token5CommaE16parse_terminatedEB1F_, symObjAddr: 0x0, symBinAddr: 0x7411C, symSize: 0x404 }
  - { offset: 0x12C6DA, size: 0x8, addend: 0x0, symName: __RNvXs1_NtCs3vPhoADqSdK_11proc_macro26markerNtB5_19ProcMacroAutoTraitsNtNtCsliVzVx4luf9_4core5clone5Clone5cloneCsehVGFPP7CiK_11clap_derive, symObjAddr: 0xEE0, symBinAddr: 0x74FFC, symSize: 0x10 }
  - { offset: 0x12CAFB, size: 0x8, addend: 0x0, symName: __RNCNvMNtCsehVGFPP7CiK_11clap_derive4attrNtB4_8ClapAttr14value_or_abort0B6_, symObjAddr: 0x1C00, symBinAddr: 0x75D1C, symSize: 0xB8 }
  - { offset: 0x12CBE5, size: 0x8, addend: 0x0, symName: __RNvXs_NtCsehVGFPP7CiK_11clap_derive4attrNtB4_8ClapAttrNtNtCsaxBLFzn74Hr_3syn5parse5Parse5parse, symObjAddr: 0x1E78, symBinAddr: 0x75F94, symSize: 0x10D8 }
  - { offset: 0x12CE1C, size: 0x8, addend: 0x0, symName: __RNvXs0_NtCsehVGFPP7CiK_11clap_derive4attrNtB5_9AttrValueNtNtCs5Bhy1SxosHa_5quote9to_tokens8ToTokens9to_tokens, symObjAddr: 0x2F50, symBinAddr: 0x7706C, symSize: 0x288 }
  - { offset: 0x12CF75, size: 0x8, addend: 0x0, symName: __RNvXs2_NtCsehVGFPP7CiK_11clap_derive4attrNtB5_8ClapAttrNtNtCsliVzVx4luf9_4core5clone5Clone5cloneB7_, symObjAddr: 0x575C, symBinAddr: 0x79878, symSize: 0xD8 }
  - { offset: 0x12CFA7, size: 0x8, addend: 0x0, symName: __RNvXs4_NtCsehVGFPP7CiK_11clap_derive4attrNtB5_13MagicAttrNameNtNtCsliVzVx4luf9_4core5clone5Clone5cloneB7_, symObjAddr: 0x5834, symBinAddr: 0x79950, symSize: 0x18 }
  - { offset: 0x12CFD9, size: 0x8, addend: 0x0, symName: __RNvXs6_NtCsehVGFPP7CiK_11clap_derive4attrNtB5_13MagicAttrNameNtNtCsliVzVx4luf9_4core3cmp9PartialEq2eqB7_, symObjAddr: 0x584C, symBinAddr: 0x79968, symSize: 0x34 }
  - { offset: 0x12D053, size: 0x8, addend: 0x0, symName: __RNvXs7_NtCsehVGFPP7CiK_11clap_derive4attrNtB5_13MagicAttrNameNtNtCsliVzVx4luf9_4core3cmp2Eq27assert_receiver_is_total_eqB7_, symObjAddr: 0x5880, symBinAddr: 0x7999C, symSize: 0x10 }
  - { offset: 0x12D081, size: 0x8, addend: 0x0, symName: __RNvXs8_NtCsehVGFPP7CiK_11clap_derive4attrNtB5_9AttrValueNtNtCsliVzVx4luf9_4core5clone5Clone5cloneB7_, symObjAddr: 0x5890, symBinAddr: 0x799AC, symSize: 0xF0 }
  - { offset: 0x12D10A, size: 0x8, addend: 0x0, symName: __RNvXsa_NtCsehVGFPP7CiK_11clap_derive4attrNtB5_8AttrKindNtNtCsliVzVx4luf9_4core5clone5Clone5cloneB7_, symObjAddr: 0x5980, symBinAddr: 0x79A9C, symSize: 0x18 }
  - { offset: 0x12D13C, size: 0x8, addend: 0x0, symName: __RNvXsc_NtCsehVGFPP7CiK_11clap_derive4attrNtB5_8AttrKindNtNtCsliVzVx4luf9_4core3cmp9PartialEq2eqB7_, symObjAddr: 0x5998, symBinAddr: 0x79AB4, symSize: 0x34 }
  - { offset: 0x12D1B6, size: 0x8, addend: 0x0, symName: __RNvXsd_NtCsehVGFPP7CiK_11clap_derive4attrNtB5_8AttrKindNtNtCsliVzVx4luf9_4core3cmp2Eq27assert_receiver_is_total_eqB7_, symObjAddr: 0x59CC, symBinAddr: 0x79AE8, symSize: 0x10 }
  - { offset: 0x12D6E0, size: 0x8, addend: 0x0, symName: __RINvXNtNtCsehVGFPP7CiK_11clap_derive5utils5errorNtNtB7_4attr9AttrValueNtB3_13ToTokensError25EXPECTED_Span_OR_ToTokensNtNtCs69QEzRJvHMp_5alloc6string6StringEB7_, symObjAddr: 0x56AC, symBinAddr: 0x797C8, symSize: 0xB0 }
